ARM GAS  /tmp/ccoZx0qa.s 			page 1


   1              		.cpu cortex-m4
   2              		.eabi_attribute 27, 1
   3              		.eabi_attribute 28, 1
   4              		.eabi_attribute 20, 1
   5              		.eabi_attribute 21, 1
   6              		.eabi_attribute 23, 3
   7              		.eabi_attribute 24, 1
   8              		.eabi_attribute 25, 1
   9              		.eabi_attribute 26, 1
  10              		.eabi_attribute 30, 1
  11              		.eabi_attribute 34, 1
  12              		.eabi_attribute 18, 4
  13              		.file	"stm32f4xx_hal_gpio.c"
  14              		.text
  15              	.Ltext0:
  16              		.cfi_sections	.debug_frame
  17              		.section	.rodata.HAL_GPIO_Init.str1.4,"aMS",%progbits,1
  18              		.align	2
  19              	.LC0:
  20 0000 2F686F6D 		.ascii	"/home/christoschristoforou/STM32Cube/Repository/STM"
  20      652F6368 
  20      72697374 
  20      6F736368 
  20      72697374 
  21 0033 33324375 		.ascii	"32Cube_FW_F4_V1.27.0/Drivers/STM32F4xx_HAL_Driver/S"
  21      62655F46 
  21      575F4634 
  21      5F56312E 
  21      32372E30 
  22 0066 72632F73 		.ascii	"rc/stm32f4xx_hal_gpio.c\000"
  22      746D3332 
  22      66347878 
  22      5F68616C 
  22      5F677069 
  23              		.section	.text.HAL_GPIO_Init,"ax",%progbits
  24              		.align	1
  25              		.global	HAL_GPIO_Init
  26              		.arch armv7e-m
  27              		.syntax unified
  28              		.thumb
  29              		.thumb_func
  30              		.fpu fpv4-sp-d16
  32              	HAL_GPIO_Init:
  33              	.LVL0:
  34              	.LFB130:
  35              		.file 1 "/home/christoschristoforou/STM32Cube/Repository/STM32Cube_FW_F4_V1.27.0/Drivers/STM32F4xx
   1:/home/christoschristoforou/STM32Cube/Repository/STM32Cube_FW_F4_V1.27.0/Drivers/STM32F4xx_HAL_Driver/Src/stm32f4xx_hal_gpio.c **** /**
   2:/home/christoschristoforou/STM32Cube/Repository/STM32Cube_FW_F4_V1.27.0/Drivers/STM32F4xx_HAL_Driver/Src/stm32f4xx_hal_gpio.c ****   ******************************************************************************
   3:/home/christoschristoforou/STM32Cube/Repository/STM32Cube_FW_F4_V1.27.0/Drivers/STM32F4xx_HAL_Driver/Src/stm32f4xx_hal_gpio.c ****   * @file    stm32f4xx_hal_gpio.c
   4:/home/christoschristoforou/STM32Cube/Repository/STM32Cube_FW_F4_V1.27.0/Drivers/STM32F4xx_HAL_Driver/Src/stm32f4xx_hal_gpio.c ****   * @author  MCD Application Team
   5:/home/christoschristoforou/STM32Cube/Repository/STM32Cube_FW_F4_V1.27.0/Drivers/STM32F4xx_HAL_Driver/Src/stm32f4xx_hal_gpio.c ****   * @brief   GPIO HAL module driver.
   6:/home/christoschristoforou/STM32Cube/Repository/STM32Cube_FW_F4_V1.27.0/Drivers/STM32F4xx_HAL_Driver/Src/stm32f4xx_hal_gpio.c ****   *          This file provides firmware functions to manage the following 
   7:/home/christoschristoforou/STM32Cube/Repository/STM32Cube_FW_F4_V1.27.0/Drivers/STM32F4xx_HAL_Driver/Src/stm32f4xx_hal_gpio.c ****   *          functionalities of the General Purpose Input/Output (GPIO) peripheral:
   8:/home/christoschristoforou/STM32Cube/Repository/STM32Cube_FW_F4_V1.27.0/Drivers/STM32F4xx_HAL_Driver/Src/stm32f4xx_hal_gpio.c ****   *           + Initialization and de-initialization functions
   9:/home/christoschristoforou/STM32Cube/Repository/STM32Cube_FW_F4_V1.27.0/Drivers/STM32F4xx_HAL_Driver/Src/stm32f4xx_hal_gpio.c ****   *           + IO operation functions
  10:/home/christoschristoforou/STM32Cube/Repository/STM32Cube_FW_F4_V1.27.0/Drivers/STM32F4xx_HAL_Driver/Src/stm32f4xx_hal_gpio.c ****   *
  11:/home/christoschristoforou/STM32Cube/Repository/STM32Cube_FW_F4_V1.27.0/Drivers/STM32F4xx_HAL_Driver/Src/stm32f4xx_hal_gpio.c ****   ******************************************************************************
ARM GAS  /tmp/ccoZx0qa.s 			page 2


  12:/home/christoschristoforou/STM32Cube/Repository/STM32Cube_FW_F4_V1.27.0/Drivers/STM32F4xx_HAL_Driver/Src/stm32f4xx_hal_gpio.c ****   * @attention
  13:/home/christoschristoforou/STM32Cube/Repository/STM32Cube_FW_F4_V1.27.0/Drivers/STM32F4xx_HAL_Driver/Src/stm32f4xx_hal_gpio.c ****   *
  14:/home/christoschristoforou/STM32Cube/Repository/STM32Cube_FW_F4_V1.27.0/Drivers/STM32F4xx_HAL_Driver/Src/stm32f4xx_hal_gpio.c ****   * Copyright (c) 2017 STMicroelectronics.
  15:/home/christoschristoforou/STM32Cube/Repository/STM32Cube_FW_F4_V1.27.0/Drivers/STM32F4xx_HAL_Driver/Src/stm32f4xx_hal_gpio.c ****   * All rights reserved.
  16:/home/christoschristoforou/STM32Cube/Repository/STM32Cube_FW_F4_V1.27.0/Drivers/STM32F4xx_HAL_Driver/Src/stm32f4xx_hal_gpio.c ****   *
  17:/home/christoschristoforou/STM32Cube/Repository/STM32Cube_FW_F4_V1.27.0/Drivers/STM32F4xx_HAL_Driver/Src/stm32f4xx_hal_gpio.c ****   * This software is licensed under terms that can be found in the LICENSE file
  18:/home/christoschristoforou/STM32Cube/Repository/STM32Cube_FW_F4_V1.27.0/Drivers/STM32F4xx_HAL_Driver/Src/stm32f4xx_hal_gpio.c ****   * in the root directory of this software component.
  19:/home/christoschristoforou/STM32Cube/Repository/STM32Cube_FW_F4_V1.27.0/Drivers/STM32F4xx_HAL_Driver/Src/stm32f4xx_hal_gpio.c ****   * If no LICENSE file comes with this software, it is provided AS-IS.
  20:/home/christoschristoforou/STM32Cube/Repository/STM32Cube_FW_F4_V1.27.0/Drivers/STM32F4xx_HAL_Driver/Src/stm32f4xx_hal_gpio.c ****   *
  21:/home/christoschristoforou/STM32Cube/Repository/STM32Cube_FW_F4_V1.27.0/Drivers/STM32F4xx_HAL_Driver/Src/stm32f4xx_hal_gpio.c ****   ******************************************************************************
  22:/home/christoschristoforou/STM32Cube/Repository/STM32Cube_FW_F4_V1.27.0/Drivers/STM32F4xx_HAL_Driver/Src/stm32f4xx_hal_gpio.c ****   @verbatim
  23:/home/christoschristoforou/STM32Cube/Repository/STM32Cube_FW_F4_V1.27.0/Drivers/STM32F4xx_HAL_Driver/Src/stm32f4xx_hal_gpio.c ****   ==============================================================================
  24:/home/christoschristoforou/STM32Cube/Repository/STM32Cube_FW_F4_V1.27.0/Drivers/STM32F4xx_HAL_Driver/Src/stm32f4xx_hal_gpio.c ****                     ##### GPIO Peripheral features #####
  25:/home/christoschristoforou/STM32Cube/Repository/STM32Cube_FW_F4_V1.27.0/Drivers/STM32F4xx_HAL_Driver/Src/stm32f4xx_hal_gpio.c ****   ==============================================================================
  26:/home/christoschristoforou/STM32Cube/Repository/STM32Cube_FW_F4_V1.27.0/Drivers/STM32F4xx_HAL_Driver/Src/stm32f4xx_hal_gpio.c ****   [..] 
  27:/home/christoschristoforou/STM32Cube/Repository/STM32Cube_FW_F4_V1.27.0/Drivers/STM32F4xx_HAL_Driver/Src/stm32f4xx_hal_gpio.c ****   Subject to the specific hardware characteristics of each I/O port listed in the datasheet, each
  28:/home/christoschristoforou/STM32Cube/Repository/STM32Cube_FW_F4_V1.27.0/Drivers/STM32F4xx_HAL_Driver/Src/stm32f4xx_hal_gpio.c ****   port bit of the General Purpose IO (GPIO) Ports, can be individually configured by software
  29:/home/christoschristoforou/STM32Cube/Repository/STM32Cube_FW_F4_V1.27.0/Drivers/STM32F4xx_HAL_Driver/Src/stm32f4xx_hal_gpio.c ****   in several modes:
  30:/home/christoschristoforou/STM32Cube/Repository/STM32Cube_FW_F4_V1.27.0/Drivers/STM32F4xx_HAL_Driver/Src/stm32f4xx_hal_gpio.c ****   (+) Input mode 
  31:/home/christoschristoforou/STM32Cube/Repository/STM32Cube_FW_F4_V1.27.0/Drivers/STM32F4xx_HAL_Driver/Src/stm32f4xx_hal_gpio.c ****   (+) Analog mode
  32:/home/christoschristoforou/STM32Cube/Repository/STM32Cube_FW_F4_V1.27.0/Drivers/STM32F4xx_HAL_Driver/Src/stm32f4xx_hal_gpio.c ****   (+) Output mode
  33:/home/christoschristoforou/STM32Cube/Repository/STM32Cube_FW_F4_V1.27.0/Drivers/STM32F4xx_HAL_Driver/Src/stm32f4xx_hal_gpio.c ****   (+) Alternate function mode
  34:/home/christoschristoforou/STM32Cube/Repository/STM32Cube_FW_F4_V1.27.0/Drivers/STM32F4xx_HAL_Driver/Src/stm32f4xx_hal_gpio.c ****   (+) External interrupt/event lines
  35:/home/christoschristoforou/STM32Cube/Repository/STM32Cube_FW_F4_V1.27.0/Drivers/STM32F4xx_HAL_Driver/Src/stm32f4xx_hal_gpio.c **** 
  36:/home/christoschristoforou/STM32Cube/Repository/STM32Cube_FW_F4_V1.27.0/Drivers/STM32F4xx_HAL_Driver/Src/stm32f4xx_hal_gpio.c ****   [..]  
  37:/home/christoschristoforou/STM32Cube/Repository/STM32Cube_FW_F4_V1.27.0/Drivers/STM32F4xx_HAL_Driver/Src/stm32f4xx_hal_gpio.c ****   During and just after reset, the alternate functions and external interrupt  
  38:/home/christoschristoforou/STM32Cube/Repository/STM32Cube_FW_F4_V1.27.0/Drivers/STM32F4xx_HAL_Driver/Src/stm32f4xx_hal_gpio.c ****   lines are not active and the I/O ports are configured in input floating mode.
  39:/home/christoschristoforou/STM32Cube/Repository/STM32Cube_FW_F4_V1.27.0/Drivers/STM32F4xx_HAL_Driver/Src/stm32f4xx_hal_gpio.c ****   
  40:/home/christoschristoforou/STM32Cube/Repository/STM32Cube_FW_F4_V1.27.0/Drivers/STM32F4xx_HAL_Driver/Src/stm32f4xx_hal_gpio.c ****   [..]   
  41:/home/christoschristoforou/STM32Cube/Repository/STM32Cube_FW_F4_V1.27.0/Drivers/STM32F4xx_HAL_Driver/Src/stm32f4xx_hal_gpio.c ****   All GPIO pins have weak internal pull-up and pull-down resistors, which can be 
  42:/home/christoschristoforou/STM32Cube/Repository/STM32Cube_FW_F4_V1.27.0/Drivers/STM32F4xx_HAL_Driver/Src/stm32f4xx_hal_gpio.c ****   activated or not.
  43:/home/christoschristoforou/STM32Cube/Repository/STM32Cube_FW_F4_V1.27.0/Drivers/STM32F4xx_HAL_Driver/Src/stm32f4xx_hal_gpio.c **** 
  44:/home/christoschristoforou/STM32Cube/Repository/STM32Cube_FW_F4_V1.27.0/Drivers/STM32F4xx_HAL_Driver/Src/stm32f4xx_hal_gpio.c ****   [..]
  45:/home/christoschristoforou/STM32Cube/Repository/STM32Cube_FW_F4_V1.27.0/Drivers/STM32F4xx_HAL_Driver/Src/stm32f4xx_hal_gpio.c ****   In Output or Alternate mode, each IO can be configured on open-drain or push-pull
  46:/home/christoschristoforou/STM32Cube/Repository/STM32Cube_FW_F4_V1.27.0/Drivers/STM32F4xx_HAL_Driver/Src/stm32f4xx_hal_gpio.c ****   type and the IO speed can be selected depending on the VDD value.
  47:/home/christoschristoforou/STM32Cube/Repository/STM32Cube_FW_F4_V1.27.0/Drivers/STM32F4xx_HAL_Driver/Src/stm32f4xx_hal_gpio.c **** 
  48:/home/christoschristoforou/STM32Cube/Repository/STM32Cube_FW_F4_V1.27.0/Drivers/STM32F4xx_HAL_Driver/Src/stm32f4xx_hal_gpio.c ****   [..]  
  49:/home/christoschristoforou/STM32Cube/Repository/STM32Cube_FW_F4_V1.27.0/Drivers/STM32F4xx_HAL_Driver/Src/stm32f4xx_hal_gpio.c ****   All ports have external interrupt/event capability. To use external interrupt 
  50:/home/christoschristoforou/STM32Cube/Repository/STM32Cube_FW_F4_V1.27.0/Drivers/STM32F4xx_HAL_Driver/Src/stm32f4xx_hal_gpio.c ****   lines, the port must be configured in input mode. All available GPIO pins are 
  51:/home/christoschristoforou/STM32Cube/Repository/STM32Cube_FW_F4_V1.27.0/Drivers/STM32F4xx_HAL_Driver/Src/stm32f4xx_hal_gpio.c ****   connected to the 16 external interrupt/event lines from EXTI0 to EXTI15.
  52:/home/christoschristoforou/STM32Cube/Repository/STM32Cube_FW_F4_V1.27.0/Drivers/STM32F4xx_HAL_Driver/Src/stm32f4xx_hal_gpio.c ****   
  53:/home/christoschristoforou/STM32Cube/Repository/STM32Cube_FW_F4_V1.27.0/Drivers/STM32F4xx_HAL_Driver/Src/stm32f4xx_hal_gpio.c ****   [..]
  54:/home/christoschristoforou/STM32Cube/Repository/STM32Cube_FW_F4_V1.27.0/Drivers/STM32F4xx_HAL_Driver/Src/stm32f4xx_hal_gpio.c ****   The external interrupt/event controller consists of up to 23 edge detectors 
  55:/home/christoschristoforou/STM32Cube/Repository/STM32Cube_FW_F4_V1.27.0/Drivers/STM32F4xx_HAL_Driver/Src/stm32f4xx_hal_gpio.c ****   (16 lines are connected to GPIO) for generating event/interrupt requests (each 
  56:/home/christoschristoforou/STM32Cube/Repository/STM32Cube_FW_F4_V1.27.0/Drivers/STM32F4xx_HAL_Driver/Src/stm32f4xx_hal_gpio.c ****   input line can be independently configured to select the type (interrupt or event) 
  57:/home/christoschristoforou/STM32Cube/Repository/STM32Cube_FW_F4_V1.27.0/Drivers/STM32F4xx_HAL_Driver/Src/stm32f4xx_hal_gpio.c ****   and the corresponding trigger event (rising or falling or both). Each line can 
  58:/home/christoschristoforou/STM32Cube/Repository/STM32Cube_FW_F4_V1.27.0/Drivers/STM32F4xx_HAL_Driver/Src/stm32f4xx_hal_gpio.c ****   also be masked independently. 
  59:/home/christoschristoforou/STM32Cube/Repository/STM32Cube_FW_F4_V1.27.0/Drivers/STM32F4xx_HAL_Driver/Src/stm32f4xx_hal_gpio.c **** 
  60:/home/christoschristoforou/STM32Cube/Repository/STM32Cube_FW_F4_V1.27.0/Drivers/STM32F4xx_HAL_Driver/Src/stm32f4xx_hal_gpio.c ****                      ##### How to use this driver #####
  61:/home/christoschristoforou/STM32Cube/Repository/STM32Cube_FW_F4_V1.27.0/Drivers/STM32F4xx_HAL_Driver/Src/stm32f4xx_hal_gpio.c ****   ==============================================================================  
  62:/home/christoschristoforou/STM32Cube/Repository/STM32Cube_FW_F4_V1.27.0/Drivers/STM32F4xx_HAL_Driver/Src/stm32f4xx_hal_gpio.c ****   [..]
  63:/home/christoschristoforou/STM32Cube/Repository/STM32Cube_FW_F4_V1.27.0/Drivers/STM32F4xx_HAL_Driver/Src/stm32f4xx_hal_gpio.c ****     (#) Enable the GPIO AHB clock using the following function: __HAL_RCC_GPIOx_CLK_ENABLE(). 
  64:/home/christoschristoforou/STM32Cube/Repository/STM32Cube_FW_F4_V1.27.0/Drivers/STM32F4xx_HAL_Driver/Src/stm32f4xx_hal_gpio.c **** 
  65:/home/christoschristoforou/STM32Cube/Repository/STM32Cube_FW_F4_V1.27.0/Drivers/STM32F4xx_HAL_Driver/Src/stm32f4xx_hal_gpio.c ****     (#) Configure the GPIO pin(s) using HAL_GPIO_Init().
  66:/home/christoschristoforou/STM32Cube/Repository/STM32Cube_FW_F4_V1.27.0/Drivers/STM32F4xx_HAL_Driver/Src/stm32f4xx_hal_gpio.c ****         (++) Configure the IO mode using "Mode" member from GPIO_InitTypeDef structure
  67:/home/christoschristoforou/STM32Cube/Repository/STM32Cube_FW_F4_V1.27.0/Drivers/STM32F4xx_HAL_Driver/Src/stm32f4xx_hal_gpio.c ****         (++) Activate Pull-up, Pull-down resistor using "Pull" member from GPIO_InitTypeDef 
  68:/home/christoschristoforou/STM32Cube/Repository/STM32Cube_FW_F4_V1.27.0/Drivers/STM32F4xx_HAL_Driver/Src/stm32f4xx_hal_gpio.c ****              structure.
ARM GAS  /tmp/ccoZx0qa.s 			page 3


  69:/home/christoschristoforou/STM32Cube/Repository/STM32Cube_FW_F4_V1.27.0/Drivers/STM32F4xx_HAL_Driver/Src/stm32f4xx_hal_gpio.c ****         (++) In case of Output or alternate function mode selection: the speed is 
  70:/home/christoschristoforou/STM32Cube/Repository/STM32Cube_FW_F4_V1.27.0/Drivers/STM32F4xx_HAL_Driver/Src/stm32f4xx_hal_gpio.c ****              configured through "Speed" member from GPIO_InitTypeDef structure.
  71:/home/christoschristoforou/STM32Cube/Repository/STM32Cube_FW_F4_V1.27.0/Drivers/STM32F4xx_HAL_Driver/Src/stm32f4xx_hal_gpio.c ****         (++) In alternate mode is selection, the alternate function connected to the IO
  72:/home/christoschristoforou/STM32Cube/Repository/STM32Cube_FW_F4_V1.27.0/Drivers/STM32F4xx_HAL_Driver/Src/stm32f4xx_hal_gpio.c ****              is configured through "Alternate" member from GPIO_InitTypeDef structure.
  73:/home/christoschristoforou/STM32Cube/Repository/STM32Cube_FW_F4_V1.27.0/Drivers/STM32F4xx_HAL_Driver/Src/stm32f4xx_hal_gpio.c ****         (++) Analog mode is required when a pin is to be used as ADC channel 
  74:/home/christoschristoforou/STM32Cube/Repository/STM32Cube_FW_F4_V1.27.0/Drivers/STM32F4xx_HAL_Driver/Src/stm32f4xx_hal_gpio.c ****              or DAC output.
  75:/home/christoschristoforou/STM32Cube/Repository/STM32Cube_FW_F4_V1.27.0/Drivers/STM32F4xx_HAL_Driver/Src/stm32f4xx_hal_gpio.c ****         (++) In case of external interrupt/event selection the "Mode" member from 
  76:/home/christoschristoforou/STM32Cube/Repository/STM32Cube_FW_F4_V1.27.0/Drivers/STM32F4xx_HAL_Driver/Src/stm32f4xx_hal_gpio.c ****              GPIO_InitTypeDef structure select the type (interrupt or event) and 
  77:/home/christoschristoforou/STM32Cube/Repository/STM32Cube_FW_F4_V1.27.0/Drivers/STM32F4xx_HAL_Driver/Src/stm32f4xx_hal_gpio.c ****              the corresponding trigger event (rising or falling or both).
  78:/home/christoschristoforou/STM32Cube/Repository/STM32Cube_FW_F4_V1.27.0/Drivers/STM32F4xx_HAL_Driver/Src/stm32f4xx_hal_gpio.c **** 
  79:/home/christoschristoforou/STM32Cube/Repository/STM32Cube_FW_F4_V1.27.0/Drivers/STM32F4xx_HAL_Driver/Src/stm32f4xx_hal_gpio.c ****     (#) In case of external interrupt/event mode selection, configure NVIC IRQ priority 
  80:/home/christoschristoforou/STM32Cube/Repository/STM32Cube_FW_F4_V1.27.0/Drivers/STM32F4xx_HAL_Driver/Src/stm32f4xx_hal_gpio.c ****         mapped to the EXTI line using HAL_NVIC_SetPriority() and enable it using
  81:/home/christoschristoforou/STM32Cube/Repository/STM32Cube_FW_F4_V1.27.0/Drivers/STM32F4xx_HAL_Driver/Src/stm32f4xx_hal_gpio.c ****         HAL_NVIC_EnableIRQ().
  82:/home/christoschristoforou/STM32Cube/Repository/STM32Cube_FW_F4_V1.27.0/Drivers/STM32F4xx_HAL_Driver/Src/stm32f4xx_hal_gpio.c ****          
  83:/home/christoschristoforou/STM32Cube/Repository/STM32Cube_FW_F4_V1.27.0/Drivers/STM32F4xx_HAL_Driver/Src/stm32f4xx_hal_gpio.c ****     (#) To get the level of a pin configured in input mode use HAL_GPIO_ReadPin().
  84:/home/christoschristoforou/STM32Cube/Repository/STM32Cube_FW_F4_V1.27.0/Drivers/STM32F4xx_HAL_Driver/Src/stm32f4xx_hal_gpio.c ****             
  85:/home/christoschristoforou/STM32Cube/Repository/STM32Cube_FW_F4_V1.27.0/Drivers/STM32F4xx_HAL_Driver/Src/stm32f4xx_hal_gpio.c ****     (#) To set/reset the level of a pin configured in output mode use 
  86:/home/christoschristoforou/STM32Cube/Repository/STM32Cube_FW_F4_V1.27.0/Drivers/STM32F4xx_HAL_Driver/Src/stm32f4xx_hal_gpio.c ****         HAL_GPIO_WritePin()/HAL_GPIO_TogglePin().
  87:/home/christoschristoforou/STM32Cube/Repository/STM32Cube_FW_F4_V1.27.0/Drivers/STM32F4xx_HAL_Driver/Src/stm32f4xx_hal_gpio.c ****     
  88:/home/christoschristoforou/STM32Cube/Repository/STM32Cube_FW_F4_V1.27.0/Drivers/STM32F4xx_HAL_Driver/Src/stm32f4xx_hal_gpio.c ****     (#) To lock pin configuration until next reset use HAL_GPIO_LockPin().
  89:/home/christoschristoforou/STM32Cube/Repository/STM32Cube_FW_F4_V1.27.0/Drivers/STM32F4xx_HAL_Driver/Src/stm32f4xx_hal_gpio.c **** 
  90:/home/christoschristoforou/STM32Cube/Repository/STM32Cube_FW_F4_V1.27.0/Drivers/STM32F4xx_HAL_Driver/Src/stm32f4xx_hal_gpio.c ****                  
  91:/home/christoschristoforou/STM32Cube/Repository/STM32Cube_FW_F4_V1.27.0/Drivers/STM32F4xx_HAL_Driver/Src/stm32f4xx_hal_gpio.c ****     (#) During and just after reset, the alternate functions are not 
  92:/home/christoschristoforou/STM32Cube/Repository/STM32Cube_FW_F4_V1.27.0/Drivers/STM32F4xx_HAL_Driver/Src/stm32f4xx_hal_gpio.c ****         active and the GPIO pins are configured in input floating mode (except JTAG
  93:/home/christoschristoforou/STM32Cube/Repository/STM32Cube_FW_F4_V1.27.0/Drivers/STM32F4xx_HAL_Driver/Src/stm32f4xx_hal_gpio.c ****         pins).
  94:/home/christoschristoforou/STM32Cube/Repository/STM32Cube_FW_F4_V1.27.0/Drivers/STM32F4xx_HAL_Driver/Src/stm32f4xx_hal_gpio.c ****   
  95:/home/christoschristoforou/STM32Cube/Repository/STM32Cube_FW_F4_V1.27.0/Drivers/STM32F4xx_HAL_Driver/Src/stm32f4xx_hal_gpio.c ****     (#) The LSE oscillator pins OSC32_IN and OSC32_OUT can be used as general purpose 
  96:/home/christoschristoforou/STM32Cube/Repository/STM32Cube_FW_F4_V1.27.0/Drivers/STM32F4xx_HAL_Driver/Src/stm32f4xx_hal_gpio.c ****         (PC14 and PC15, respectively) when the LSE oscillator is off. The LSE has 
  97:/home/christoschristoforou/STM32Cube/Repository/STM32Cube_FW_F4_V1.27.0/Drivers/STM32F4xx_HAL_Driver/Src/stm32f4xx_hal_gpio.c ****         priority over the GPIO function.
  98:/home/christoschristoforou/STM32Cube/Repository/STM32Cube_FW_F4_V1.27.0/Drivers/STM32F4xx_HAL_Driver/Src/stm32f4xx_hal_gpio.c ****   
  99:/home/christoschristoforou/STM32Cube/Repository/STM32Cube_FW_F4_V1.27.0/Drivers/STM32F4xx_HAL_Driver/Src/stm32f4xx_hal_gpio.c ****     (#) The HSE oscillator pins OSC_IN/OSC_OUT can be used as 
 100:/home/christoschristoforou/STM32Cube/Repository/STM32Cube_FW_F4_V1.27.0/Drivers/STM32F4xx_HAL_Driver/Src/stm32f4xx_hal_gpio.c ****         general purpose PH0 and PH1, respectively, when the HSE oscillator is off. 
 101:/home/christoschristoforou/STM32Cube/Repository/STM32Cube_FW_F4_V1.27.0/Drivers/STM32F4xx_HAL_Driver/Src/stm32f4xx_hal_gpio.c ****         The HSE has priority over the GPIO function.
 102:/home/christoschristoforou/STM32Cube/Repository/STM32Cube_FW_F4_V1.27.0/Drivers/STM32F4xx_HAL_Driver/Src/stm32f4xx_hal_gpio.c ****   
 103:/home/christoschristoforou/STM32Cube/Repository/STM32Cube_FW_F4_V1.27.0/Drivers/STM32F4xx_HAL_Driver/Src/stm32f4xx_hal_gpio.c ****   @endverbatim
 104:/home/christoschristoforou/STM32Cube/Repository/STM32Cube_FW_F4_V1.27.0/Drivers/STM32F4xx_HAL_Driver/Src/stm32f4xx_hal_gpio.c ****   ******************************************************************************
 105:/home/christoschristoforou/STM32Cube/Repository/STM32Cube_FW_F4_V1.27.0/Drivers/STM32F4xx_HAL_Driver/Src/stm32f4xx_hal_gpio.c ****   */ 
 106:/home/christoschristoforou/STM32Cube/Repository/STM32Cube_FW_F4_V1.27.0/Drivers/STM32F4xx_HAL_Driver/Src/stm32f4xx_hal_gpio.c **** 
 107:/home/christoschristoforou/STM32Cube/Repository/STM32Cube_FW_F4_V1.27.0/Drivers/STM32F4xx_HAL_Driver/Src/stm32f4xx_hal_gpio.c **** /* Includes ------------------------------------------------------------------*/
 108:/home/christoschristoforou/STM32Cube/Repository/STM32Cube_FW_F4_V1.27.0/Drivers/STM32F4xx_HAL_Driver/Src/stm32f4xx_hal_gpio.c **** #include "stm32f4xx_hal.h"
 109:/home/christoschristoforou/STM32Cube/Repository/STM32Cube_FW_F4_V1.27.0/Drivers/STM32F4xx_HAL_Driver/Src/stm32f4xx_hal_gpio.c **** 
 110:/home/christoschristoforou/STM32Cube/Repository/STM32Cube_FW_F4_V1.27.0/Drivers/STM32F4xx_HAL_Driver/Src/stm32f4xx_hal_gpio.c **** /** @addtogroup STM32F4xx_HAL_Driver
 111:/home/christoschristoforou/STM32Cube/Repository/STM32Cube_FW_F4_V1.27.0/Drivers/STM32F4xx_HAL_Driver/Src/stm32f4xx_hal_gpio.c ****   * @{
 112:/home/christoschristoforou/STM32Cube/Repository/STM32Cube_FW_F4_V1.27.0/Drivers/STM32F4xx_HAL_Driver/Src/stm32f4xx_hal_gpio.c ****   */
 113:/home/christoschristoforou/STM32Cube/Repository/STM32Cube_FW_F4_V1.27.0/Drivers/STM32F4xx_HAL_Driver/Src/stm32f4xx_hal_gpio.c **** 
 114:/home/christoschristoforou/STM32Cube/Repository/STM32Cube_FW_F4_V1.27.0/Drivers/STM32F4xx_HAL_Driver/Src/stm32f4xx_hal_gpio.c **** /** @defgroup GPIO GPIO
 115:/home/christoschristoforou/STM32Cube/Repository/STM32Cube_FW_F4_V1.27.0/Drivers/STM32F4xx_HAL_Driver/Src/stm32f4xx_hal_gpio.c ****   * @brief GPIO HAL module driver
 116:/home/christoschristoforou/STM32Cube/Repository/STM32Cube_FW_F4_V1.27.0/Drivers/STM32F4xx_HAL_Driver/Src/stm32f4xx_hal_gpio.c ****   * @{
 117:/home/christoschristoforou/STM32Cube/Repository/STM32Cube_FW_F4_V1.27.0/Drivers/STM32F4xx_HAL_Driver/Src/stm32f4xx_hal_gpio.c ****   */
 118:/home/christoschristoforou/STM32Cube/Repository/STM32Cube_FW_F4_V1.27.0/Drivers/STM32F4xx_HAL_Driver/Src/stm32f4xx_hal_gpio.c **** 
 119:/home/christoschristoforou/STM32Cube/Repository/STM32Cube_FW_F4_V1.27.0/Drivers/STM32F4xx_HAL_Driver/Src/stm32f4xx_hal_gpio.c **** #ifdef HAL_GPIO_MODULE_ENABLED
 120:/home/christoschristoforou/STM32Cube/Repository/STM32Cube_FW_F4_V1.27.0/Drivers/STM32F4xx_HAL_Driver/Src/stm32f4xx_hal_gpio.c **** 
 121:/home/christoschristoforou/STM32Cube/Repository/STM32Cube_FW_F4_V1.27.0/Drivers/STM32F4xx_HAL_Driver/Src/stm32f4xx_hal_gpio.c **** /* Private typedef -----------------------------------------------------------*/
 122:/home/christoschristoforou/STM32Cube/Repository/STM32Cube_FW_F4_V1.27.0/Drivers/STM32F4xx_HAL_Driver/Src/stm32f4xx_hal_gpio.c **** /* Private define ------------------------------------------------------------*/
 123:/home/christoschristoforou/STM32Cube/Repository/STM32Cube_FW_F4_V1.27.0/Drivers/STM32F4xx_HAL_Driver/Src/stm32f4xx_hal_gpio.c **** /** @addtogroup GPIO_Private_Constants GPIO Private Constants
 124:/home/christoschristoforou/STM32Cube/Repository/STM32Cube_FW_F4_V1.27.0/Drivers/STM32F4xx_HAL_Driver/Src/stm32f4xx_hal_gpio.c ****   * @{
 125:/home/christoschristoforou/STM32Cube/Repository/STM32Cube_FW_F4_V1.27.0/Drivers/STM32F4xx_HAL_Driver/Src/stm32f4xx_hal_gpio.c ****   */
ARM GAS  /tmp/ccoZx0qa.s 			page 4


 126:/home/christoschristoforou/STM32Cube/Repository/STM32Cube_FW_F4_V1.27.0/Drivers/STM32F4xx_HAL_Driver/Src/stm32f4xx_hal_gpio.c **** 
 127:/home/christoschristoforou/STM32Cube/Repository/STM32Cube_FW_F4_V1.27.0/Drivers/STM32F4xx_HAL_Driver/Src/stm32f4xx_hal_gpio.c **** #define GPIO_NUMBER           16U
 128:/home/christoschristoforou/STM32Cube/Repository/STM32Cube_FW_F4_V1.27.0/Drivers/STM32F4xx_HAL_Driver/Src/stm32f4xx_hal_gpio.c **** /**
 129:/home/christoschristoforou/STM32Cube/Repository/STM32Cube_FW_F4_V1.27.0/Drivers/STM32F4xx_HAL_Driver/Src/stm32f4xx_hal_gpio.c ****   * @}
 130:/home/christoschristoforou/STM32Cube/Repository/STM32Cube_FW_F4_V1.27.0/Drivers/STM32F4xx_HAL_Driver/Src/stm32f4xx_hal_gpio.c ****   */
 131:/home/christoschristoforou/STM32Cube/Repository/STM32Cube_FW_F4_V1.27.0/Drivers/STM32F4xx_HAL_Driver/Src/stm32f4xx_hal_gpio.c **** /* Private macro -------------------------------------------------------------*/
 132:/home/christoschristoforou/STM32Cube/Repository/STM32Cube_FW_F4_V1.27.0/Drivers/STM32F4xx_HAL_Driver/Src/stm32f4xx_hal_gpio.c **** /* Private variables ---------------------------------------------------------*/
 133:/home/christoschristoforou/STM32Cube/Repository/STM32Cube_FW_F4_V1.27.0/Drivers/STM32F4xx_HAL_Driver/Src/stm32f4xx_hal_gpio.c **** /* Private function prototypes -----------------------------------------------*/
 134:/home/christoschristoforou/STM32Cube/Repository/STM32Cube_FW_F4_V1.27.0/Drivers/STM32F4xx_HAL_Driver/Src/stm32f4xx_hal_gpio.c **** /* Private functions ---------------------------------------------------------*/
 135:/home/christoschristoforou/STM32Cube/Repository/STM32Cube_FW_F4_V1.27.0/Drivers/STM32F4xx_HAL_Driver/Src/stm32f4xx_hal_gpio.c **** /* Exported functions --------------------------------------------------------*/
 136:/home/christoschristoforou/STM32Cube/Repository/STM32Cube_FW_F4_V1.27.0/Drivers/STM32F4xx_HAL_Driver/Src/stm32f4xx_hal_gpio.c **** /** @defgroup GPIO_Exported_Functions GPIO Exported Functions
 137:/home/christoschristoforou/STM32Cube/Repository/STM32Cube_FW_F4_V1.27.0/Drivers/STM32F4xx_HAL_Driver/Src/stm32f4xx_hal_gpio.c ****   * @{
 138:/home/christoschristoforou/STM32Cube/Repository/STM32Cube_FW_F4_V1.27.0/Drivers/STM32F4xx_HAL_Driver/Src/stm32f4xx_hal_gpio.c ****   */
 139:/home/christoschristoforou/STM32Cube/Repository/STM32Cube_FW_F4_V1.27.0/Drivers/STM32F4xx_HAL_Driver/Src/stm32f4xx_hal_gpio.c **** 
 140:/home/christoschristoforou/STM32Cube/Repository/STM32Cube_FW_F4_V1.27.0/Drivers/STM32F4xx_HAL_Driver/Src/stm32f4xx_hal_gpio.c **** /** @defgroup GPIO_Exported_Functions_Group1 Initialization and de-initialization functions
 141:/home/christoschristoforou/STM32Cube/Repository/STM32Cube_FW_F4_V1.27.0/Drivers/STM32F4xx_HAL_Driver/Src/stm32f4xx_hal_gpio.c ****   *  @brief    Initialization and Configuration functions
 142:/home/christoschristoforou/STM32Cube/Repository/STM32Cube_FW_F4_V1.27.0/Drivers/STM32F4xx_HAL_Driver/Src/stm32f4xx_hal_gpio.c ****   *
 143:/home/christoschristoforou/STM32Cube/Repository/STM32Cube_FW_F4_V1.27.0/Drivers/STM32F4xx_HAL_Driver/Src/stm32f4xx_hal_gpio.c **** @verbatim    
 144:/home/christoschristoforou/STM32Cube/Repository/STM32Cube_FW_F4_V1.27.0/Drivers/STM32F4xx_HAL_Driver/Src/stm32f4xx_hal_gpio.c ****  ===============================================================================
 145:/home/christoschristoforou/STM32Cube/Repository/STM32Cube_FW_F4_V1.27.0/Drivers/STM32F4xx_HAL_Driver/Src/stm32f4xx_hal_gpio.c ****               ##### Initialization and de-initialization functions #####
 146:/home/christoschristoforou/STM32Cube/Repository/STM32Cube_FW_F4_V1.27.0/Drivers/STM32F4xx_HAL_Driver/Src/stm32f4xx_hal_gpio.c ****  ===============================================================================
 147:/home/christoschristoforou/STM32Cube/Repository/STM32Cube_FW_F4_V1.27.0/Drivers/STM32F4xx_HAL_Driver/Src/stm32f4xx_hal_gpio.c ****   [..]
 148:/home/christoschristoforou/STM32Cube/Repository/STM32Cube_FW_F4_V1.27.0/Drivers/STM32F4xx_HAL_Driver/Src/stm32f4xx_hal_gpio.c ****     This section provides functions allowing to initialize and de-initialize the GPIOs
 149:/home/christoschristoforou/STM32Cube/Repository/STM32Cube_FW_F4_V1.27.0/Drivers/STM32F4xx_HAL_Driver/Src/stm32f4xx_hal_gpio.c ****     to be ready for use.
 150:/home/christoschristoforou/STM32Cube/Repository/STM32Cube_FW_F4_V1.27.0/Drivers/STM32F4xx_HAL_Driver/Src/stm32f4xx_hal_gpio.c ****  
 151:/home/christoschristoforou/STM32Cube/Repository/STM32Cube_FW_F4_V1.27.0/Drivers/STM32F4xx_HAL_Driver/Src/stm32f4xx_hal_gpio.c **** @endverbatim
 152:/home/christoschristoforou/STM32Cube/Repository/STM32Cube_FW_F4_V1.27.0/Drivers/STM32F4xx_HAL_Driver/Src/stm32f4xx_hal_gpio.c ****   * @{
 153:/home/christoschristoforou/STM32Cube/Repository/STM32Cube_FW_F4_V1.27.0/Drivers/STM32F4xx_HAL_Driver/Src/stm32f4xx_hal_gpio.c ****   */
 154:/home/christoschristoforou/STM32Cube/Repository/STM32Cube_FW_F4_V1.27.0/Drivers/STM32F4xx_HAL_Driver/Src/stm32f4xx_hal_gpio.c **** 
 155:/home/christoschristoforou/STM32Cube/Repository/STM32Cube_FW_F4_V1.27.0/Drivers/STM32F4xx_HAL_Driver/Src/stm32f4xx_hal_gpio.c **** 
 156:/home/christoschristoforou/STM32Cube/Repository/STM32Cube_FW_F4_V1.27.0/Drivers/STM32F4xx_HAL_Driver/Src/stm32f4xx_hal_gpio.c **** /**
 157:/home/christoschristoforou/STM32Cube/Repository/STM32Cube_FW_F4_V1.27.0/Drivers/STM32F4xx_HAL_Driver/Src/stm32f4xx_hal_gpio.c ****   * @brief  Initializes the GPIOx peripheral according to the specified parameters in the GPIO_Init
 158:/home/christoschristoforou/STM32Cube/Repository/STM32Cube_FW_F4_V1.27.0/Drivers/STM32F4xx_HAL_Driver/Src/stm32f4xx_hal_gpio.c ****   * @param  GPIOx where x can be (A..K) to select the GPIO peripheral for STM32F429X device or
 159:/home/christoschristoforou/STM32Cube/Repository/STM32Cube_FW_F4_V1.27.0/Drivers/STM32F4xx_HAL_Driver/Src/stm32f4xx_hal_gpio.c ****   *                      x can be (A..I) to select the GPIO peripheral for STM32F40XX and STM32F427
 160:/home/christoschristoforou/STM32Cube/Repository/STM32Cube_FW_F4_V1.27.0/Drivers/STM32F4xx_HAL_Driver/Src/stm32f4xx_hal_gpio.c ****   * @param  GPIO_Init pointer to a GPIO_InitTypeDef structure that contains
 161:/home/christoschristoforou/STM32Cube/Repository/STM32Cube_FW_F4_V1.27.0/Drivers/STM32F4xx_HAL_Driver/Src/stm32f4xx_hal_gpio.c ****   *         the configuration information for the specified GPIO peripheral.
 162:/home/christoschristoforou/STM32Cube/Repository/STM32Cube_FW_F4_V1.27.0/Drivers/STM32F4xx_HAL_Driver/Src/stm32f4xx_hal_gpio.c ****   * @retval None
 163:/home/christoschristoforou/STM32Cube/Repository/STM32Cube_FW_F4_V1.27.0/Drivers/STM32F4xx_HAL_Driver/Src/stm32f4xx_hal_gpio.c ****   */
 164:/home/christoschristoforou/STM32Cube/Repository/STM32Cube_FW_F4_V1.27.0/Drivers/STM32F4xx_HAL_Driver/Src/stm32f4xx_hal_gpio.c **** void HAL_GPIO_Init(GPIO_TypeDef  *GPIOx, GPIO_InitTypeDef *GPIO_Init)
 165:/home/christoschristoforou/STM32Cube/Repository/STM32Cube_FW_F4_V1.27.0/Drivers/STM32F4xx_HAL_Driver/Src/stm32f4xx_hal_gpio.c **** {
  36              		.loc 1 165 1 view -0
  37              		.cfi_startproc
  38              		@ args = 0, pretend = 0, frame = 8
  39              		@ frame_needed = 0, uses_anonymous_args = 0
  40              		.loc 1 165 1 is_stmt 0 view .LVU1
  41 0000 2DE9F041 		push	{r4, r5, r6, r7, r8, lr}
  42              	.LCFI0:
  43              		.cfi_def_cfa_offset 24
  44              		.cfi_offset 4, -24
  45              		.cfi_offset 5, -20
  46              		.cfi_offset 6, -16
  47              		.cfi_offset 7, -12
  48              		.cfi_offset 8, -8
  49              		.cfi_offset 14, -4
  50 0004 82B0     		sub	sp, sp, #8
  51              	.LCFI1:
  52              		.cfi_def_cfa_offset 32
ARM GAS  /tmp/ccoZx0qa.s 			page 5


  53 0006 0746     		mov	r7, r0
  54 0008 0E46     		mov	r6, r1
 166:/home/christoschristoforou/STM32Cube/Repository/STM32Cube_FW_F4_V1.27.0/Drivers/STM32F4xx_HAL_Driver/Src/stm32f4xx_hal_gpio.c ****   uint32_t position;
  55              		.loc 1 166 3 is_stmt 1 view .LVU2
 167:/home/christoschristoforou/STM32Cube/Repository/STM32Cube_FW_F4_V1.27.0/Drivers/STM32F4xx_HAL_Driver/Src/stm32f4xx_hal_gpio.c ****   uint32_t ioposition = 0x00U;
  56              		.loc 1 167 3 view .LVU3
  57              	.LVL1:
 168:/home/christoschristoforou/STM32Cube/Repository/STM32Cube_FW_F4_V1.27.0/Drivers/STM32F4xx_HAL_Driver/Src/stm32f4xx_hal_gpio.c ****   uint32_t iocurrent = 0x00U;
  58              		.loc 1 168 3 view .LVU4
 169:/home/christoschristoforou/STM32Cube/Repository/STM32Cube_FW_F4_V1.27.0/Drivers/STM32F4xx_HAL_Driver/Src/stm32f4xx_hal_gpio.c ****   uint32_t temp = 0x00U;
  59              		.loc 1 169 3 view .LVU5
 170:/home/christoschristoforou/STM32Cube/Repository/STM32Cube_FW_F4_V1.27.0/Drivers/STM32F4xx_HAL_Driver/Src/stm32f4xx_hal_gpio.c **** 
 171:/home/christoschristoforou/STM32Cube/Repository/STM32Cube_FW_F4_V1.27.0/Drivers/STM32F4xx_HAL_Driver/Src/stm32f4xx_hal_gpio.c ****   /* Check the parameters */
 172:/home/christoschristoforou/STM32Cube/Repository/STM32Cube_FW_F4_V1.27.0/Drivers/STM32F4xx_HAL_Driver/Src/stm32f4xx_hal_gpio.c ****   assert_param(IS_GPIO_ALL_INSTANCE(GPIOx));
  60              		.loc 1 172 3 view .LVU6
  61 000a AE4B     		ldr	r3, .L36
  62 000c 9842     		cmp	r0, r3
  63 000e 1FD0     		beq	.L2
  64              		.loc 1 172 3 is_stmt 0 discriminator 1 view .LVU7
  65 0010 03F58063 		add	r3, r3, #1024
  66 0014 9842     		cmp	r0, r3
  67 0016 1BD0     		beq	.L2
  68              		.loc 1 172 3 discriminator 2 view .LVU8
  69 0018 03F58063 		add	r3, r3, #1024
  70 001c 9842     		cmp	r0, r3
  71 001e 17D0     		beq	.L2
  72              		.loc 1 172 3 discriminator 3 view .LVU9
  73 0020 03F58063 		add	r3, r3, #1024
  74 0024 9842     		cmp	r0, r3
  75 0026 13D0     		beq	.L2
  76              		.loc 1 172 3 discriminator 4 view .LVU10
  77 0028 03F58063 		add	r3, r3, #1024
  78 002c 9842     		cmp	r0, r3
  79 002e 0FD0     		beq	.L2
  80              		.loc 1 172 3 discriminator 5 view .LVU11
  81 0030 03F58063 		add	r3, r3, #1024
  82 0034 9842     		cmp	r0, r3
  83 0036 0BD0     		beq	.L2
  84              		.loc 1 172 3 discriminator 6 view .LVU12
  85 0038 03F58063 		add	r3, r3, #1024
  86 003c 9842     		cmp	r0, r3
  87 003e 07D0     		beq	.L2
  88              		.loc 1 172 3 discriminator 7 view .LVU13
  89 0040 03F58063 		add	r3, r3, #1024
  90 0044 9842     		cmp	r0, r3
  91 0046 03D0     		beq	.L2
  92              		.loc 1 172 3 discriminator 8 view .LVU14
  93 0048 AC21     		movs	r1, #172
  94              	.LVL2:
  95              		.loc 1 172 3 discriminator 8 view .LVU15
  96 004a 9F48     		ldr	r0, .L36+4
  97              	.LVL3:
  98              		.loc 1 172 3 discriminator 8 view .LVU16
  99 004c FFF7FEFF 		bl	assert_failed
 100              	.LVL4:
 101              	.L2:
 173:/home/christoschristoforou/STM32Cube/Repository/STM32Cube_FW_F4_V1.27.0/Drivers/STM32F4xx_HAL_Driver/Src/stm32f4xx_hal_gpio.c ****   assert_param(IS_GPIO_PIN(GPIO_Init->Pin));
ARM GAS  /tmp/ccoZx0qa.s 			page 6


 102              		.loc 1 173 3 is_stmt 1 view .LVU17
 103 0050 3368     		ldr	r3, [r6]
 104 0052 9AB2     		uxth	r2, r3
 105 0054 12B1     		cbz	r2, .L3
 106              		.loc 1 173 3 is_stmt 0 discriminator 2 view .LVU18
 107 0056 1B0C     		lsrs	r3, r3, #16
 108 0058 1B04     		lsls	r3, r3, #16
 109 005a 1BB1     		cbz	r3, .L4
 110              	.L3:
 111              		.loc 1 173 3 discriminator 3 view .LVU19
 112 005c AD21     		movs	r1, #173
 113 005e 9A48     		ldr	r0, .L36+4
 114 0060 FFF7FEFF 		bl	assert_failed
 115              	.LVL5:
 116              	.L4:
 174:/home/christoschristoforou/STM32Cube/Repository/STM32Cube_FW_F4_V1.27.0/Drivers/STM32F4xx_HAL_Driver/Src/stm32f4xx_hal_gpio.c ****   assert_param(IS_GPIO_MODE(GPIO_Init->Mode));
 117              		.loc 1 174 3 is_stmt 1 view .LVU20
 118 0064 7368     		ldr	r3, [r6, #4]
 119 0066 012B     		cmp	r3, #1
 120 0068 19D9     		bls	.L5
 121              		.loc 1 174 3 is_stmt 0 discriminator 1 view .LVU21
 122 006a 112B     		cmp	r3, #17
 123 006c 17D0     		beq	.L5
 124              		.loc 1 174 3 discriminator 2 view .LVU22
 125 006e 022B     		cmp	r3, #2
 126 0070 15D0     		beq	.L5
 127              		.loc 1 174 3 discriminator 3 view .LVU23
 128 0072 122B     		cmp	r3, #18
 129 0074 13D0     		beq	.L5
 130              		.loc 1 174 3 discriminator 4 view .LVU24
 131 0076 B3F5881F 		cmp	r3, #1114112
 132 007a 10D0     		beq	.L5
 133              		.loc 1 174 3 discriminator 5 view .LVU25
 134 007c B3F5041F 		cmp	r3, #2162688
 135 0080 0DD0     		beq	.L5
 136              		.loc 1 174 3 discriminator 6 view .LVU26
 137 0082 B3F5441F 		cmp	r3, #3211264
 138 0086 0AD0     		beq	.L5
 139              		.loc 1 174 3 discriminator 7 view .LVU27
 140 0088 B3F5901F 		cmp	r3, #1179648
 141 008c 07D0     		beq	.L5
 142              		.loc 1 174 3 discriminator 8 view .LVU28
 143 008e B3F5081F 		cmp	r3, #2228224
 144 0092 04D0     		beq	.L5
 145              		.loc 1 174 3 discriminator 9 view .LVU29
 146 0094 B3F5481F 		cmp	r3, #3276800
 147 0098 01D0     		beq	.L5
 148              		.loc 1 174 3 discriminator 10 view .LVU30
 149 009a 032B     		cmp	r3, #3
 150 009c 01D1     		bne	.L28
 151              	.L5:
 175:/home/christoschristoforou/STM32Cube/Repository/STM32Cube_FW_F4_V1.27.0/Drivers/STM32F4xx_HAL_Driver/Src/stm32f4xx_hal_gpio.c **** 
 176:/home/christoschristoforou/STM32Cube/Repository/STM32Cube_FW_F4_V1.27.0/Drivers/STM32F4xx_HAL_Driver/Src/stm32f4xx_hal_gpio.c ****   /* Configure the port pins */
 177:/home/christoschristoforou/STM32Cube/Repository/STM32Cube_FW_F4_V1.27.0/Drivers/STM32F4xx_HAL_Driver/Src/stm32f4xx_hal_gpio.c ****   for(position = 0U; position < GPIO_NUMBER; position++)
 178:/home/christoschristoforou/STM32Cube/Repository/STM32Cube_FW_F4_V1.27.0/Drivers/STM32F4xx_HAL_Driver/Src/stm32f4xx_hal_gpio.c ****   {
 179:/home/christoschristoforou/STM32Cube/Repository/STM32Cube_FW_F4_V1.27.0/Drivers/STM32F4xx_HAL_Driver/Src/stm32f4xx_hal_gpio.c ****     /* Get the IO position */
 180:/home/christoschristoforou/STM32Cube/Repository/STM32Cube_FW_F4_V1.27.0/Drivers/STM32F4xx_HAL_Driver/Src/stm32f4xx_hal_gpio.c ****     ioposition = 0x01U << position;
ARM GAS  /tmp/ccoZx0qa.s 			page 7


 181:/home/christoschristoforou/STM32Cube/Repository/STM32Cube_FW_F4_V1.27.0/Drivers/STM32F4xx_HAL_Driver/Src/stm32f4xx_hal_gpio.c ****     /* Get the current IO position */
 182:/home/christoschristoforou/STM32Cube/Repository/STM32Cube_FW_F4_V1.27.0/Drivers/STM32F4xx_HAL_Driver/Src/stm32f4xx_hal_gpio.c ****     iocurrent = (uint32_t)(GPIO_Init->Pin) & ioposition;
 183:/home/christoschristoforou/STM32Cube/Repository/STM32Cube_FW_F4_V1.27.0/Drivers/STM32F4xx_HAL_Driver/Src/stm32f4xx_hal_gpio.c **** 
 184:/home/christoschristoforou/STM32Cube/Repository/STM32Cube_FW_F4_V1.27.0/Drivers/STM32F4xx_HAL_Driver/Src/stm32f4xx_hal_gpio.c ****     if(iocurrent == ioposition)
 185:/home/christoschristoforou/STM32Cube/Repository/STM32Cube_FW_F4_V1.27.0/Drivers/STM32F4xx_HAL_Driver/Src/stm32f4xx_hal_gpio.c ****     {
 186:/home/christoschristoforou/STM32Cube/Repository/STM32Cube_FW_F4_V1.27.0/Drivers/STM32F4xx_HAL_Driver/Src/stm32f4xx_hal_gpio.c ****       /*--------------------- GPIO Mode Configuration ------------------------*/
 187:/home/christoschristoforou/STM32Cube/Repository/STM32Cube_FW_F4_V1.27.0/Drivers/STM32F4xx_HAL_Driver/Src/stm32f4xx_hal_gpio.c ****       /* In case of Output or Alternate function mode selection */
 188:/home/christoschristoforou/STM32Cube/Repository/STM32Cube_FW_F4_V1.27.0/Drivers/STM32F4xx_HAL_Driver/Src/stm32f4xx_hal_gpio.c ****       if(((GPIO_Init->Mode & GPIO_MODE) == MODE_OUTPUT) || \
 189:/home/christoschristoforou/STM32Cube/Repository/STM32Cube_FW_F4_V1.27.0/Drivers/STM32F4xx_HAL_Driver/Src/stm32f4xx_hal_gpio.c ****           (GPIO_Init->Mode & GPIO_MODE) == MODE_AF)
 190:/home/christoschristoforou/STM32Cube/Repository/STM32Cube_FW_F4_V1.27.0/Drivers/STM32F4xx_HAL_Driver/Src/stm32f4xx_hal_gpio.c ****       {
 191:/home/christoschristoforou/STM32Cube/Repository/STM32Cube_FW_F4_V1.27.0/Drivers/STM32F4xx_HAL_Driver/Src/stm32f4xx_hal_gpio.c ****         /* Check the Speed parameter */
 192:/home/christoschristoforou/STM32Cube/Repository/STM32Cube_FW_F4_V1.27.0/Drivers/STM32F4xx_HAL_Driver/Src/stm32f4xx_hal_gpio.c ****         assert_param(IS_GPIO_SPEED(GPIO_Init->Speed));
 193:/home/christoschristoforou/STM32Cube/Repository/STM32Cube_FW_F4_V1.27.0/Drivers/STM32F4xx_HAL_Driver/Src/stm32f4xx_hal_gpio.c ****         /* Configure the IO Speed */
 194:/home/christoschristoforou/STM32Cube/Repository/STM32Cube_FW_F4_V1.27.0/Drivers/STM32F4xx_HAL_Driver/Src/stm32f4xx_hal_gpio.c ****         temp = GPIOx->OSPEEDR; 
 195:/home/christoschristoforou/STM32Cube/Repository/STM32Cube_FW_F4_V1.27.0/Drivers/STM32F4xx_HAL_Driver/Src/stm32f4xx_hal_gpio.c ****         temp &= ~(GPIO_OSPEEDER_OSPEEDR0 << (position * 2U));
 196:/home/christoschristoforou/STM32Cube/Repository/STM32Cube_FW_F4_V1.27.0/Drivers/STM32F4xx_HAL_Driver/Src/stm32f4xx_hal_gpio.c ****         temp |= (GPIO_Init->Speed << (position * 2U));
 197:/home/christoschristoforou/STM32Cube/Repository/STM32Cube_FW_F4_V1.27.0/Drivers/STM32F4xx_HAL_Driver/Src/stm32f4xx_hal_gpio.c ****         GPIOx->OSPEEDR = temp;
 198:/home/christoschristoforou/STM32Cube/Repository/STM32Cube_FW_F4_V1.27.0/Drivers/STM32F4xx_HAL_Driver/Src/stm32f4xx_hal_gpio.c **** 
 199:/home/christoschristoforou/STM32Cube/Repository/STM32Cube_FW_F4_V1.27.0/Drivers/STM32F4xx_HAL_Driver/Src/stm32f4xx_hal_gpio.c ****         /* Configure the IO Output Type */
 200:/home/christoschristoforou/STM32Cube/Repository/STM32Cube_FW_F4_V1.27.0/Drivers/STM32F4xx_HAL_Driver/Src/stm32f4xx_hal_gpio.c ****         temp = GPIOx->OTYPER;
 201:/home/christoschristoforou/STM32Cube/Repository/STM32Cube_FW_F4_V1.27.0/Drivers/STM32F4xx_HAL_Driver/Src/stm32f4xx_hal_gpio.c ****         temp &= ~(GPIO_OTYPER_OT_0 << position) ;
 202:/home/christoschristoforou/STM32Cube/Repository/STM32Cube_FW_F4_V1.27.0/Drivers/STM32F4xx_HAL_Driver/Src/stm32f4xx_hal_gpio.c ****         temp |= (((GPIO_Init->Mode & OUTPUT_TYPE) >> OUTPUT_TYPE_Pos) << position);
 203:/home/christoschristoforou/STM32Cube/Repository/STM32Cube_FW_F4_V1.27.0/Drivers/STM32F4xx_HAL_Driver/Src/stm32f4xx_hal_gpio.c ****         GPIOx->OTYPER = temp;
 204:/home/christoschristoforou/STM32Cube/Repository/STM32Cube_FW_F4_V1.27.0/Drivers/STM32F4xx_HAL_Driver/Src/stm32f4xx_hal_gpio.c ****        }
 205:/home/christoschristoforou/STM32Cube/Repository/STM32Cube_FW_F4_V1.27.0/Drivers/STM32F4xx_HAL_Driver/Src/stm32f4xx_hal_gpio.c **** 
 206:/home/christoschristoforou/STM32Cube/Repository/STM32Cube_FW_F4_V1.27.0/Drivers/STM32F4xx_HAL_Driver/Src/stm32f4xx_hal_gpio.c ****       if((GPIO_Init->Mode & GPIO_MODE) != MODE_ANALOG)
 207:/home/christoschristoforou/STM32Cube/Repository/STM32Cube_FW_F4_V1.27.0/Drivers/STM32F4xx_HAL_Driver/Src/stm32f4xx_hal_gpio.c ****       {
 208:/home/christoschristoforou/STM32Cube/Repository/STM32Cube_FW_F4_V1.27.0/Drivers/STM32F4xx_HAL_Driver/Src/stm32f4xx_hal_gpio.c ****         /* Check the parameters */
 209:/home/christoschristoforou/STM32Cube/Repository/STM32Cube_FW_F4_V1.27.0/Drivers/STM32F4xx_HAL_Driver/Src/stm32f4xx_hal_gpio.c ****         assert_param(IS_GPIO_PULL(GPIO_Init->Pull));
 210:/home/christoschristoforou/STM32Cube/Repository/STM32Cube_FW_F4_V1.27.0/Drivers/STM32F4xx_HAL_Driver/Src/stm32f4xx_hal_gpio.c ****         
 211:/home/christoschristoforou/STM32Cube/Repository/STM32Cube_FW_F4_V1.27.0/Drivers/STM32F4xx_HAL_Driver/Src/stm32f4xx_hal_gpio.c ****         /* Activate the Pull-up or Pull down resistor for the current IO */
 212:/home/christoschristoforou/STM32Cube/Repository/STM32Cube_FW_F4_V1.27.0/Drivers/STM32F4xx_HAL_Driver/Src/stm32f4xx_hal_gpio.c ****         temp = GPIOx->PUPDR;
 213:/home/christoschristoforou/STM32Cube/Repository/STM32Cube_FW_F4_V1.27.0/Drivers/STM32F4xx_HAL_Driver/Src/stm32f4xx_hal_gpio.c ****         temp &= ~(GPIO_PUPDR_PUPDR0 << (position * 2U));
 214:/home/christoschristoforou/STM32Cube/Repository/STM32Cube_FW_F4_V1.27.0/Drivers/STM32F4xx_HAL_Driver/Src/stm32f4xx_hal_gpio.c ****         temp |= ((GPIO_Init->Pull) << (position * 2U));
 215:/home/christoschristoforou/STM32Cube/Repository/STM32Cube_FW_F4_V1.27.0/Drivers/STM32F4xx_HAL_Driver/Src/stm32f4xx_hal_gpio.c ****         GPIOx->PUPDR = temp;
 216:/home/christoschristoforou/STM32Cube/Repository/STM32Cube_FW_F4_V1.27.0/Drivers/STM32F4xx_HAL_Driver/Src/stm32f4xx_hal_gpio.c ****       }
 217:/home/christoschristoforou/STM32Cube/Repository/STM32Cube_FW_F4_V1.27.0/Drivers/STM32F4xx_HAL_Driver/Src/stm32f4xx_hal_gpio.c **** 
 218:/home/christoschristoforou/STM32Cube/Repository/STM32Cube_FW_F4_V1.27.0/Drivers/STM32F4xx_HAL_Driver/Src/stm32f4xx_hal_gpio.c ****       /* In case of Alternate function mode selection */
 219:/home/christoschristoforou/STM32Cube/Repository/STM32Cube_FW_F4_V1.27.0/Drivers/STM32F4xx_HAL_Driver/Src/stm32f4xx_hal_gpio.c ****       if((GPIO_Init->Mode & GPIO_MODE) == MODE_AF)
 220:/home/christoschristoforou/STM32Cube/Repository/STM32Cube_FW_F4_V1.27.0/Drivers/STM32F4xx_HAL_Driver/Src/stm32f4xx_hal_gpio.c ****       {
 221:/home/christoschristoforou/STM32Cube/Repository/STM32Cube_FW_F4_V1.27.0/Drivers/STM32F4xx_HAL_Driver/Src/stm32f4xx_hal_gpio.c ****         /* Check the Alternate function parameter */
 222:/home/christoschristoforou/STM32Cube/Repository/STM32Cube_FW_F4_V1.27.0/Drivers/STM32F4xx_HAL_Driver/Src/stm32f4xx_hal_gpio.c ****         assert_param(IS_GPIO_AF(GPIO_Init->Alternate));
 223:/home/christoschristoforou/STM32Cube/Repository/STM32Cube_FW_F4_V1.27.0/Drivers/STM32F4xx_HAL_Driver/Src/stm32f4xx_hal_gpio.c ****         /* Configure Alternate function mapped with the current IO */
 224:/home/christoschristoforou/STM32Cube/Repository/STM32Cube_FW_F4_V1.27.0/Drivers/STM32F4xx_HAL_Driver/Src/stm32f4xx_hal_gpio.c ****         temp = GPIOx->AFR[position >> 3U];
 225:/home/christoschristoforou/STM32Cube/Repository/STM32Cube_FW_F4_V1.27.0/Drivers/STM32F4xx_HAL_Driver/Src/stm32f4xx_hal_gpio.c ****         temp &= ~(0xFU << ((uint32_t)(position & 0x07U) * 4U)) ;
 226:/home/christoschristoforou/STM32Cube/Repository/STM32Cube_FW_F4_V1.27.0/Drivers/STM32F4xx_HAL_Driver/Src/stm32f4xx_hal_gpio.c ****         temp |= ((uint32_t)(GPIO_Init->Alternate) << (((uint32_t)position & 0x07U) * 4U));
 227:/home/christoschristoforou/STM32Cube/Repository/STM32Cube_FW_F4_V1.27.0/Drivers/STM32F4xx_HAL_Driver/Src/stm32f4xx_hal_gpio.c ****         GPIOx->AFR[position >> 3U] = temp;
 228:/home/christoschristoforou/STM32Cube/Repository/STM32Cube_FW_F4_V1.27.0/Drivers/STM32F4xx_HAL_Driver/Src/stm32f4xx_hal_gpio.c ****       }
 229:/home/christoschristoforou/STM32Cube/Repository/STM32Cube_FW_F4_V1.27.0/Drivers/STM32F4xx_HAL_Driver/Src/stm32f4xx_hal_gpio.c **** 
 230:/home/christoschristoforou/STM32Cube/Repository/STM32Cube_FW_F4_V1.27.0/Drivers/STM32F4xx_HAL_Driver/Src/stm32f4xx_hal_gpio.c ****       /* Configure IO Direction mode (Input, Output, Alternate or Analog) */
 231:/home/christoschristoforou/STM32Cube/Repository/STM32Cube_FW_F4_V1.27.0/Drivers/STM32F4xx_HAL_Driver/Src/stm32f4xx_hal_gpio.c ****       temp = GPIOx->MODER;
 232:/home/christoschristoforou/STM32Cube/Repository/STM32Cube_FW_F4_V1.27.0/Drivers/STM32F4xx_HAL_Driver/Src/stm32f4xx_hal_gpio.c ****       temp &= ~(GPIO_MODER_MODER0 << (position * 2U));
 233:/home/christoschristoforou/STM32Cube/Repository/STM32Cube_FW_F4_V1.27.0/Drivers/STM32F4xx_HAL_Driver/Src/stm32f4xx_hal_gpio.c ****       temp |= ((GPIO_Init->Mode & GPIO_MODE) << (position * 2U));
 234:/home/christoschristoforou/STM32Cube/Repository/STM32Cube_FW_F4_V1.27.0/Drivers/STM32F4xx_HAL_Driver/Src/stm32f4xx_hal_gpio.c ****       GPIOx->MODER = temp;
 235:/home/christoschristoforou/STM32Cube/Repository/STM32Cube_FW_F4_V1.27.0/Drivers/STM32F4xx_HAL_Driver/Src/stm32f4xx_hal_gpio.c **** 
 236:/home/christoschristoforou/STM32Cube/Repository/STM32Cube_FW_F4_V1.27.0/Drivers/STM32F4xx_HAL_Driver/Src/stm32f4xx_hal_gpio.c ****       /*--------------------- EXTI Mode Configuration ------------------------*/
 237:/home/christoschristoforou/STM32Cube/Repository/STM32Cube_FW_F4_V1.27.0/Drivers/STM32F4xx_HAL_Driver/Src/stm32f4xx_hal_gpio.c ****       /* Configure the External Interrupt or event for the current IO */
ARM GAS  /tmp/ccoZx0qa.s 			page 8


 238:/home/christoschristoforou/STM32Cube/Repository/STM32Cube_FW_F4_V1.27.0/Drivers/STM32F4xx_HAL_Driver/Src/stm32f4xx_hal_gpio.c ****       if((GPIO_Init->Mode & EXTI_MODE) != 0x00U)
 239:/home/christoschristoforou/STM32Cube/Repository/STM32Cube_FW_F4_V1.27.0/Drivers/STM32F4xx_HAL_Driver/Src/stm32f4xx_hal_gpio.c ****       {
 240:/home/christoschristoforou/STM32Cube/Repository/STM32Cube_FW_F4_V1.27.0/Drivers/STM32F4xx_HAL_Driver/Src/stm32f4xx_hal_gpio.c ****         /* Enable SYSCFG Clock */
 241:/home/christoschristoforou/STM32Cube/Repository/STM32Cube_FW_F4_V1.27.0/Drivers/STM32F4xx_HAL_Driver/Src/stm32f4xx_hal_gpio.c ****         __HAL_RCC_SYSCFG_CLK_ENABLE();
 242:/home/christoschristoforou/STM32Cube/Repository/STM32Cube_FW_F4_V1.27.0/Drivers/STM32F4xx_HAL_Driver/Src/stm32f4xx_hal_gpio.c **** 
 243:/home/christoschristoforou/STM32Cube/Repository/STM32Cube_FW_F4_V1.27.0/Drivers/STM32F4xx_HAL_Driver/Src/stm32f4xx_hal_gpio.c ****         temp = SYSCFG->EXTICR[position >> 2U];
 244:/home/christoschristoforou/STM32Cube/Repository/STM32Cube_FW_F4_V1.27.0/Drivers/STM32F4xx_HAL_Driver/Src/stm32f4xx_hal_gpio.c ****         temp &= ~(0x0FU << (4U * (position & 0x03U)));
 245:/home/christoschristoforou/STM32Cube/Repository/STM32Cube_FW_F4_V1.27.0/Drivers/STM32F4xx_HAL_Driver/Src/stm32f4xx_hal_gpio.c ****         temp |= ((uint32_t)(GPIO_GET_INDEX(GPIOx)) << (4U * (position & 0x03U)));
 152              		.loc 1 245 29 discriminator 1 view .LVU31
 153 009e 0024     		movs	r4, #0
 154 00a0 91E0     		b	.L6
 155              	.L28:
 174:/home/christoschristoforou/STM32Cube/Repository/STM32Cube_FW_F4_V1.27.0/Drivers/STM32F4xx_HAL_Driver/Src/stm32f4xx_hal_gpio.c ****   assert_param(IS_GPIO_MODE(GPIO_Init->Mode));
 156              		.loc 1 174 3 discriminator 11 view .LVU32
 157 00a2 AE21     		movs	r1, #174
 158 00a4 8848     		ldr	r0, .L36+4
 159 00a6 FFF7FEFF 		bl	assert_failed
 160              	.LVL6:
 161 00aa F8E7     		b	.L5
 162              	.LVL7:
 163              	.L32:
 192:/home/christoschristoforou/STM32Cube/Repository/STM32Cube_FW_F4_V1.27.0/Drivers/STM32F4xx_HAL_Driver/Src/stm32f4xx_hal_gpio.c ****         /* Configure the IO Speed */
 164              		.loc 1 192 9 is_stmt 1 view .LVU33
 165 00ac F368     		ldr	r3, [r6, #12]
 166 00ae 032B     		cmp	r3, #3
 167 00b0 13D8     		bhi	.L29
 168              	.L9:
 194:/home/christoschristoforou/STM32Cube/Repository/STM32Cube_FW_F4_V1.27.0/Drivers/STM32F4xx_HAL_Driver/Src/stm32f4xx_hal_gpio.c ****         temp &= ~(GPIO_OSPEEDER_OSPEEDR0 << (position * 2U));
 169              		.loc 1 194 9 view .LVU34
 194:/home/christoschristoforou/STM32Cube/Repository/STM32Cube_FW_F4_V1.27.0/Drivers/STM32F4xx_HAL_Driver/Src/stm32f4xx_hal_gpio.c ****         temp &= ~(GPIO_OSPEEDER_OSPEEDR0 << (position * 2U));
 170              		.loc 1 194 14 is_stmt 0 view .LVU35
 171 00b2 BA68     		ldr	r2, [r7, #8]
 172              	.LVL8:
 195:/home/christoschristoforou/STM32Cube/Repository/STM32Cube_FW_F4_V1.27.0/Drivers/STM32F4xx_HAL_Driver/Src/stm32f4xx_hal_gpio.c ****         temp |= (GPIO_Init->Speed << (position * 2U));
 173              		.loc 1 195 9 is_stmt 1 view .LVU36
 195:/home/christoschristoforou/STM32Cube/Repository/STM32Cube_FW_F4_V1.27.0/Drivers/STM32F4xx_HAL_Driver/Src/stm32f4xx_hal_gpio.c ****         temp |= (GPIO_Init->Speed << (position * 2U));
 174              		.loc 1 195 55 is_stmt 0 view .LVU37
 175 00b4 6100     		lsls	r1, r4, #1
 195:/home/christoschristoforou/STM32Cube/Repository/STM32Cube_FW_F4_V1.27.0/Drivers/STM32F4xx_HAL_Driver/Src/stm32f4xx_hal_gpio.c ****         temp |= (GPIO_Init->Speed << (position * 2U));
 176              		.loc 1 195 42 view .LVU38
 177 00b6 0323     		movs	r3, #3
 178 00b8 8B40     		lsls	r3, r3, r1
 195:/home/christoschristoforou/STM32Cube/Repository/STM32Cube_FW_F4_V1.27.0/Drivers/STM32F4xx_HAL_Driver/Src/stm32f4xx_hal_gpio.c ****         temp |= (GPIO_Init->Speed << (position * 2U));
 179              		.loc 1 195 14 view .LVU39
 180 00ba 22EA0302 		bic	r2, r2, r3
 181              	.LVL9:
 196:/home/christoschristoforou/STM32Cube/Repository/STM32Cube_FW_F4_V1.27.0/Drivers/STM32F4xx_HAL_Driver/Src/stm32f4xx_hal_gpio.c ****         GPIOx->OSPEEDR = temp;
 182              		.loc 1 196 9 is_stmt 1 view .LVU40
 196:/home/christoschristoforou/STM32Cube/Repository/STM32Cube_FW_F4_V1.27.0/Drivers/STM32F4xx_HAL_Driver/Src/stm32f4xx_hal_gpio.c ****         GPIOx->OSPEEDR = temp;
 183              		.loc 1 196 27 is_stmt 0 view .LVU41
 184 00be F368     		ldr	r3, [r6, #12]
 196:/home/christoschristoforou/STM32Cube/Repository/STM32Cube_FW_F4_V1.27.0/Drivers/STM32F4xx_HAL_Driver/Src/stm32f4xx_hal_gpio.c ****         GPIOx->OSPEEDR = temp;
 185              		.loc 1 196 35 view .LVU42
 186 00c0 8B40     		lsls	r3, r3, r1
 196:/home/christoschristoforou/STM32Cube/Repository/STM32Cube_FW_F4_V1.27.0/Drivers/STM32F4xx_HAL_Driver/Src/stm32f4xx_hal_gpio.c ****         GPIOx->OSPEEDR = temp;
 187              		.loc 1 196 14 view .LVU43
 188 00c2 1343     		orrs	r3, r3, r2
ARM GAS  /tmp/ccoZx0qa.s 			page 9


 189              	.LVL10:
 197:/home/christoschristoforou/STM32Cube/Repository/STM32Cube_FW_F4_V1.27.0/Drivers/STM32F4xx_HAL_Driver/Src/stm32f4xx_hal_gpio.c **** 
 190              		.loc 1 197 9 is_stmt 1 view .LVU44
 197:/home/christoschristoforou/STM32Cube/Repository/STM32Cube_FW_F4_V1.27.0/Drivers/STM32F4xx_HAL_Driver/Src/stm32f4xx_hal_gpio.c **** 
 191              		.loc 1 197 24 is_stmt 0 view .LVU45
 192 00c4 BB60     		str	r3, [r7, #8]
 200:/home/christoschristoforou/STM32Cube/Repository/STM32Cube_FW_F4_V1.27.0/Drivers/STM32F4xx_HAL_Driver/Src/stm32f4xx_hal_gpio.c ****         temp &= ~(GPIO_OTYPER_OT_0 << position) ;
 193              		.loc 1 200 9 is_stmt 1 view .LVU46
 200:/home/christoschristoforou/STM32Cube/Repository/STM32Cube_FW_F4_V1.27.0/Drivers/STM32F4xx_HAL_Driver/Src/stm32f4xx_hal_gpio.c ****         temp &= ~(GPIO_OTYPER_OT_0 << position) ;
 194              		.loc 1 200 14 is_stmt 0 view .LVU47
 195 00c6 7A68     		ldr	r2, [r7, #4]
 196              	.LVL11:
 201:/home/christoschristoforou/STM32Cube/Repository/STM32Cube_FW_F4_V1.27.0/Drivers/STM32F4xx_HAL_Driver/Src/stm32f4xx_hal_gpio.c ****         temp |= (((GPIO_Init->Mode & OUTPUT_TYPE) >> OUTPUT_TYPE_Pos) << position);
 197              		.loc 1 201 9 is_stmt 1 view .LVU48
 201:/home/christoschristoforou/STM32Cube/Repository/STM32Cube_FW_F4_V1.27.0/Drivers/STM32F4xx_HAL_Driver/Src/stm32f4xx_hal_gpio.c ****         temp |= (((GPIO_Init->Mode & OUTPUT_TYPE) >> OUTPUT_TYPE_Pos) << position);
 198              		.loc 1 201 14 is_stmt 0 view .LVU49
 199 00c8 22EA0502 		bic	r2, r2, r5
 200              	.LVL12:
 202:/home/christoschristoforou/STM32Cube/Repository/STM32Cube_FW_F4_V1.27.0/Drivers/STM32F4xx_HAL_Driver/Src/stm32f4xx_hal_gpio.c ****         GPIOx->OTYPER = temp;
 201              		.loc 1 202 9 is_stmt 1 view .LVU50
 202:/home/christoschristoforou/STM32Cube/Repository/STM32Cube_FW_F4_V1.27.0/Drivers/STM32F4xx_HAL_Driver/Src/stm32f4xx_hal_gpio.c ****         GPIOx->OTYPER = temp;
 202              		.loc 1 202 29 is_stmt 0 view .LVU51
 203 00cc 7368     		ldr	r3, [r6, #4]
 202:/home/christoschristoforou/STM32Cube/Repository/STM32Cube_FW_F4_V1.27.0/Drivers/STM32F4xx_HAL_Driver/Src/stm32f4xx_hal_gpio.c ****         GPIOx->OTYPER = temp;
 204              		.loc 1 202 51 view .LVU52
 205 00ce C3F30015 		ubfx	r5, r3, #4, #1
 206              	.LVL13:
 202:/home/christoschristoforou/STM32Cube/Repository/STM32Cube_FW_F4_V1.27.0/Drivers/STM32F4xx_HAL_Driver/Src/stm32f4xx_hal_gpio.c ****         GPIOx->OTYPER = temp;
 207              		.loc 1 202 71 view .LVU53
 208 00d2 A540     		lsls	r5, r5, r4
 202:/home/christoschristoforou/STM32Cube/Repository/STM32Cube_FW_F4_V1.27.0/Drivers/STM32F4xx_HAL_Driver/Src/stm32f4xx_hal_gpio.c ****         GPIOx->OTYPER = temp;
 209              		.loc 1 202 14 view .LVU54
 210 00d4 1543     		orrs	r5, r5, r2
 211              	.LVL14:
 203:/home/christoschristoforou/STM32Cube/Repository/STM32Cube_FW_F4_V1.27.0/Drivers/STM32F4xx_HAL_Driver/Src/stm32f4xx_hal_gpio.c ****        }
 212              		.loc 1 203 9 is_stmt 1 view .LVU55
 203:/home/christoschristoforou/STM32Cube/Repository/STM32Cube_FW_F4_V1.27.0/Drivers/STM32F4xx_HAL_Driver/Src/stm32f4xx_hal_gpio.c ****        }
 213              		.loc 1 203 23 is_stmt 0 view .LVU56
 214 00d6 7D60     		str	r5, [r7, #4]
 215 00d8 86E0     		b	.L8
 216              	.LVL15:
 217              	.L29:
 192:/home/christoschristoforou/STM32Cube/Repository/STM32Cube_FW_F4_V1.27.0/Drivers/STM32F4xx_HAL_Driver/Src/stm32f4xx_hal_gpio.c ****         /* Configure the IO Speed */
 218              		.loc 1 192 9 discriminator 1 view .LVU57
 219 00da C021     		movs	r1, #192
 220 00dc 7A48     		ldr	r0, .L36+4
 221 00de FFF7FEFF 		bl	assert_failed
 222              	.LVL16:
 223 00e2 E6E7     		b	.L9
 224              	.LVL17:
 225              	.L33:
 209:/home/christoschristoforou/STM32Cube/Repository/STM32Cube_FW_F4_V1.27.0/Drivers/STM32F4xx_HAL_Driver/Src/stm32f4xx_hal_gpio.c ****         
 226              		.loc 1 209 9 discriminator 1 view .LVU58
 227 00e4 D121     		movs	r1, #209
 228 00e6 7848     		ldr	r0, .L36+4
 229 00e8 FFF7FEFF 		bl	assert_failed
 230              	.LVL18:
ARM GAS  /tmp/ccoZx0qa.s 			page 10


 231 00ec 85E0     		b	.L11
 232              	.L34:
 222:/home/christoschristoforou/STM32Cube/Repository/STM32Cube_FW_F4_V1.27.0/Drivers/STM32F4xx_HAL_Driver/Src/stm32f4xx_hal_gpio.c ****         /* Configure Alternate function mapped with the current IO */
 233              		.loc 1 222 9 is_stmt 1 view .LVU59
 234 00ee 3369     		ldr	r3, [r6, #16]
 235 00f0 DBB1     		cbz	r3, .L13
 222:/home/christoschristoforou/STM32Cube/Repository/STM32Cube_FW_F4_V1.27.0/Drivers/STM32F4xx_HAL_Driver/Src/stm32f4xx_hal_gpio.c ****         /* Configure Alternate function mapped with the current IO */
 236              		.loc 1 222 9 is_stmt 0 discriminator 1 view .LVU60
 237 00f2 092B     		cmp	r3, #9
 238 00f4 19D0     		beq	.L13
 222:/home/christoschristoforou/STM32Cube/Repository/STM32Cube_FW_F4_V1.27.0/Drivers/STM32F4xx_HAL_Driver/Src/stm32f4xx_hal_gpio.c ****         /* Configure Alternate function mapped with the current IO */
 239              		.loc 1 222 9 discriminator 6 view .LVU61
 240 00f6 012B     		cmp	r3, #1
 241 00f8 17D0     		beq	.L13
 222:/home/christoschristoforou/STM32Cube/Repository/STM32Cube_FW_F4_V1.27.0/Drivers/STM32F4xx_HAL_Driver/Src/stm32f4xx_hal_gpio.c ****         /* Configure Alternate function mapped with the current IO */
 242              		.loc 1 222 9 discriminator 8 view .LVU62
 243 00fa 022B     		cmp	r3, #2
 244 00fc 15D0     		beq	.L13
 222:/home/christoschristoforou/STM32Cube/Repository/STM32Cube_FW_F4_V1.27.0/Drivers/STM32F4xx_HAL_Driver/Src/stm32f4xx_hal_gpio.c ****         /* Configure Alternate function mapped with the current IO */
 245              		.loc 1 222 9 discriminator 11 view .LVU63
 246 00fe 032B     		cmp	r3, #3
 247 0100 13D0     		beq	.L13
 222:/home/christoschristoforou/STM32Cube/Repository/STM32Cube_FW_F4_V1.27.0/Drivers/STM32F4xx_HAL_Driver/Src/stm32f4xx_hal_gpio.c ****         /* Configure Alternate function mapped with the current IO */
 248              		.loc 1 222 9 discriminator 12 view .LVU64
 249 0102 042B     		cmp	r3, #4
 250 0104 11D0     		beq	.L13
 222:/home/christoschristoforou/STM32Cube/Repository/STM32Cube_FW_F4_V1.27.0/Drivers/STM32F4xx_HAL_Driver/Src/stm32f4xx_hal_gpio.c ****         /* Configure Alternate function mapped with the current IO */
 251              		.loc 1 222 9 discriminator 15 view .LVU65
 252 0106 052B     		cmp	r3, #5
 253 0108 0FD0     		beq	.L13
 222:/home/christoschristoforou/STM32Cube/Repository/STM32Cube_FW_F4_V1.27.0/Drivers/STM32F4xx_HAL_Driver/Src/stm32f4xx_hal_gpio.c ****         /* Configure Alternate function mapped with the current IO */
 254              		.loc 1 222 9 discriminator 18 view .LVU66
 255 010a 062B     		cmp	r3, #6
 256 010c 0DD0     		beq	.L13
 222:/home/christoschristoforou/STM32Cube/Repository/STM32Cube_FW_F4_V1.27.0/Drivers/STM32F4xx_HAL_Driver/Src/stm32f4xx_hal_gpio.c ****         /* Configure Alternate function mapped with the current IO */
 257              		.loc 1 222 9 discriminator 20 view .LVU67
 258 010e 072B     		cmp	r3, #7
 259 0110 0BD0     		beq	.L13
 222:/home/christoschristoforou/STM32Cube/Repository/STM32Cube_FW_F4_V1.27.0/Drivers/STM32F4xx_HAL_Driver/Src/stm32f4xx_hal_gpio.c ****         /* Configure Alternate function mapped with the current IO */
 260              		.loc 1 222 9 discriminator 23 view .LVU68
 261 0112 082B     		cmp	r3, #8
 262 0114 09D0     		beq	.L13
 222:/home/christoschristoforou/STM32Cube/Repository/STM32Cube_FW_F4_V1.27.0/Drivers/STM32F4xx_HAL_Driver/Src/stm32f4xx_hal_gpio.c ****         /* Configure Alternate function mapped with the current IO */
 263              		.loc 1 222 9 discriminator 28 view .LVU69
 264 0116 0A2B     		cmp	r3, #10
 265 0118 07D0     		beq	.L13
 222:/home/christoschristoforou/STM32Cube/Repository/STM32Cube_FW_F4_V1.27.0/Drivers/STM32F4xx_HAL_Driver/Src/stm32f4xx_hal_gpio.c ****         /* Configure Alternate function mapped with the current IO */
 266              		.loc 1 222 9 discriminator 30 view .LVU70
 267 011a 0B2B     		cmp	r3, #11
 268 011c 05D0     		beq	.L13
 222:/home/christoschristoforou/STM32Cube/Repository/STM32Cube_FW_F4_V1.27.0/Drivers/STM32F4xx_HAL_Driver/Src/stm32f4xx_hal_gpio.c ****         /* Configure Alternate function mapped with the current IO */
 269              		.loc 1 222 9 discriminator 31 view .LVU71
 270 011e 0C2B     		cmp	r3, #12
 271 0120 03D0     		beq	.L13
 222:/home/christoschristoforou/STM32Cube/Repository/STM32Cube_FW_F4_V1.27.0/Drivers/STM32F4xx_HAL_Driver/Src/stm32f4xx_hal_gpio.c ****         /* Configure Alternate function mapped with the current IO */
 272              		.loc 1 222 9 discriminator 33 view .LVU72
 273 0122 0D2B     		cmp	r3, #13
ARM GAS  /tmp/ccoZx0qa.s 			page 11


 274 0124 01D0     		beq	.L13
 222:/home/christoschristoforou/STM32Cube/Repository/STM32Cube_FW_F4_V1.27.0/Drivers/STM32F4xx_HAL_Driver/Src/stm32f4xx_hal_gpio.c ****         /* Configure Alternate function mapped with the current IO */
 275              		.loc 1 222 9 discriminator 34 view .LVU73
 276 0126 0F2B     		cmp	r3, #15
 277 0128 10D1     		bne	.L30
 278              	.L13:
 224:/home/christoschristoforou/STM32Cube/Repository/STM32Cube_FW_F4_V1.27.0/Drivers/STM32F4xx_HAL_Driver/Src/stm32f4xx_hal_gpio.c ****         temp &= ~(0xFU << ((uint32_t)(position & 0x07U) * 4U)) ;
 279              		.loc 1 224 9 is_stmt 1 view .LVU74
 224:/home/christoschristoforou/STM32Cube/Repository/STM32Cube_FW_F4_V1.27.0/Drivers/STM32F4xx_HAL_Driver/Src/stm32f4xx_hal_gpio.c ****         temp &= ~(0xFU << ((uint32_t)(position & 0x07U) * 4U)) ;
 280              		.loc 1 224 36 is_stmt 0 view .LVU75
 281 012a E208     		lsrs	r2, r4, #3
 224:/home/christoschristoforou/STM32Cube/Repository/STM32Cube_FW_F4_V1.27.0/Drivers/STM32F4xx_HAL_Driver/Src/stm32f4xx_hal_gpio.c ****         temp &= ~(0xFU << ((uint32_t)(position & 0x07U) * 4U)) ;
 282              		.loc 1 224 14 view .LVU76
 283 012c 0832     		adds	r2, r2, #8
 284 012e 57F82200 		ldr	r0, [r7, r2, lsl #2]
 285              	.LVL19:
 225:/home/christoschristoforou/STM32Cube/Repository/STM32Cube_FW_F4_V1.27.0/Drivers/STM32F4xx_HAL_Driver/Src/stm32f4xx_hal_gpio.c ****         temp |= ((uint32_t)(GPIO_Init->Alternate) << (((uint32_t)position & 0x07U) * 4U));
 286              		.loc 1 225 9 is_stmt 1 view .LVU77
 225:/home/christoschristoforou/STM32Cube/Repository/STM32Cube_FW_F4_V1.27.0/Drivers/STM32F4xx_HAL_Driver/Src/stm32f4xx_hal_gpio.c ****         temp |= ((uint32_t)(GPIO_Init->Alternate) << (((uint32_t)position & 0x07U) * 4U));
 287              		.loc 1 225 28 is_stmt 0 view .LVU78
 288 0132 04F00703 		and	r3, r4, #7
 225:/home/christoschristoforou/STM32Cube/Repository/STM32Cube_FW_F4_V1.27.0/Drivers/STM32F4xx_HAL_Driver/Src/stm32f4xx_hal_gpio.c ****         temp |= ((uint32_t)(GPIO_Init->Alternate) << (((uint32_t)position & 0x07U) * 4U));
 289              		.loc 1 225 57 view .LVU79
 290 0136 9900     		lsls	r1, r3, #2
 225:/home/christoschristoforou/STM32Cube/Repository/STM32Cube_FW_F4_V1.27.0/Drivers/STM32F4xx_HAL_Driver/Src/stm32f4xx_hal_gpio.c ****         temp |= ((uint32_t)(GPIO_Init->Alternate) << (((uint32_t)position & 0x07U) * 4U));
 291              		.loc 1 225 24 view .LVU80
 292 0138 0F23     		movs	r3, #15
 293 013a 8B40     		lsls	r3, r3, r1
 225:/home/christoschristoforou/STM32Cube/Repository/STM32Cube_FW_F4_V1.27.0/Drivers/STM32F4xx_HAL_Driver/Src/stm32f4xx_hal_gpio.c ****         temp |= ((uint32_t)(GPIO_Init->Alternate) << (((uint32_t)position & 0x07U) * 4U));
 294              		.loc 1 225 14 view .LVU81
 295 013c 20EA0300 		bic	r0, r0, r3
 296              	.LVL20:
 226:/home/christoschristoforou/STM32Cube/Repository/STM32Cube_FW_F4_V1.27.0/Drivers/STM32F4xx_HAL_Driver/Src/stm32f4xx_hal_gpio.c ****         GPIOx->AFR[position >> 3U] = temp;
 297              		.loc 1 226 9 is_stmt 1 view .LVU82
 226:/home/christoschristoforou/STM32Cube/Repository/STM32Cube_FW_F4_V1.27.0/Drivers/STM32F4xx_HAL_Driver/Src/stm32f4xx_hal_gpio.c ****         GPIOx->AFR[position >> 3U] = temp;
 298              		.loc 1 226 38 is_stmt 0 view .LVU83
 299 0140 3369     		ldr	r3, [r6, #16]
 226:/home/christoschristoforou/STM32Cube/Repository/STM32Cube_FW_F4_V1.27.0/Drivers/STM32F4xx_HAL_Driver/Src/stm32f4xx_hal_gpio.c ****         GPIOx->AFR[position >> 3U] = temp;
 300              		.loc 1 226 51 view .LVU84
 301 0142 8B40     		lsls	r3, r3, r1
 226:/home/christoschristoforou/STM32Cube/Repository/STM32Cube_FW_F4_V1.27.0/Drivers/STM32F4xx_HAL_Driver/Src/stm32f4xx_hal_gpio.c ****         GPIOx->AFR[position >> 3U] = temp;
 302              		.loc 1 226 14 view .LVU85
 303 0144 0343     		orrs	r3, r3, r0
 304              	.LVL21:
 227:/home/christoschristoforou/STM32Cube/Repository/STM32Cube_FW_F4_V1.27.0/Drivers/STM32F4xx_HAL_Driver/Src/stm32f4xx_hal_gpio.c ****       }
 305              		.loc 1 227 9 is_stmt 1 view .LVU86
 227:/home/christoschristoforou/STM32Cube/Repository/STM32Cube_FW_F4_V1.27.0/Drivers/STM32F4xx_HAL_Driver/Src/stm32f4xx_hal_gpio.c ****       }
 306              		.loc 1 227 36 is_stmt 0 view .LVU87
 307 0146 47F82230 		str	r3, [r7, r2, lsl #2]
 308 014a 66E0     		b	.L12
 309              	.LVL22:
 310              	.L30:
 222:/home/christoschristoforou/STM32Cube/Repository/STM32Cube_FW_F4_V1.27.0/Drivers/STM32F4xx_HAL_Driver/Src/stm32f4xx_hal_gpio.c ****         /* Configure Alternate function mapped with the current IO */
 311              		.loc 1 222 9 discriminator 52 view .LVU88
 312 014c DE21     		movs	r1, #222
 313 014e 5E48     		ldr	r0, .L36+4
 314 0150 FFF7FEFF 		bl	assert_failed
ARM GAS  /tmp/ccoZx0qa.s 			page 12


 315              	.LVL23:
 316 0154 E9E7     		b	.L13
 317              	.LVL24:
 318              	.L35:
 319              		.loc 1 245 29 view .LVU89
 320 0156 0623     		movs	r3, #6
 321 0158 00E0     		b	.L14
 322              	.L20:
 323              		.loc 1 245 18 view .LVU90
 324 015a 0023     		movs	r3, #0
 325              	.L14:
 326              		.loc 1 245 52 discriminator 28 view .LVU91
 327 015c 8B40     		lsls	r3, r3, r1
 328              		.loc 1 245 14 discriminator 28 view .LVU92
 329 015e 0343     		orrs	r3, r3, r0
 330              	.LVL25:
 246:/home/christoschristoforou/STM32Cube/Repository/STM32Cube_FW_F4_V1.27.0/Drivers/STM32F4xx_HAL_Driver/Src/stm32f4xx_hal_gpio.c ****         SYSCFG->EXTICR[position >> 2U] = temp;
 331              		.loc 1 246 9 is_stmt 1 discriminator 28 view .LVU93
 332              		.loc 1 246 40 is_stmt 0 discriminator 28 view .LVU94
 333 0160 0232     		adds	r2, r2, #2
 334 0162 5A49     		ldr	r1, .L36+8
 335 0164 41F82230 		str	r3, [r1, r2, lsl #2]
 247:/home/christoschristoforou/STM32Cube/Repository/STM32Cube_FW_F4_V1.27.0/Drivers/STM32F4xx_HAL_Driver/Src/stm32f4xx_hal_gpio.c **** 
 248:/home/christoschristoforou/STM32Cube/Repository/STM32Cube_FW_F4_V1.27.0/Drivers/STM32F4xx_HAL_Driver/Src/stm32f4xx_hal_gpio.c ****         /* Clear Rising Falling edge configuration */
 249:/home/christoschristoforou/STM32Cube/Repository/STM32Cube_FW_F4_V1.27.0/Drivers/STM32F4xx_HAL_Driver/Src/stm32f4xx_hal_gpio.c ****         temp = EXTI->RTSR;
 336              		.loc 1 249 9 is_stmt 1 discriminator 28 view .LVU95
 337              		.loc 1 249 14 is_stmt 0 discriminator 28 view .LVU96
 338 0168 594B     		ldr	r3, .L36+12
 339              	.LVL26:
 340              		.loc 1 249 14 discriminator 28 view .LVU97
 341 016a 9A68     		ldr	r2, [r3, #8]
 342              	.LVL27:
 250:/home/christoschristoforou/STM32Cube/Repository/STM32Cube_FW_F4_V1.27.0/Drivers/STM32F4xx_HAL_Driver/Src/stm32f4xx_hal_gpio.c ****         temp &= ~((uint32_t)iocurrent);
 343              		.loc 1 250 9 is_stmt 1 discriminator 28 view .LVU98
 344              		.loc 1 250 17 is_stmt 0 discriminator 28 view .LVU99
 345 016c 6FEA0803 		mvn	r3, r8
 346              		.loc 1 250 14 discriminator 28 view .LVU100
 347 0170 22EA0801 		bic	r1, r2, r8
 348              	.LVL28:
 251:/home/christoschristoforou/STM32Cube/Repository/STM32Cube_FW_F4_V1.27.0/Drivers/STM32F4xx_HAL_Driver/Src/stm32f4xx_hal_gpio.c ****         if((GPIO_Init->Mode & TRIGGER_RISING) != 0x00U)
 349              		.loc 1 251 9 is_stmt 1 discriminator 28 view .LVU101
 350              		.loc 1 251 22 is_stmt 0 discriminator 28 view .LVU102
 351 0174 7068     		ldr	r0, [r6, #4]
 352              		.loc 1 251 11 discriminator 28 view .LVU103
 353 0176 10F4801F 		tst	r0, #1048576
 354 017a 01D0     		beq	.L15
 252:/home/christoschristoforou/STM32Cube/Repository/STM32Cube_FW_F4_V1.27.0/Drivers/STM32F4xx_HAL_Driver/Src/stm32f4xx_hal_gpio.c ****         {
 253:/home/christoschristoforou/STM32Cube/Repository/STM32Cube_FW_F4_V1.27.0/Drivers/STM32F4xx_HAL_Driver/Src/stm32f4xx_hal_gpio.c ****           temp |= iocurrent;
 355              		.loc 1 253 11 is_stmt 1 view .LVU104
 356              		.loc 1 253 16 is_stmt 0 view .LVU105
 357 017c 48EA0201 		orr	r1, r8, r2
 358              	.LVL29:
 359              	.L15:
 254:/home/christoschristoforou/STM32Cube/Repository/STM32Cube_FW_F4_V1.27.0/Drivers/STM32F4xx_HAL_Driver/Src/stm32f4xx_hal_gpio.c ****         }
 255:/home/christoschristoforou/STM32Cube/Repository/STM32Cube_FW_F4_V1.27.0/Drivers/STM32F4xx_HAL_Driver/Src/stm32f4xx_hal_gpio.c ****         EXTI->RTSR = temp;
 360              		.loc 1 255 9 is_stmt 1 view .LVU106
 361              		.loc 1 255 20 is_stmt 0 view .LVU107
ARM GAS  /tmp/ccoZx0qa.s 			page 13


 362 0180 534A     		ldr	r2, .L36+12
 363 0182 9160     		str	r1, [r2, #8]
 256:/home/christoschristoforou/STM32Cube/Repository/STM32Cube_FW_F4_V1.27.0/Drivers/STM32F4xx_HAL_Driver/Src/stm32f4xx_hal_gpio.c **** 
 257:/home/christoschristoforou/STM32Cube/Repository/STM32Cube_FW_F4_V1.27.0/Drivers/STM32F4xx_HAL_Driver/Src/stm32f4xx_hal_gpio.c ****         temp = EXTI->FTSR;
 364              		.loc 1 257 9 is_stmt 1 view .LVU108
 365              		.loc 1 257 14 is_stmt 0 view .LVU109
 366 0184 D268     		ldr	r2, [r2, #12]
 367              	.LVL30:
 258:/home/christoschristoforou/STM32Cube/Repository/STM32Cube_FW_F4_V1.27.0/Drivers/STM32F4xx_HAL_Driver/Src/stm32f4xx_hal_gpio.c ****         temp &= ~((uint32_t)iocurrent);
 368              		.loc 1 258 9 is_stmt 1 view .LVU110
 369              		.loc 1 258 14 is_stmt 0 view .LVU111
 370 0186 03EA0201 		and	r1, r3, r2
 371              	.LVL31:
 259:/home/christoschristoforou/STM32Cube/Repository/STM32Cube_FW_F4_V1.27.0/Drivers/STM32F4xx_HAL_Driver/Src/stm32f4xx_hal_gpio.c ****         if((GPIO_Init->Mode & TRIGGER_FALLING) != 0x00U)
 372              		.loc 1 259 9 is_stmt 1 view .LVU112
 373              		.loc 1 259 22 is_stmt 0 view .LVU113
 374 018a 7068     		ldr	r0, [r6, #4]
 375              		.loc 1 259 11 view .LVU114
 376 018c 10F4001F 		tst	r0, #2097152
 377 0190 01D0     		beq	.L16
 260:/home/christoschristoforou/STM32Cube/Repository/STM32Cube_FW_F4_V1.27.0/Drivers/STM32F4xx_HAL_Driver/Src/stm32f4xx_hal_gpio.c ****         {
 261:/home/christoschristoforou/STM32Cube/Repository/STM32Cube_FW_F4_V1.27.0/Drivers/STM32F4xx_HAL_Driver/Src/stm32f4xx_hal_gpio.c ****           temp |= iocurrent;
 378              		.loc 1 261 11 is_stmt 1 view .LVU115
 379              		.loc 1 261 16 is_stmt 0 view .LVU116
 380 0192 48EA0201 		orr	r1, r8, r2
 381              	.LVL32:
 382              	.L16:
 262:/home/christoschristoforou/STM32Cube/Repository/STM32Cube_FW_F4_V1.27.0/Drivers/STM32F4xx_HAL_Driver/Src/stm32f4xx_hal_gpio.c ****         }
 263:/home/christoschristoforou/STM32Cube/Repository/STM32Cube_FW_F4_V1.27.0/Drivers/STM32F4xx_HAL_Driver/Src/stm32f4xx_hal_gpio.c ****         EXTI->FTSR = temp;
 383              		.loc 1 263 9 is_stmt 1 view .LVU117
 384              		.loc 1 263 20 is_stmt 0 view .LVU118
 385 0196 4E4A     		ldr	r2, .L36+12
 386 0198 D160     		str	r1, [r2, #12]
 264:/home/christoschristoforou/STM32Cube/Repository/STM32Cube_FW_F4_V1.27.0/Drivers/STM32F4xx_HAL_Driver/Src/stm32f4xx_hal_gpio.c **** 
 265:/home/christoschristoforou/STM32Cube/Repository/STM32Cube_FW_F4_V1.27.0/Drivers/STM32F4xx_HAL_Driver/Src/stm32f4xx_hal_gpio.c ****         temp = EXTI->EMR;
 387              		.loc 1 265 9 is_stmt 1 view .LVU119
 388              		.loc 1 265 14 is_stmt 0 view .LVU120
 389 019a 5268     		ldr	r2, [r2, #4]
 390              	.LVL33:
 266:/home/christoschristoforou/STM32Cube/Repository/STM32Cube_FW_F4_V1.27.0/Drivers/STM32F4xx_HAL_Driver/Src/stm32f4xx_hal_gpio.c ****         temp &= ~((uint32_t)iocurrent);
 391              		.loc 1 266 9 is_stmt 1 view .LVU121
 392              		.loc 1 266 14 is_stmt 0 view .LVU122
 393 019c 03EA0201 		and	r1, r3, r2
 394              	.LVL34:
 267:/home/christoschristoforou/STM32Cube/Repository/STM32Cube_FW_F4_V1.27.0/Drivers/STM32F4xx_HAL_Driver/Src/stm32f4xx_hal_gpio.c ****         if((GPIO_Init->Mode & EXTI_EVT) != 0x00U)
 395              		.loc 1 267 9 is_stmt 1 view .LVU123
 396              		.loc 1 267 22 is_stmt 0 view .LVU124
 397 01a0 7068     		ldr	r0, [r6, #4]
 398              		.loc 1 267 11 view .LVU125
 399 01a2 10F4003F 		tst	r0, #131072
 400 01a6 01D0     		beq	.L17
 268:/home/christoschristoforou/STM32Cube/Repository/STM32Cube_FW_F4_V1.27.0/Drivers/STM32F4xx_HAL_Driver/Src/stm32f4xx_hal_gpio.c ****         {
 269:/home/christoschristoforou/STM32Cube/Repository/STM32Cube_FW_F4_V1.27.0/Drivers/STM32F4xx_HAL_Driver/Src/stm32f4xx_hal_gpio.c ****           temp |= iocurrent;
 401              		.loc 1 269 11 is_stmt 1 view .LVU126
 402              		.loc 1 269 16 is_stmt 0 view .LVU127
 403 01a8 48EA0201 		orr	r1, r8, r2
 404              	.LVL35:
ARM GAS  /tmp/ccoZx0qa.s 			page 14


 405              	.L17:
 270:/home/christoschristoforou/STM32Cube/Repository/STM32Cube_FW_F4_V1.27.0/Drivers/STM32F4xx_HAL_Driver/Src/stm32f4xx_hal_gpio.c ****         }
 271:/home/christoschristoforou/STM32Cube/Repository/STM32Cube_FW_F4_V1.27.0/Drivers/STM32F4xx_HAL_Driver/Src/stm32f4xx_hal_gpio.c ****         EXTI->EMR = temp;
 406              		.loc 1 271 9 is_stmt 1 view .LVU128
 407              		.loc 1 271 19 is_stmt 0 view .LVU129
 408 01ac 484A     		ldr	r2, .L36+12
 409 01ae 5160     		str	r1, [r2, #4]
 272:/home/christoschristoforou/STM32Cube/Repository/STM32Cube_FW_F4_V1.27.0/Drivers/STM32F4xx_HAL_Driver/Src/stm32f4xx_hal_gpio.c **** 
 273:/home/christoschristoforou/STM32Cube/Repository/STM32Cube_FW_F4_V1.27.0/Drivers/STM32F4xx_HAL_Driver/Src/stm32f4xx_hal_gpio.c ****         /* Clear EXTI line configuration */
 274:/home/christoschristoforou/STM32Cube/Repository/STM32Cube_FW_F4_V1.27.0/Drivers/STM32F4xx_HAL_Driver/Src/stm32f4xx_hal_gpio.c ****         temp = EXTI->IMR;
 410              		.loc 1 274 9 is_stmt 1 view .LVU130
 411              		.loc 1 274 14 is_stmt 0 view .LVU131
 412 01b0 1268     		ldr	r2, [r2]
 413              	.LVL36:
 275:/home/christoschristoforou/STM32Cube/Repository/STM32Cube_FW_F4_V1.27.0/Drivers/STM32F4xx_HAL_Driver/Src/stm32f4xx_hal_gpio.c ****         temp &= ~((uint32_t)iocurrent);
 414              		.loc 1 275 9 is_stmt 1 view .LVU132
 415              		.loc 1 275 14 is_stmt 0 view .LVU133
 416 01b2 1340     		ands	r3, r3, r2
 417              	.LVL37:
 276:/home/christoschristoforou/STM32Cube/Repository/STM32Cube_FW_F4_V1.27.0/Drivers/STM32F4xx_HAL_Driver/Src/stm32f4xx_hal_gpio.c ****         if((GPIO_Init->Mode & EXTI_IT) != 0x00U)
 418              		.loc 1 276 9 is_stmt 1 view .LVU134
 419              		.loc 1 276 22 is_stmt 0 view .LVU135
 420 01b4 7168     		ldr	r1, [r6, #4]
 421              		.loc 1 276 11 view .LVU136
 422 01b6 11F4803F 		tst	r1, #65536
 423 01ba 01D0     		beq	.L18
 277:/home/christoschristoforou/STM32Cube/Repository/STM32Cube_FW_F4_V1.27.0/Drivers/STM32F4xx_HAL_Driver/Src/stm32f4xx_hal_gpio.c ****         {
 278:/home/christoschristoforou/STM32Cube/Repository/STM32Cube_FW_F4_V1.27.0/Drivers/STM32F4xx_HAL_Driver/Src/stm32f4xx_hal_gpio.c ****           temp |= iocurrent;
 424              		.loc 1 278 11 is_stmt 1 view .LVU137
 425              		.loc 1 278 16 is_stmt 0 view .LVU138
 426 01bc 48EA0203 		orr	r3, r8, r2
 427              	.LVL38:
 428              	.L18:
 279:/home/christoschristoforou/STM32Cube/Repository/STM32Cube_FW_F4_V1.27.0/Drivers/STM32F4xx_HAL_Driver/Src/stm32f4xx_hal_gpio.c ****         }
 280:/home/christoschristoforou/STM32Cube/Repository/STM32Cube_FW_F4_V1.27.0/Drivers/STM32F4xx_HAL_Driver/Src/stm32f4xx_hal_gpio.c ****         EXTI->IMR = temp;
 429              		.loc 1 280 9 is_stmt 1 view .LVU139
 430              		.loc 1 280 19 is_stmt 0 view .LVU140
 431 01c0 434A     		ldr	r2, .L36+12
 432 01c2 1360     		str	r3, [r2]
 433              	.LVL39:
 434              	.L7:
 177:/home/christoschristoforou/STM32Cube/Repository/STM32Cube_FW_F4_V1.27.0/Drivers/STM32F4xx_HAL_Driver/Src/stm32f4xx_hal_gpio.c ****   {
 435              		.loc 1 177 46 is_stmt 1 discriminator 2 view .LVU141
 177:/home/christoschristoforou/STM32Cube/Repository/STM32Cube_FW_F4_V1.27.0/Drivers/STM32F4xx_HAL_Driver/Src/stm32f4xx_hal_gpio.c ****   {
 436              		.loc 1 177 54 is_stmt 0 discriminator 2 view .LVU142
 437 01c4 0134     		adds	r4, r4, #1
 438              	.LVL40:
 439              	.L6:
 177:/home/christoschristoforou/STM32Cube/Repository/STM32Cube_FW_F4_V1.27.0/Drivers/STM32F4xx_HAL_Driver/Src/stm32f4xx_hal_gpio.c ****   {
 440              		.loc 1 177 22 is_stmt 1 discriminator 1 view .LVU143
 177:/home/christoschristoforou/STM32Cube/Repository/STM32Cube_FW_F4_V1.27.0/Drivers/STM32F4xx_HAL_Driver/Src/stm32f4xx_hal_gpio.c ****   {
 441              		.loc 1 177 3 is_stmt 0 discriminator 1 view .LVU144
 442 01c6 0F2C     		cmp	r4, #15
 443 01c8 78D8     		bhi	.L31
 180:/home/christoschristoforou/STM32Cube/Repository/STM32Cube_FW_F4_V1.27.0/Drivers/STM32F4xx_HAL_Driver/Src/stm32f4xx_hal_gpio.c ****     /* Get the current IO position */
 444              		.loc 1 180 5 is_stmt 1 view .LVU145
 180:/home/christoschristoforou/STM32Cube/Repository/STM32Cube_FW_F4_V1.27.0/Drivers/STM32F4xx_HAL_Driver/Src/stm32f4xx_hal_gpio.c ****     /* Get the current IO position */
ARM GAS  /tmp/ccoZx0qa.s 			page 15


 445              		.loc 1 180 16 is_stmt 0 view .LVU146
 446 01ca 0125     		movs	r5, #1
 447 01cc A540     		lsls	r5, r5, r4
 448              	.LVL41:
 182:/home/christoschristoforou/STM32Cube/Repository/STM32Cube_FW_F4_V1.27.0/Drivers/STM32F4xx_HAL_Driver/Src/stm32f4xx_hal_gpio.c **** 
 449              		.loc 1 182 5 is_stmt 1 view .LVU147
 182:/home/christoschristoforou/STM32Cube/Repository/STM32Cube_FW_F4_V1.27.0/Drivers/STM32F4xx_HAL_Driver/Src/stm32f4xx_hal_gpio.c **** 
 450              		.loc 1 182 37 is_stmt 0 view .LVU148
 451 01ce 3368     		ldr	r3, [r6]
 182:/home/christoschristoforou/STM32Cube/Repository/STM32Cube_FW_F4_V1.27.0/Drivers/STM32F4xx_HAL_Driver/Src/stm32f4xx_hal_gpio.c **** 
 452              		.loc 1 182 15 view .LVU149
 453 01d0 03EA0508 		and	r8, r3, r5
 454              	.LVL42:
 184:/home/christoschristoforou/STM32Cube/Repository/STM32Cube_FW_F4_V1.27.0/Drivers/STM32F4xx_HAL_Driver/Src/stm32f4xx_hal_gpio.c ****     {
 455              		.loc 1 184 5 is_stmt 1 view .LVU150
 184:/home/christoschristoforou/STM32Cube/Repository/STM32Cube_FW_F4_V1.27.0/Drivers/STM32F4xx_HAL_Driver/Src/stm32f4xx_hal_gpio.c ****     {
 456              		.loc 1 184 7 is_stmt 0 view .LVU151
 457 01d4 35EA0303 		bics	r3, r5, r3
 458 01d8 F4D1     		bne	.L7
 188:/home/christoschristoforou/STM32Cube/Repository/STM32Cube_FW_F4_V1.27.0/Drivers/STM32F4xx_HAL_Driver/Src/stm32f4xx_hal_gpio.c ****           (GPIO_Init->Mode & GPIO_MODE) == MODE_AF)
 459              		.loc 1 188 7 is_stmt 1 view .LVU152
 188:/home/christoschristoforou/STM32Cube/Repository/STM32Cube_FW_F4_V1.27.0/Drivers/STM32F4xx_HAL_Driver/Src/stm32f4xx_hal_gpio.c ****           (GPIO_Init->Mode & GPIO_MODE) == MODE_AF)
 460              		.loc 1 188 21 is_stmt 0 view .LVU153
 461 01da 7368     		ldr	r3, [r6, #4]
 188:/home/christoschristoforou/STM32Cube/Repository/STM32Cube_FW_F4_V1.27.0/Drivers/STM32F4xx_HAL_Driver/Src/stm32f4xx_hal_gpio.c ****           (GPIO_Init->Mode & GPIO_MODE) == MODE_AF)
 462              		.loc 1 188 28 view .LVU154
 463 01dc 03F00303 		and	r3, r3, #3
 188:/home/christoschristoforou/STM32Cube/Repository/STM32Cube_FW_F4_V1.27.0/Drivers/STM32F4xx_HAL_Driver/Src/stm32f4xx_hal_gpio.c ****           (GPIO_Init->Mode & GPIO_MODE) == MODE_AF)
 464              		.loc 1 188 57 view .LVU155
 465 01e0 013B     		subs	r3, r3, #1
 188:/home/christoschristoforou/STM32Cube/Repository/STM32Cube_FW_F4_V1.27.0/Drivers/STM32F4xx_HAL_Driver/Src/stm32f4xx_hal_gpio.c ****           (GPIO_Init->Mode & GPIO_MODE) == MODE_AF)
 466              		.loc 1 188 9 view .LVU156
 467 01e2 012B     		cmp	r3, #1
 468 01e4 7FF662AF 		bls	.L32
 469              	.LVL43:
 470              	.L8:
 206:/home/christoschristoforou/STM32Cube/Repository/STM32Cube_FW_F4_V1.27.0/Drivers/STM32F4xx_HAL_Driver/Src/stm32f4xx_hal_gpio.c ****       {
 471              		.loc 1 206 7 is_stmt 1 view .LVU157
 206:/home/christoschristoforou/STM32Cube/Repository/STM32Cube_FW_F4_V1.27.0/Drivers/STM32F4xx_HAL_Driver/Src/stm32f4xx_hal_gpio.c ****       {
 472              		.loc 1 206 20 is_stmt 0 view .LVU158
 473 01e8 7368     		ldr	r3, [r6, #4]
 206:/home/christoschristoforou/STM32Cube/Repository/STM32Cube_FW_F4_V1.27.0/Drivers/STM32F4xx_HAL_Driver/Src/stm32f4xx_hal_gpio.c ****       {
 474              		.loc 1 206 27 view .LVU159
 475 01ea 03F00303 		and	r3, r3, #3
 206:/home/christoschristoforou/STM32Cube/Repository/STM32Cube_FW_F4_V1.27.0/Drivers/STM32F4xx_HAL_Driver/Src/stm32f4xx_hal_gpio.c ****       {
 476              		.loc 1 206 9 view .LVU160
 477 01ee 032B     		cmp	r3, #3
 478 01f0 0DD0     		beq	.L10
 209:/home/christoschristoforou/STM32Cube/Repository/STM32Cube_FW_F4_V1.27.0/Drivers/STM32F4xx_HAL_Driver/Src/stm32f4xx_hal_gpio.c ****         
 479              		.loc 1 209 9 is_stmt 1 view .LVU161
 480 01f2 B368     		ldr	r3, [r6, #8]
 481 01f4 022B     		cmp	r3, #2
 482 01f6 3FF675AF 		bhi	.L33
 483              	.L11:
 212:/home/christoschristoforou/STM32Cube/Repository/STM32Cube_FW_F4_V1.27.0/Drivers/STM32F4xx_HAL_Driver/Src/stm32f4xx_hal_gpio.c ****         temp &= ~(GPIO_PUPDR_PUPDR0 << (position * 2U));
 484              		.loc 1 212 9 view .LVU162
 212:/home/christoschristoforou/STM32Cube/Repository/STM32Cube_FW_F4_V1.27.0/Drivers/STM32F4xx_HAL_Driver/Src/stm32f4xx_hal_gpio.c ****         temp &= ~(GPIO_PUPDR_PUPDR0 << (position * 2U));
ARM GAS  /tmp/ccoZx0qa.s 			page 16


 485              		.loc 1 212 14 is_stmt 0 view .LVU163
 486 01fa FA68     		ldr	r2, [r7, #12]
 487              	.LVL44:
 213:/home/christoschristoforou/STM32Cube/Repository/STM32Cube_FW_F4_V1.27.0/Drivers/STM32F4xx_HAL_Driver/Src/stm32f4xx_hal_gpio.c ****         temp |= ((GPIO_Init->Pull) << (position * 2U));
 488              		.loc 1 213 9 is_stmt 1 view .LVU164
 213:/home/christoschristoforou/STM32Cube/Repository/STM32Cube_FW_F4_V1.27.0/Drivers/STM32F4xx_HAL_Driver/Src/stm32f4xx_hal_gpio.c ****         temp |= ((GPIO_Init->Pull) << (position * 2U));
 489              		.loc 1 213 50 is_stmt 0 view .LVU165
 490 01fc 6100     		lsls	r1, r4, #1
 213:/home/christoschristoforou/STM32Cube/Repository/STM32Cube_FW_F4_V1.27.0/Drivers/STM32F4xx_HAL_Driver/Src/stm32f4xx_hal_gpio.c ****         temp |= ((GPIO_Init->Pull) << (position * 2U));
 491              		.loc 1 213 37 view .LVU166
 492 01fe 0323     		movs	r3, #3
 493 0200 8B40     		lsls	r3, r3, r1
 213:/home/christoschristoforou/STM32Cube/Repository/STM32Cube_FW_F4_V1.27.0/Drivers/STM32F4xx_HAL_Driver/Src/stm32f4xx_hal_gpio.c ****         temp |= ((GPIO_Init->Pull) << (position * 2U));
 494              		.loc 1 213 14 view .LVU167
 495 0202 22EA0302 		bic	r2, r2, r3
 496              	.LVL45:
 214:/home/christoschristoforou/STM32Cube/Repository/STM32Cube_FW_F4_V1.27.0/Drivers/STM32F4xx_HAL_Driver/Src/stm32f4xx_hal_gpio.c ****         GPIOx->PUPDR = temp;
 497              		.loc 1 214 9 is_stmt 1 view .LVU168
 214:/home/christoschristoforou/STM32Cube/Repository/STM32Cube_FW_F4_V1.27.0/Drivers/STM32F4xx_HAL_Driver/Src/stm32f4xx_hal_gpio.c ****         GPIOx->PUPDR = temp;
 498              		.loc 1 214 28 is_stmt 0 view .LVU169
 499 0206 B368     		ldr	r3, [r6, #8]
 214:/home/christoschristoforou/STM32Cube/Repository/STM32Cube_FW_F4_V1.27.0/Drivers/STM32F4xx_HAL_Driver/Src/stm32f4xx_hal_gpio.c ****         GPIOx->PUPDR = temp;
 500              		.loc 1 214 36 view .LVU170
 501 0208 8B40     		lsls	r3, r3, r1
 214:/home/christoschristoforou/STM32Cube/Repository/STM32Cube_FW_F4_V1.27.0/Drivers/STM32F4xx_HAL_Driver/Src/stm32f4xx_hal_gpio.c ****         GPIOx->PUPDR = temp;
 502              		.loc 1 214 14 view .LVU171
 503 020a 1343     		orrs	r3, r3, r2
 504              	.LVL46:
 215:/home/christoschristoforou/STM32Cube/Repository/STM32Cube_FW_F4_V1.27.0/Drivers/STM32F4xx_HAL_Driver/Src/stm32f4xx_hal_gpio.c ****       }
 505              		.loc 1 215 9 is_stmt 1 view .LVU172
 215:/home/christoschristoforou/STM32Cube/Repository/STM32Cube_FW_F4_V1.27.0/Drivers/STM32F4xx_HAL_Driver/Src/stm32f4xx_hal_gpio.c ****       }
 506              		.loc 1 215 22 is_stmt 0 view .LVU173
 507 020c FB60     		str	r3, [r7, #12]
 508              	.LVL47:
 509              	.L10:
 219:/home/christoschristoforou/STM32Cube/Repository/STM32Cube_FW_F4_V1.27.0/Drivers/STM32F4xx_HAL_Driver/Src/stm32f4xx_hal_gpio.c ****       {
 510              		.loc 1 219 7 is_stmt 1 view .LVU174
 219:/home/christoschristoforou/STM32Cube/Repository/STM32Cube_FW_F4_V1.27.0/Drivers/STM32F4xx_HAL_Driver/Src/stm32f4xx_hal_gpio.c ****       {
 511              		.loc 1 219 20 is_stmt 0 view .LVU175
 512 020e 7368     		ldr	r3, [r6, #4]
 219:/home/christoschristoforou/STM32Cube/Repository/STM32Cube_FW_F4_V1.27.0/Drivers/STM32F4xx_HAL_Driver/Src/stm32f4xx_hal_gpio.c ****       {
 513              		.loc 1 219 27 view .LVU176
 514 0210 03F00303 		and	r3, r3, #3
 219:/home/christoschristoforou/STM32Cube/Repository/STM32Cube_FW_F4_V1.27.0/Drivers/STM32F4xx_HAL_Driver/Src/stm32f4xx_hal_gpio.c ****       {
 515              		.loc 1 219 9 view .LVU177
 516 0214 022B     		cmp	r3, #2
 517 0216 3FF46AAF 		beq	.L34
 518              	.L12:
 231:/home/christoschristoforou/STM32Cube/Repository/STM32Cube_FW_F4_V1.27.0/Drivers/STM32F4xx_HAL_Driver/Src/stm32f4xx_hal_gpio.c ****       temp &= ~(GPIO_MODER_MODER0 << (position * 2U));
 519              		.loc 1 231 7 is_stmt 1 view .LVU178
 231:/home/christoschristoforou/STM32Cube/Repository/STM32Cube_FW_F4_V1.27.0/Drivers/STM32F4xx_HAL_Driver/Src/stm32f4xx_hal_gpio.c ****       temp &= ~(GPIO_MODER_MODER0 << (position * 2U));
 520              		.loc 1 231 12 is_stmt 0 view .LVU179
 521 021a 3A68     		ldr	r2, [r7]
 522              	.LVL48:
 232:/home/christoschristoforou/STM32Cube/Repository/STM32Cube_FW_F4_V1.27.0/Drivers/STM32F4xx_HAL_Driver/Src/stm32f4xx_hal_gpio.c ****       temp |= ((GPIO_Init->Mode & GPIO_MODE) << (position * 2U));
 523              		.loc 1 232 7 is_stmt 1 view .LVU180
 232:/home/christoschristoforou/STM32Cube/Repository/STM32Cube_FW_F4_V1.27.0/Drivers/STM32F4xx_HAL_Driver/Src/stm32f4xx_hal_gpio.c ****       temp |= ((GPIO_Init->Mode & GPIO_MODE) << (position * 2U));
ARM GAS  /tmp/ccoZx0qa.s 			page 17


 524              		.loc 1 232 48 is_stmt 0 view .LVU181
 525 021c 6100     		lsls	r1, r4, #1
 232:/home/christoschristoforou/STM32Cube/Repository/STM32Cube_FW_F4_V1.27.0/Drivers/STM32F4xx_HAL_Driver/Src/stm32f4xx_hal_gpio.c ****       temp |= ((GPIO_Init->Mode & GPIO_MODE) << (position * 2U));
 526              		.loc 1 232 35 view .LVU182
 527 021e 0323     		movs	r3, #3
 528 0220 8B40     		lsls	r3, r3, r1
 232:/home/christoschristoforou/STM32Cube/Repository/STM32Cube_FW_F4_V1.27.0/Drivers/STM32F4xx_HAL_Driver/Src/stm32f4xx_hal_gpio.c ****       temp |= ((GPIO_Init->Mode & GPIO_MODE) << (position * 2U));
 529              		.loc 1 232 12 view .LVU183
 530 0222 22EA0302 		bic	r2, r2, r3
 531              	.LVL49:
 233:/home/christoschristoforou/STM32Cube/Repository/STM32Cube_FW_F4_V1.27.0/Drivers/STM32F4xx_HAL_Driver/Src/stm32f4xx_hal_gpio.c ****       GPIOx->MODER = temp;
 532              		.loc 1 233 7 is_stmt 1 view .LVU184
 233:/home/christoschristoforou/STM32Cube/Repository/STM32Cube_FW_F4_V1.27.0/Drivers/STM32F4xx_HAL_Driver/Src/stm32f4xx_hal_gpio.c ****       GPIOx->MODER = temp;
 533              		.loc 1 233 26 is_stmt 0 view .LVU185
 534 0226 7368     		ldr	r3, [r6, #4]
 233:/home/christoschristoforou/STM32Cube/Repository/STM32Cube_FW_F4_V1.27.0/Drivers/STM32F4xx_HAL_Driver/Src/stm32f4xx_hal_gpio.c ****       GPIOx->MODER = temp;
 535              		.loc 1 233 33 view .LVU186
 536 0228 03F00303 		and	r3, r3, #3
 233:/home/christoschristoforou/STM32Cube/Repository/STM32Cube_FW_F4_V1.27.0/Drivers/STM32F4xx_HAL_Driver/Src/stm32f4xx_hal_gpio.c ****       GPIOx->MODER = temp;
 537              		.loc 1 233 46 view .LVU187
 538 022c 8B40     		lsls	r3, r3, r1
 233:/home/christoschristoforou/STM32Cube/Repository/STM32Cube_FW_F4_V1.27.0/Drivers/STM32F4xx_HAL_Driver/Src/stm32f4xx_hal_gpio.c ****       GPIOx->MODER = temp;
 539              		.loc 1 233 12 view .LVU188
 540 022e 1343     		orrs	r3, r3, r2
 541              	.LVL50:
 234:/home/christoschristoforou/STM32Cube/Repository/STM32Cube_FW_F4_V1.27.0/Drivers/STM32F4xx_HAL_Driver/Src/stm32f4xx_hal_gpio.c **** 
 542              		.loc 1 234 7 is_stmt 1 view .LVU189
 234:/home/christoschristoforou/STM32Cube/Repository/STM32Cube_FW_F4_V1.27.0/Drivers/STM32F4xx_HAL_Driver/Src/stm32f4xx_hal_gpio.c **** 
 543              		.loc 1 234 20 is_stmt 0 view .LVU190
 544 0230 3B60     		str	r3, [r7]
 238:/home/christoschristoforou/STM32Cube/Repository/STM32Cube_FW_F4_V1.27.0/Drivers/STM32F4xx_HAL_Driver/Src/stm32f4xx_hal_gpio.c ****       {
 545              		.loc 1 238 7 is_stmt 1 view .LVU191
 238:/home/christoschristoforou/STM32Cube/Repository/STM32Cube_FW_F4_V1.27.0/Drivers/STM32F4xx_HAL_Driver/Src/stm32f4xx_hal_gpio.c ****       {
 546              		.loc 1 238 20 is_stmt 0 view .LVU192
 547 0232 7368     		ldr	r3, [r6, #4]
 548              	.LVL51:
 238:/home/christoschristoforou/STM32Cube/Repository/STM32Cube_FW_F4_V1.27.0/Drivers/STM32F4xx_HAL_Driver/Src/stm32f4xx_hal_gpio.c ****       {
 549              		.loc 1 238 9 view .LVU193
 550 0234 13F4403F 		tst	r3, #196608
 551 0238 C4D0     		beq	.L7
 241:/home/christoschristoforou/STM32Cube/Repository/STM32Cube_FW_F4_V1.27.0/Drivers/STM32F4xx_HAL_Driver/Src/stm32f4xx_hal_gpio.c **** 
 552              		.loc 1 241 9 is_stmt 1 view .LVU194
 553              	.LBB2:
 241:/home/christoschristoforou/STM32Cube/Repository/STM32Cube_FW_F4_V1.27.0/Drivers/STM32F4xx_HAL_Driver/Src/stm32f4xx_hal_gpio.c **** 
 554              		.loc 1 241 9 view .LVU195
 555 023a 0023     		movs	r3, #0
 556 023c 0193     		str	r3, [sp, #4]
 557              	.LVL52:
 241:/home/christoschristoforou/STM32Cube/Repository/STM32Cube_FW_F4_V1.27.0/Drivers/STM32F4xx_HAL_Driver/Src/stm32f4xx_hal_gpio.c **** 
 558              		.loc 1 241 9 view .LVU196
 559 023e 254B     		ldr	r3, .L36+16
 560 0240 5A6C     		ldr	r2, [r3, #68]
 561 0242 42F48042 		orr	r2, r2, #16384
 562 0246 5A64     		str	r2, [r3, #68]
 241:/home/christoschristoforou/STM32Cube/Repository/STM32Cube_FW_F4_V1.27.0/Drivers/STM32F4xx_HAL_Driver/Src/stm32f4xx_hal_gpio.c **** 
 563              		.loc 1 241 9 view .LVU197
 564 0248 5B6C     		ldr	r3, [r3, #68]
ARM GAS  /tmp/ccoZx0qa.s 			page 18


 565 024a 03F48043 		and	r3, r3, #16384
 566 024e 0193     		str	r3, [sp, #4]
 241:/home/christoschristoforou/STM32Cube/Repository/STM32Cube_FW_F4_V1.27.0/Drivers/STM32F4xx_HAL_Driver/Src/stm32f4xx_hal_gpio.c **** 
 567              		.loc 1 241 9 view .LVU198
 568 0250 019B     		ldr	r3, [sp, #4]
 569              	.LBE2:
 241:/home/christoschristoforou/STM32Cube/Repository/STM32Cube_FW_F4_V1.27.0/Drivers/STM32F4xx_HAL_Driver/Src/stm32f4xx_hal_gpio.c **** 
 570              		.loc 1 241 9 view .LVU199
 243:/home/christoschristoforou/STM32Cube/Repository/STM32Cube_FW_F4_V1.27.0/Drivers/STM32F4xx_HAL_Driver/Src/stm32f4xx_hal_gpio.c ****         temp &= ~(0x0FU << (4U * (position & 0x03U)));
 571              		.loc 1 243 9 view .LVU200
 243:/home/christoschristoforou/STM32Cube/Repository/STM32Cube_FW_F4_V1.27.0/Drivers/STM32F4xx_HAL_Driver/Src/stm32f4xx_hal_gpio.c ****         temp &= ~(0x0FU << (4U * (position & 0x03U)));
 572              		.loc 1 243 40 is_stmt 0 view .LVU201
 573 0252 A208     		lsrs	r2, r4, #2
 243:/home/christoschristoforou/STM32Cube/Repository/STM32Cube_FW_F4_V1.27.0/Drivers/STM32F4xx_HAL_Driver/Src/stm32f4xx_hal_gpio.c ****         temp &= ~(0x0FU << (4U * (position & 0x03U)));
 574              		.loc 1 243 14 view .LVU202
 575 0254 911C     		adds	r1, r2, #2
 576 0256 1D4B     		ldr	r3, .L36+8
 577 0258 53F82100 		ldr	r0, [r3, r1, lsl #2]
 578              	.LVL53:
 244:/home/christoschristoforou/STM32Cube/Repository/STM32Cube_FW_F4_V1.27.0/Drivers/STM32F4xx_HAL_Driver/Src/stm32f4xx_hal_gpio.c ****         temp |= ((uint32_t)(GPIO_GET_INDEX(GPIOx)) << (4U * (position & 0x03U)));
 579              		.loc 1 244 9 is_stmt 1 view .LVU203
 244:/home/christoschristoforou/STM32Cube/Repository/STM32Cube_FW_F4_V1.27.0/Drivers/STM32F4xx_HAL_Driver/Src/stm32f4xx_hal_gpio.c ****         temp |= ((uint32_t)(GPIO_GET_INDEX(GPIOx)) << (4U * (position & 0x03U)));
 580              		.loc 1 244 44 is_stmt 0 view .LVU204
 581 025c 04F00303 		and	r3, r4, #3
 244:/home/christoschristoforou/STM32Cube/Repository/STM32Cube_FW_F4_V1.27.0/Drivers/STM32F4xx_HAL_Driver/Src/stm32f4xx_hal_gpio.c ****         temp |= ((uint32_t)(GPIO_GET_INDEX(GPIOx)) << (4U * (position & 0x03U)));
 582              		.loc 1 244 32 view .LVU205
 583 0260 9900     		lsls	r1, r3, #2
 244:/home/christoschristoforou/STM32Cube/Repository/STM32Cube_FW_F4_V1.27.0/Drivers/STM32F4xx_HAL_Driver/Src/stm32f4xx_hal_gpio.c ****         temp |= ((uint32_t)(GPIO_GET_INDEX(GPIOx)) << (4U * (position & 0x03U)));
 584              		.loc 1 244 25 view .LVU206
 585 0262 0F23     		movs	r3, #15
 586 0264 8B40     		lsls	r3, r3, r1
 244:/home/christoschristoforou/STM32Cube/Repository/STM32Cube_FW_F4_V1.27.0/Drivers/STM32F4xx_HAL_Driver/Src/stm32f4xx_hal_gpio.c ****         temp |= ((uint32_t)(GPIO_GET_INDEX(GPIOx)) << (4U * (position & 0x03U)));
 587              		.loc 1 244 14 view .LVU207
 588 0266 20EA0300 		bic	r0, r0, r3
 589              	.LVL54:
 245:/home/christoschristoforou/STM32Cube/Repository/STM32Cube_FW_F4_V1.27.0/Drivers/STM32F4xx_HAL_Driver/Src/stm32f4xx_hal_gpio.c ****         SYSCFG->EXTICR[position >> 2U] = temp;
 590              		.loc 1 245 9 is_stmt 1 view .LVU208
 245:/home/christoschristoforou/STM32Cube/Repository/STM32Cube_FW_F4_V1.27.0/Drivers/STM32F4xx_HAL_Driver/Src/stm32f4xx_hal_gpio.c ****         SYSCFG->EXTICR[position >> 2U] = temp;
 591              		.loc 1 245 18 is_stmt 0 view .LVU209
 592 026a 164B     		ldr	r3, .L36
 593 026c 9F42     		cmp	r7, r3
 594 026e 3FF474AF 		beq	.L20
 245:/home/christoschristoforou/STM32Cube/Repository/STM32Cube_FW_F4_V1.27.0/Drivers/STM32F4xx_HAL_Driver/Src/stm32f4xx_hal_gpio.c ****         SYSCFG->EXTICR[position >> 2U] = temp;
 595              		.loc 1 245 29 discriminator 1 view .LVU210
 596 0272 03F58063 		add	r3, r3, #1024
 597 0276 9F42     		cmp	r7, r3
 598 0278 16D0     		beq	.L21
 245:/home/christoschristoforou/STM32Cube/Repository/STM32Cube_FW_F4_V1.27.0/Drivers/STM32F4xx_HAL_Driver/Src/stm32f4xx_hal_gpio.c ****         SYSCFG->EXTICR[position >> 2U] = temp;
 599              		.loc 1 245 29 discriminator 3 view .LVU211
 600 027a 03F58063 		add	r3, r3, #1024
 601 027e 9F42     		cmp	r7, r3
 602 0280 14D0     		beq	.L22
 245:/home/christoschristoforou/STM32Cube/Repository/STM32Cube_FW_F4_V1.27.0/Drivers/STM32F4xx_HAL_Driver/Src/stm32f4xx_hal_gpio.c ****         SYSCFG->EXTICR[position >> 2U] = temp;
 603              		.loc 1 245 29 discriminator 5 view .LVU212
 604 0282 03F58063 		add	r3, r3, #1024
 605 0286 9F42     		cmp	r7, r3
 606 0288 12D0     		beq	.L23
ARM GAS  /tmp/ccoZx0qa.s 			page 19


 245:/home/christoschristoforou/STM32Cube/Repository/STM32Cube_FW_F4_V1.27.0/Drivers/STM32F4xx_HAL_Driver/Src/stm32f4xx_hal_gpio.c ****         SYSCFG->EXTICR[position >> 2U] = temp;
 607              		.loc 1 245 29 discriminator 7 view .LVU213
 608 028a 03F58063 		add	r3, r3, #1024
 609 028e 9F42     		cmp	r7, r3
 610 0290 10D0     		beq	.L24
 245:/home/christoschristoforou/STM32Cube/Repository/STM32Cube_FW_F4_V1.27.0/Drivers/STM32F4xx_HAL_Driver/Src/stm32f4xx_hal_gpio.c ****         SYSCFG->EXTICR[position >> 2U] = temp;
 611              		.loc 1 245 29 discriminator 9 view .LVU214
 612 0292 03F58063 		add	r3, r3, #1024
 613 0296 9F42     		cmp	r7, r3
 614 0298 0ED0     		beq	.L25
 245:/home/christoschristoforou/STM32Cube/Repository/STM32Cube_FW_F4_V1.27.0/Drivers/STM32F4xx_HAL_Driver/Src/stm32f4xx_hal_gpio.c ****         SYSCFG->EXTICR[position >> 2U] = temp;
 615              		.loc 1 245 29 discriminator 11 view .LVU215
 616 029a 03F58063 		add	r3, r3, #1024
 617 029e 9F42     		cmp	r7, r3
 618 02a0 3FF459AF 		beq	.L35
 245:/home/christoschristoforou/STM32Cube/Repository/STM32Cube_FW_F4_V1.27.0/Drivers/STM32F4xx_HAL_Driver/Src/stm32f4xx_hal_gpio.c ****         SYSCFG->EXTICR[position >> 2U] = temp;
 619              		.loc 1 245 29 view .LVU216
 620 02a4 0723     		movs	r3, #7
 621 02a6 59E7     		b	.L14
 622              	.L21:
 623 02a8 0123     		movs	r3, #1
 624              	.LVL55:
 245:/home/christoschristoforou/STM32Cube/Repository/STM32Cube_FW_F4_V1.27.0/Drivers/STM32F4xx_HAL_Driver/Src/stm32f4xx_hal_gpio.c ****         SYSCFG->EXTICR[position >> 2U] = temp;
 625              		.loc 1 245 29 view .LVU217
 626 02aa 57E7     		b	.L14
 627              	.LVL56:
 628              	.L22:
 245:/home/christoschristoforou/STM32Cube/Repository/STM32Cube_FW_F4_V1.27.0/Drivers/STM32F4xx_HAL_Driver/Src/stm32f4xx_hal_gpio.c ****         SYSCFG->EXTICR[position >> 2U] = temp;
 629              		.loc 1 245 29 view .LVU218
 630 02ac 0223     		movs	r3, #2
 631 02ae 55E7     		b	.L14
 632              	.L23:
 633 02b0 0323     		movs	r3, #3
 634 02b2 53E7     		b	.L14
 635              	.L24:
 636 02b4 0423     		movs	r3, #4
 637 02b6 51E7     		b	.L14
 638              	.L25:
 639 02b8 0523     		movs	r3, #5
 640 02ba 4FE7     		b	.L14
 641              	.LVL57:
 642              	.L31:
 281:/home/christoschristoforou/STM32Cube/Repository/STM32Cube_FW_F4_V1.27.0/Drivers/STM32F4xx_HAL_Driver/Src/stm32f4xx_hal_gpio.c ****       }
 282:/home/christoschristoforou/STM32Cube/Repository/STM32Cube_FW_F4_V1.27.0/Drivers/STM32F4xx_HAL_Driver/Src/stm32f4xx_hal_gpio.c ****     }
 283:/home/christoschristoforou/STM32Cube/Repository/STM32Cube_FW_F4_V1.27.0/Drivers/STM32F4xx_HAL_Driver/Src/stm32f4xx_hal_gpio.c ****   }
 284:/home/christoschristoforou/STM32Cube/Repository/STM32Cube_FW_F4_V1.27.0/Drivers/STM32F4xx_HAL_Driver/Src/stm32f4xx_hal_gpio.c **** }
 643              		.loc 1 284 1 view .LVU219
 644 02bc 02B0     		add	sp, sp, #8
 645              	.LCFI2:
 646              		.cfi_def_cfa_offset 24
 647              		@ sp needed
 648 02be BDE8F081 		pop	{r4, r5, r6, r7, r8, pc}
 649              	.LVL58:
 650              	.L37:
 651              		.loc 1 284 1 view .LVU220
 652 02c2 00BF     		.align	2
 653              	.L36:
ARM GAS  /tmp/ccoZx0qa.s 			page 20


 654 02c4 00000240 		.word	1073872896
 655 02c8 00000000 		.word	.LC0
 656 02cc 00380140 		.word	1073821696
 657 02d0 003C0140 		.word	1073822720
 658 02d4 00380240 		.word	1073887232
 659              		.cfi_endproc
 660              	.LFE130:
 662              		.section	.text.HAL_GPIO_DeInit,"ax",%progbits
 663              		.align	1
 664              		.global	HAL_GPIO_DeInit
 665              		.syntax unified
 666              		.thumb
 667              		.thumb_func
 668              		.fpu fpv4-sp-d16
 670              	HAL_GPIO_DeInit:
 671              	.LVL59:
 672              	.LFB131:
 285:/home/christoschristoforou/STM32Cube/Repository/STM32Cube_FW_F4_V1.27.0/Drivers/STM32F4xx_HAL_Driver/Src/stm32f4xx_hal_gpio.c **** 
 286:/home/christoschristoforou/STM32Cube/Repository/STM32Cube_FW_F4_V1.27.0/Drivers/STM32F4xx_HAL_Driver/Src/stm32f4xx_hal_gpio.c **** /**
 287:/home/christoschristoforou/STM32Cube/Repository/STM32Cube_FW_F4_V1.27.0/Drivers/STM32F4xx_HAL_Driver/Src/stm32f4xx_hal_gpio.c ****   * @brief  De-initializes the GPIOx peripheral registers to their default reset values.
 288:/home/christoschristoforou/STM32Cube/Repository/STM32Cube_FW_F4_V1.27.0/Drivers/STM32F4xx_HAL_Driver/Src/stm32f4xx_hal_gpio.c ****   * @param  GPIOx where x can be (A..K) to select the GPIO peripheral for STM32F429X device or
 289:/home/christoschristoforou/STM32Cube/Repository/STM32Cube_FW_F4_V1.27.0/Drivers/STM32F4xx_HAL_Driver/Src/stm32f4xx_hal_gpio.c ****   *                      x can be (A..I) to select the GPIO peripheral for STM32F40XX and STM32F427
 290:/home/christoschristoforou/STM32Cube/Repository/STM32Cube_FW_F4_V1.27.0/Drivers/STM32F4xx_HAL_Driver/Src/stm32f4xx_hal_gpio.c ****   * @param  GPIO_Pin specifies the port bit to be written.
 291:/home/christoschristoforou/STM32Cube/Repository/STM32Cube_FW_F4_V1.27.0/Drivers/STM32F4xx_HAL_Driver/Src/stm32f4xx_hal_gpio.c ****   *          This parameter can be one of GPIO_PIN_x where x can be (0..15).
 292:/home/christoschristoforou/STM32Cube/Repository/STM32Cube_FW_F4_V1.27.0/Drivers/STM32F4xx_HAL_Driver/Src/stm32f4xx_hal_gpio.c ****   * @retval None
 293:/home/christoschristoforou/STM32Cube/Repository/STM32Cube_FW_F4_V1.27.0/Drivers/STM32F4xx_HAL_Driver/Src/stm32f4xx_hal_gpio.c ****   */
 294:/home/christoschristoforou/STM32Cube/Repository/STM32Cube_FW_F4_V1.27.0/Drivers/STM32F4xx_HAL_Driver/Src/stm32f4xx_hal_gpio.c **** void HAL_GPIO_DeInit(GPIO_TypeDef  *GPIOx, uint32_t GPIO_Pin)
 295:/home/christoschristoforou/STM32Cube/Repository/STM32Cube_FW_F4_V1.27.0/Drivers/STM32F4xx_HAL_Driver/Src/stm32f4xx_hal_gpio.c **** {
 673              		.loc 1 295 1 is_stmt 1 view -0
 674              		.cfi_startproc
 675              		@ args = 0, pretend = 0, frame = 0
 676              		@ frame_needed = 0, uses_anonymous_args = 0
 677              		.loc 1 295 1 is_stmt 0 view .LVU222
 678 0000 F8B5     		push	{r3, r4, r5, r6, r7, lr}
 679              	.LCFI3:
 680              		.cfi_def_cfa_offset 24
 681              		.cfi_offset 3, -24
 682              		.cfi_offset 4, -20
 683              		.cfi_offset 5, -16
 684              		.cfi_offset 6, -12
 685              		.cfi_offset 7, -8
 686              		.cfi_offset 14, -4
 687 0002 0446     		mov	r4, r0
 688 0004 0D46     		mov	r5, r1
 296:/home/christoschristoforou/STM32Cube/Repository/STM32Cube_FW_F4_V1.27.0/Drivers/STM32F4xx_HAL_Driver/Src/stm32f4xx_hal_gpio.c ****   uint32_t position;
 689              		.loc 1 296 3 is_stmt 1 view .LVU223
 297:/home/christoschristoforou/STM32Cube/Repository/STM32Cube_FW_F4_V1.27.0/Drivers/STM32F4xx_HAL_Driver/Src/stm32f4xx_hal_gpio.c ****   uint32_t ioposition = 0x00U;
 690              		.loc 1 297 3 view .LVU224
 691              	.LVL60:
 298:/home/christoschristoforou/STM32Cube/Repository/STM32Cube_FW_F4_V1.27.0/Drivers/STM32F4xx_HAL_Driver/Src/stm32f4xx_hal_gpio.c ****   uint32_t iocurrent = 0x00U;
 692              		.loc 1 298 3 view .LVU225
 299:/home/christoschristoforou/STM32Cube/Repository/STM32Cube_FW_F4_V1.27.0/Drivers/STM32F4xx_HAL_Driver/Src/stm32f4xx_hal_gpio.c ****   uint32_t tmp = 0x00U;
 693              		.loc 1 299 3 view .LVU226
 300:/home/christoschristoforou/STM32Cube/Repository/STM32Cube_FW_F4_V1.27.0/Drivers/STM32F4xx_HAL_Driver/Src/stm32f4xx_hal_gpio.c **** 
 301:/home/christoschristoforou/STM32Cube/Repository/STM32Cube_FW_F4_V1.27.0/Drivers/STM32F4xx_HAL_Driver/Src/stm32f4xx_hal_gpio.c ****   /* Check the parameters */
 302:/home/christoschristoforou/STM32Cube/Repository/STM32Cube_FW_F4_V1.27.0/Drivers/STM32F4xx_HAL_Driver/Src/stm32f4xx_hal_gpio.c ****   assert_param(IS_GPIO_ALL_INSTANCE(GPIOx));
 694              		.loc 1 302 3 view .LVU227
ARM GAS  /tmp/ccoZx0qa.s 			page 21


 695 0006 564B     		ldr	r3, .L56
 696 0008 9842     		cmp	r0, r3
 697 000a 20D0     		beq	.L39
 698              		.loc 1 302 3 is_stmt 0 discriminator 1 view .LVU228
 699 000c 03F58063 		add	r3, r3, #1024
 700 0010 9842     		cmp	r0, r3
 701 0012 1CD0     		beq	.L39
 702              		.loc 1 302 3 discriminator 2 view .LVU229
 703 0014 03F58063 		add	r3, r3, #1024
 704 0018 9842     		cmp	r0, r3
 705 001a 18D0     		beq	.L39
 706              		.loc 1 302 3 discriminator 3 view .LVU230
 707 001c 03F58063 		add	r3, r3, #1024
 708 0020 9842     		cmp	r0, r3
 709 0022 14D0     		beq	.L39
 710              		.loc 1 302 3 discriminator 4 view .LVU231
 711 0024 03F58063 		add	r3, r3, #1024
 712 0028 9842     		cmp	r0, r3
 713 002a 10D0     		beq	.L39
 714              		.loc 1 302 3 discriminator 5 view .LVU232
 715 002c 03F58063 		add	r3, r3, #1024
 716 0030 9842     		cmp	r0, r3
 717 0032 0CD0     		beq	.L39
 718              		.loc 1 302 3 discriminator 6 view .LVU233
 719 0034 03F58063 		add	r3, r3, #1024
 720 0038 9842     		cmp	r0, r3
 721 003a 08D0     		beq	.L39
 722              		.loc 1 302 3 discriminator 7 view .LVU234
 723 003c 03F58063 		add	r3, r3, #1024
 724 0040 9842     		cmp	r0, r3
 725 0042 04D0     		beq	.L39
 726              		.loc 1 302 3 discriminator 8 view .LVU235
 727 0044 4FF49771 		mov	r1, #302
 728              	.LVL61:
 729              		.loc 1 302 3 discriminator 8 view .LVU236
 730 0048 4648     		ldr	r0, .L56+4
 731              	.LVL62:
 732              		.loc 1 302 3 discriminator 8 view .LVU237
 733 004a FFF7FEFF 		bl	assert_failed
 734              	.LVL63:
 735              	.L39:
 303:/home/christoschristoforou/STM32Cube/Repository/STM32Cube_FW_F4_V1.27.0/Drivers/STM32F4xx_HAL_Driver/Src/stm32f4xx_hal_gpio.c ****   
 304:/home/christoschristoforou/STM32Cube/Repository/STM32Cube_FW_F4_V1.27.0/Drivers/STM32F4xx_HAL_Driver/Src/stm32f4xx_hal_gpio.c ****   /* Configure the port pins */
 305:/home/christoschristoforou/STM32Cube/Repository/STM32Cube_FW_F4_V1.27.0/Drivers/STM32F4xx_HAL_Driver/Src/stm32f4xx_hal_gpio.c ****   for(position = 0U; position < GPIO_NUMBER; position++)
 306:/home/christoschristoforou/STM32Cube/Repository/STM32Cube_FW_F4_V1.27.0/Drivers/STM32F4xx_HAL_Driver/Src/stm32f4xx_hal_gpio.c ****   {
 307:/home/christoschristoforou/STM32Cube/Repository/STM32Cube_FW_F4_V1.27.0/Drivers/STM32F4xx_HAL_Driver/Src/stm32f4xx_hal_gpio.c ****     /* Get the IO position */
 308:/home/christoschristoforou/STM32Cube/Repository/STM32Cube_FW_F4_V1.27.0/Drivers/STM32F4xx_HAL_Driver/Src/stm32f4xx_hal_gpio.c ****     ioposition = 0x01U << position;
 309:/home/christoschristoforou/STM32Cube/Repository/STM32Cube_FW_F4_V1.27.0/Drivers/STM32F4xx_HAL_Driver/Src/stm32f4xx_hal_gpio.c ****     /* Get the current IO position */
 310:/home/christoschristoforou/STM32Cube/Repository/STM32Cube_FW_F4_V1.27.0/Drivers/STM32F4xx_HAL_Driver/Src/stm32f4xx_hal_gpio.c ****     iocurrent = (GPIO_Pin) & ioposition;
 311:/home/christoschristoforou/STM32Cube/Repository/STM32Cube_FW_F4_V1.27.0/Drivers/STM32F4xx_HAL_Driver/Src/stm32f4xx_hal_gpio.c **** 
 312:/home/christoschristoforou/STM32Cube/Repository/STM32Cube_FW_F4_V1.27.0/Drivers/STM32F4xx_HAL_Driver/Src/stm32f4xx_hal_gpio.c ****     if(iocurrent == ioposition)
 313:/home/christoschristoforou/STM32Cube/Repository/STM32Cube_FW_F4_V1.27.0/Drivers/STM32F4xx_HAL_Driver/Src/stm32f4xx_hal_gpio.c ****     {
 314:/home/christoschristoforou/STM32Cube/Repository/STM32Cube_FW_F4_V1.27.0/Drivers/STM32F4xx_HAL_Driver/Src/stm32f4xx_hal_gpio.c ****       /*------------------------- EXTI Mode Configuration --------------------*/
 315:/home/christoschristoforou/STM32Cube/Repository/STM32Cube_FW_F4_V1.27.0/Drivers/STM32F4xx_HAL_Driver/Src/stm32f4xx_hal_gpio.c ****       tmp = SYSCFG->EXTICR[position >> 2U];
 316:/home/christoschristoforou/STM32Cube/Repository/STM32Cube_FW_F4_V1.27.0/Drivers/STM32F4xx_HAL_Driver/Src/stm32f4xx_hal_gpio.c ****       tmp &= (0x0FU << (4U * (position & 0x03U)));
 317:/home/christoschristoforou/STM32Cube/Repository/STM32Cube_FW_F4_V1.27.0/Drivers/STM32F4xx_HAL_Driver/Src/stm32f4xx_hal_gpio.c ****       if(tmp == ((uint32_t)(GPIO_GET_INDEX(GPIOx)) << (4U * (position & 0x03U))))
 736              		.loc 1 317 29 discriminator 1 view .LVU238
ARM GAS  /tmp/ccoZx0qa.s 			page 22


 737 004e 0023     		movs	r3, #0
 738 0050 2BE0     		b	.L40
 739              	.LVL64:
 740              	.L55:
 741              		.loc 1 317 29 view .LVU239
 742 0052 0626     		movs	r6, #6
 743 0054 00E0     		b	.L42
 744              	.L45:
 745              		.loc 1 317 18 view .LVU240
 746 0056 0026     		movs	r6, #0
 747              	.L42:
 748              		.loc 1 317 52 discriminator 28 view .LVU241
 749 0058 06FA01F1 		lsl	r1, r6, r1
 750              		.loc 1 317 9 discriminator 28 view .LVU242
 751 005c 8142     		cmp	r1, r0
 752 005e 63D0     		beq	.L53
 753              	.LVL65:
 754              	.L43:
 318:/home/christoschristoforou/STM32Cube/Repository/STM32Cube_FW_F4_V1.27.0/Drivers/STM32F4xx_HAL_Driver/Src/stm32f4xx_hal_gpio.c ****       {
 319:/home/christoschristoforou/STM32Cube/Repository/STM32Cube_FW_F4_V1.27.0/Drivers/STM32F4xx_HAL_Driver/Src/stm32f4xx_hal_gpio.c ****         /* Clear EXTI line configuration */
 320:/home/christoschristoforou/STM32Cube/Repository/STM32Cube_FW_F4_V1.27.0/Drivers/STM32F4xx_HAL_Driver/Src/stm32f4xx_hal_gpio.c ****         EXTI->IMR &= ~((uint32_t)iocurrent);
 321:/home/christoschristoforou/STM32Cube/Repository/STM32Cube_FW_F4_V1.27.0/Drivers/STM32F4xx_HAL_Driver/Src/stm32f4xx_hal_gpio.c ****         EXTI->EMR &= ~((uint32_t)iocurrent);
 322:/home/christoschristoforou/STM32Cube/Repository/STM32Cube_FW_F4_V1.27.0/Drivers/STM32F4xx_HAL_Driver/Src/stm32f4xx_hal_gpio.c ****         
 323:/home/christoschristoforou/STM32Cube/Repository/STM32Cube_FW_F4_V1.27.0/Drivers/STM32F4xx_HAL_Driver/Src/stm32f4xx_hal_gpio.c ****         /* Clear Rising Falling edge configuration */
 324:/home/christoschristoforou/STM32Cube/Repository/STM32Cube_FW_F4_V1.27.0/Drivers/STM32F4xx_HAL_Driver/Src/stm32f4xx_hal_gpio.c ****         EXTI->FTSR &= ~((uint32_t)iocurrent);
 325:/home/christoschristoforou/STM32Cube/Repository/STM32Cube_FW_F4_V1.27.0/Drivers/STM32F4xx_HAL_Driver/Src/stm32f4xx_hal_gpio.c ****         EXTI->RTSR &= ~((uint32_t)iocurrent);
 326:/home/christoschristoforou/STM32Cube/Repository/STM32Cube_FW_F4_V1.27.0/Drivers/STM32F4xx_HAL_Driver/Src/stm32f4xx_hal_gpio.c **** 
 327:/home/christoschristoforou/STM32Cube/Repository/STM32Cube_FW_F4_V1.27.0/Drivers/STM32F4xx_HAL_Driver/Src/stm32f4xx_hal_gpio.c ****         /* Configure the External Interrupt or event for the current IO */
 328:/home/christoschristoforou/STM32Cube/Repository/STM32Cube_FW_F4_V1.27.0/Drivers/STM32F4xx_HAL_Driver/Src/stm32f4xx_hal_gpio.c ****         tmp = 0x0FU << (4U * (position & 0x03U));
 329:/home/christoschristoforou/STM32Cube/Repository/STM32Cube_FW_F4_V1.27.0/Drivers/STM32F4xx_HAL_Driver/Src/stm32f4xx_hal_gpio.c ****         SYSCFG->EXTICR[position >> 2U] &= ~tmp;
 330:/home/christoschristoforou/STM32Cube/Repository/STM32Cube_FW_F4_V1.27.0/Drivers/STM32F4xx_HAL_Driver/Src/stm32f4xx_hal_gpio.c ****       }
 331:/home/christoschristoforou/STM32Cube/Repository/STM32Cube_FW_F4_V1.27.0/Drivers/STM32F4xx_HAL_Driver/Src/stm32f4xx_hal_gpio.c **** 
 332:/home/christoschristoforou/STM32Cube/Repository/STM32Cube_FW_F4_V1.27.0/Drivers/STM32F4xx_HAL_Driver/Src/stm32f4xx_hal_gpio.c ****       /*------------------------- GPIO Mode Configuration --------------------*/
 333:/home/christoschristoforou/STM32Cube/Repository/STM32Cube_FW_F4_V1.27.0/Drivers/STM32F4xx_HAL_Driver/Src/stm32f4xx_hal_gpio.c ****       /* Configure IO Direction in Input Floating Mode */
 334:/home/christoschristoforou/STM32Cube/Repository/STM32Cube_FW_F4_V1.27.0/Drivers/STM32F4xx_HAL_Driver/Src/stm32f4xx_hal_gpio.c ****       GPIOx->MODER &= ~(GPIO_MODER_MODER0 << (position * 2U));
 755              		.loc 1 334 7 is_stmt 1 view .LVU243
 756              		.loc 1 334 20 is_stmt 0 view .LVU244
 757 0060 2068     		ldr	r0, [r4]
 758              		.loc 1 334 56 view .LVU245
 759 0062 5900     		lsls	r1, r3, #1
 760              		.loc 1 334 43 view .LVU246
 761 0064 0326     		movs	r6, #3
 762 0066 06FA01F1 		lsl	r1, r6, r1
 763              		.loc 1 334 20 view .LVU247
 764 006a 20EA0100 		bic	r0, r0, r1
 765 006e 2060     		str	r0, [r4]
 335:/home/christoschristoforou/STM32Cube/Repository/STM32Cube_FW_F4_V1.27.0/Drivers/STM32F4xx_HAL_Driver/Src/stm32f4xx_hal_gpio.c **** 
 336:/home/christoschristoforou/STM32Cube/Repository/STM32Cube_FW_F4_V1.27.0/Drivers/STM32F4xx_HAL_Driver/Src/stm32f4xx_hal_gpio.c ****       /* Configure the default Alternate Function in current IO */
 337:/home/christoschristoforou/STM32Cube/Repository/STM32Cube_FW_F4_V1.27.0/Drivers/STM32F4xx_HAL_Driver/Src/stm32f4xx_hal_gpio.c ****       GPIOx->AFR[position >> 3U] &= ~(0xFU << ((uint32_t)(position & 0x07U) * 4U)) ;
 766              		.loc 1 337 7 is_stmt 1 view .LVU248
 767              		.loc 1 337 34 is_stmt 0 view .LVU249
 768 0070 23FA06F0 		lsr	r0, r3, r6
 769 0074 0830     		adds	r0, r0, #8
 770 0076 54F82060 		ldr	r6, [r4, r0, lsl #2]
 771              		.loc 1 337 48 view .LVU250
 772 007a 03F00707 		and	r7, r3, #7
 773              		.loc 1 337 77 view .LVU251
ARM GAS  /tmp/ccoZx0qa.s 			page 23


 774 007e 4FEA870C 		lsl	ip, r7, #2
 775              		.loc 1 337 44 view .LVU252
 776 0082 0F27     		movs	r7, #15
 777 0084 07FA0CF7 		lsl	r7, r7, ip
 778              		.loc 1 337 34 view .LVU253
 779 0088 26EA0706 		bic	r6, r6, r7
 780 008c 44F82060 		str	r6, [r4, r0, lsl #2]
 338:/home/christoschristoforou/STM32Cube/Repository/STM32Cube_FW_F4_V1.27.0/Drivers/STM32F4xx_HAL_Driver/Src/stm32f4xx_hal_gpio.c **** 
 339:/home/christoschristoforou/STM32Cube/Repository/STM32Cube_FW_F4_V1.27.0/Drivers/STM32F4xx_HAL_Driver/Src/stm32f4xx_hal_gpio.c ****       /* Deactivate the Pull-up and Pull-down resistor for the current IO */
 340:/home/christoschristoforou/STM32Cube/Repository/STM32Cube_FW_F4_V1.27.0/Drivers/STM32F4xx_HAL_Driver/Src/stm32f4xx_hal_gpio.c ****       GPIOx->PUPDR &= ~(GPIO_PUPDR_PUPDR0 << (position * 2U));
 781              		.loc 1 340 7 is_stmt 1 view .LVU254
 782              		.loc 1 340 20 is_stmt 0 view .LVU255
 783 0090 E068     		ldr	r0, [r4, #12]
 784 0092 20EA0100 		bic	r0, r0, r1
 785 0096 E060     		str	r0, [r4, #12]
 341:/home/christoschristoforou/STM32Cube/Repository/STM32Cube_FW_F4_V1.27.0/Drivers/STM32F4xx_HAL_Driver/Src/stm32f4xx_hal_gpio.c **** 
 342:/home/christoschristoforou/STM32Cube/Repository/STM32Cube_FW_F4_V1.27.0/Drivers/STM32F4xx_HAL_Driver/Src/stm32f4xx_hal_gpio.c ****       /* Configure the default value IO Output Type */
 343:/home/christoschristoforou/STM32Cube/Repository/STM32Cube_FW_F4_V1.27.0/Drivers/STM32F4xx_HAL_Driver/Src/stm32f4xx_hal_gpio.c ****       GPIOx->OTYPER  &= ~(GPIO_OTYPER_OT_0 << position) ;
 786              		.loc 1 343 7 is_stmt 1 view .LVU256
 787              		.loc 1 343 22 is_stmt 0 view .LVU257
 788 0098 6068     		ldr	r0, [r4, #4]
 789 009a 20EA0202 		bic	r2, r0, r2
 790              	.LVL66:
 791              		.loc 1 343 22 view .LVU258
 792 009e 6260     		str	r2, [r4, #4]
 344:/home/christoschristoforou/STM32Cube/Repository/STM32Cube_FW_F4_V1.27.0/Drivers/STM32F4xx_HAL_Driver/Src/stm32f4xx_hal_gpio.c **** 
 345:/home/christoschristoforou/STM32Cube/Repository/STM32Cube_FW_F4_V1.27.0/Drivers/STM32F4xx_HAL_Driver/Src/stm32f4xx_hal_gpio.c ****       /* Configure the default value for IO Speed */
 346:/home/christoschristoforou/STM32Cube/Repository/STM32Cube_FW_F4_V1.27.0/Drivers/STM32F4xx_HAL_Driver/Src/stm32f4xx_hal_gpio.c ****       GPIOx->OSPEEDR &= ~(GPIO_OSPEEDER_OSPEEDR0 << (position * 2U));
 793              		.loc 1 346 7 is_stmt 1 view .LVU259
 794              		.loc 1 346 22 is_stmt 0 view .LVU260
 795 00a0 A268     		ldr	r2, [r4, #8]
 796 00a2 22EA0101 		bic	r1, r2, r1
 797 00a6 A160     		str	r1, [r4, #8]
 798              	.L41:
 305:/home/christoschristoforou/STM32Cube/Repository/STM32Cube_FW_F4_V1.27.0/Drivers/STM32F4xx_HAL_Driver/Src/stm32f4xx_hal_gpio.c ****   {
 799              		.loc 1 305 46 is_stmt 1 discriminator 2 view .LVU261
 305:/home/christoschristoforou/STM32Cube/Repository/STM32Cube_FW_F4_V1.27.0/Drivers/STM32F4xx_HAL_Driver/Src/stm32f4xx_hal_gpio.c ****   {
 800              		.loc 1 305 54 is_stmt 0 discriminator 2 view .LVU262
 801 00a8 0133     		adds	r3, r3, #1
 802              	.LVL67:
 803              	.L40:
 305:/home/christoschristoforou/STM32Cube/Repository/STM32Cube_FW_F4_V1.27.0/Drivers/STM32F4xx_HAL_Driver/Src/stm32f4xx_hal_gpio.c ****   {
 804              		.loc 1 305 22 is_stmt 1 discriminator 1 view .LVU263
 305:/home/christoschristoforou/STM32Cube/Repository/STM32Cube_FW_F4_V1.27.0/Drivers/STM32F4xx_HAL_Driver/Src/stm32f4xx_hal_gpio.c ****   {
 805              		.loc 1 305 3 is_stmt 0 discriminator 1 view .LVU264
 806 00aa 0F2B     		cmp	r3, #15
 807 00ac 57D8     		bhi	.L54
 308:/home/christoschristoforou/STM32Cube/Repository/STM32Cube_FW_F4_V1.27.0/Drivers/STM32F4xx_HAL_Driver/Src/stm32f4xx_hal_gpio.c ****     /* Get the current IO position */
 808              		.loc 1 308 5 is_stmt 1 view .LVU265
 308:/home/christoschristoforou/STM32Cube/Repository/STM32Cube_FW_F4_V1.27.0/Drivers/STM32F4xx_HAL_Driver/Src/stm32f4xx_hal_gpio.c ****     /* Get the current IO position */
 809              		.loc 1 308 16 is_stmt 0 view .LVU266
 810 00ae 0122     		movs	r2, #1
 811 00b0 9A40     		lsls	r2, r2, r3
 812              	.LVL68:
 310:/home/christoschristoforou/STM32Cube/Repository/STM32Cube_FW_F4_V1.27.0/Drivers/STM32F4xx_HAL_Driver/Src/stm32f4xx_hal_gpio.c **** 
 813              		.loc 1 310 5 is_stmt 1 view .LVU267
 310:/home/christoschristoforou/STM32Cube/Repository/STM32Cube_FW_F4_V1.27.0/Drivers/STM32F4xx_HAL_Driver/Src/stm32f4xx_hal_gpio.c **** 
ARM GAS  /tmp/ccoZx0qa.s 			page 24


 814              		.loc 1 310 15 is_stmt 0 view .LVU268
 815 00b2 02EA0507 		and	r7, r2, r5
 816              	.LVL69:
 312:/home/christoschristoforou/STM32Cube/Repository/STM32Cube_FW_F4_V1.27.0/Drivers/STM32F4xx_HAL_Driver/Src/stm32f4xx_hal_gpio.c ****     {
 817              		.loc 1 312 5 is_stmt 1 view .LVU269
 312:/home/christoschristoforou/STM32Cube/Repository/STM32Cube_FW_F4_V1.27.0/Drivers/STM32F4xx_HAL_Driver/Src/stm32f4xx_hal_gpio.c ****     {
 818              		.loc 1 312 7 is_stmt 0 view .LVU270
 819 00b6 32EA0501 		bics	r1, r2, r5
 820 00ba F5D1     		bne	.L41
 315:/home/christoschristoforou/STM32Cube/Repository/STM32Cube_FW_F4_V1.27.0/Drivers/STM32F4xx_HAL_Driver/Src/stm32f4xx_hal_gpio.c ****       tmp &= (0x0FU << (4U * (position & 0x03U)));
 821              		.loc 1 315 7 is_stmt 1 view .LVU271
 315:/home/christoschristoforou/STM32Cube/Repository/STM32Cube_FW_F4_V1.27.0/Drivers/STM32F4xx_HAL_Driver/Src/stm32f4xx_hal_gpio.c ****       tmp &= (0x0FU << (4U * (position & 0x03U)));
 822              		.loc 1 315 37 is_stmt 0 view .LVU272
 823 00bc 4FEA930C 		lsr	ip, r3, #2
 315:/home/christoschristoforou/STM32Cube/Repository/STM32Cube_FW_F4_V1.27.0/Drivers/STM32F4xx_HAL_Driver/Src/stm32f4xx_hal_gpio.c ****       tmp &= (0x0FU << (4U * (position & 0x03U)));
 824              		.loc 1 315 11 view .LVU273
 825 00c0 0CF10200 		add	r0, ip, #2
 826 00c4 2849     		ldr	r1, .L56+8
 827 00c6 51F82000 		ldr	r0, [r1, r0, lsl #2]
 828              	.LVL70:
 316:/home/christoschristoforou/STM32Cube/Repository/STM32Cube_FW_F4_V1.27.0/Drivers/STM32F4xx_HAL_Driver/Src/stm32f4xx_hal_gpio.c ****       if(tmp == ((uint32_t)(GPIO_GET_INDEX(GPIOx)) << (4U * (position & 0x03U))))
 829              		.loc 1 316 7 is_stmt 1 view .LVU274
 316:/home/christoschristoforou/STM32Cube/Repository/STM32Cube_FW_F4_V1.27.0/Drivers/STM32F4xx_HAL_Driver/Src/stm32f4xx_hal_gpio.c ****       if(tmp == ((uint32_t)(GPIO_GET_INDEX(GPIOx)) << (4U * (position & 0x03U))))
 830              		.loc 1 316 40 is_stmt 0 view .LVU275
 831 00ca 03F00301 		and	r1, r3, #3
 316:/home/christoschristoforou/STM32Cube/Repository/STM32Cube_FW_F4_V1.27.0/Drivers/STM32F4xx_HAL_Driver/Src/stm32f4xx_hal_gpio.c ****       if(tmp == ((uint32_t)(GPIO_GET_INDEX(GPIOx)) << (4U * (position & 0x03U))))
 832              		.loc 1 316 28 view .LVU276
 833 00ce 8900     		lsls	r1, r1, #2
 316:/home/christoschristoforou/STM32Cube/Repository/STM32Cube_FW_F4_V1.27.0/Drivers/STM32F4xx_HAL_Driver/Src/stm32f4xx_hal_gpio.c ****       if(tmp == ((uint32_t)(GPIO_GET_INDEX(GPIOx)) << (4U * (position & 0x03U))))
 834              		.loc 1 316 21 view .LVU277
 835 00d0 0F26     		movs	r6, #15
 836 00d2 06FA01FE 		lsl	lr, r6, r1
 316:/home/christoschristoforou/STM32Cube/Repository/STM32Cube_FW_F4_V1.27.0/Drivers/STM32F4xx_HAL_Driver/Src/stm32f4xx_hal_gpio.c ****       if(tmp == ((uint32_t)(GPIO_GET_INDEX(GPIOx)) << (4U * (position & 0x03U))))
 837              		.loc 1 316 11 view .LVU278
 838 00d6 0EEA0000 		and	r0, lr, r0
 839              	.LVL71:
 317:/home/christoschristoforou/STM32Cube/Repository/STM32Cube_FW_F4_V1.27.0/Drivers/STM32F4xx_HAL_Driver/Src/stm32f4xx_hal_gpio.c ****       {
 840              		.loc 1 317 7 is_stmt 1 view .LVU279
 317:/home/christoschristoforou/STM32Cube/Repository/STM32Cube_FW_F4_V1.27.0/Drivers/STM32F4xx_HAL_Driver/Src/stm32f4xx_hal_gpio.c ****       {
 841              		.loc 1 317 18 is_stmt 0 view .LVU280
 842 00da 214E     		ldr	r6, .L56
 843 00dc B442     		cmp	r4, r6
 844 00de BAD0     		beq	.L45
 317:/home/christoschristoforou/STM32Cube/Repository/STM32Cube_FW_F4_V1.27.0/Drivers/STM32F4xx_HAL_Driver/Src/stm32f4xx_hal_gpio.c ****       {
 845              		.loc 1 317 29 discriminator 1 view .LVU281
 846 00e0 06F58066 		add	r6, r6, #1024
 847 00e4 B442     		cmp	r4, r6
 848 00e6 15D0     		beq	.L46
 317:/home/christoschristoforou/STM32Cube/Repository/STM32Cube_FW_F4_V1.27.0/Drivers/STM32F4xx_HAL_Driver/Src/stm32f4xx_hal_gpio.c ****       {
 849              		.loc 1 317 29 discriminator 3 view .LVU282
 850 00e8 06F58066 		add	r6, r6, #1024
 851 00ec B442     		cmp	r4, r6
 852 00ee 13D0     		beq	.L47
 317:/home/christoschristoforou/STM32Cube/Repository/STM32Cube_FW_F4_V1.27.0/Drivers/STM32F4xx_HAL_Driver/Src/stm32f4xx_hal_gpio.c ****       {
 853              		.loc 1 317 29 discriminator 5 view .LVU283
 854 00f0 06F58066 		add	r6, r6, #1024
 855 00f4 B442     		cmp	r4, r6
ARM GAS  /tmp/ccoZx0qa.s 			page 25


 856 00f6 11D0     		beq	.L48
 317:/home/christoschristoforou/STM32Cube/Repository/STM32Cube_FW_F4_V1.27.0/Drivers/STM32F4xx_HAL_Driver/Src/stm32f4xx_hal_gpio.c ****       {
 857              		.loc 1 317 29 discriminator 7 view .LVU284
 858 00f8 06F58066 		add	r6, r6, #1024
 859 00fc B442     		cmp	r4, r6
 860 00fe 0FD0     		beq	.L49
 317:/home/christoschristoforou/STM32Cube/Repository/STM32Cube_FW_F4_V1.27.0/Drivers/STM32F4xx_HAL_Driver/Src/stm32f4xx_hal_gpio.c ****       {
 861              		.loc 1 317 29 discriminator 9 view .LVU285
 862 0100 06F58066 		add	r6, r6, #1024
 863 0104 B442     		cmp	r4, r6
 864 0106 0DD0     		beq	.L50
 317:/home/christoschristoforou/STM32Cube/Repository/STM32Cube_FW_F4_V1.27.0/Drivers/STM32F4xx_HAL_Driver/Src/stm32f4xx_hal_gpio.c ****       {
 865              		.loc 1 317 29 discriminator 11 view .LVU286
 866 0108 06F58066 		add	r6, r6, #1024
 867 010c B442     		cmp	r4, r6
 868 010e A0D0     		beq	.L55
 317:/home/christoschristoforou/STM32Cube/Repository/STM32Cube_FW_F4_V1.27.0/Drivers/STM32F4xx_HAL_Driver/Src/stm32f4xx_hal_gpio.c ****       {
 869              		.loc 1 317 29 view .LVU287
 870 0110 0726     		movs	r6, #7
 871 0112 A1E7     		b	.L42
 872              	.L46:
 873 0114 0126     		movs	r6, #1
 874 0116 9FE7     		b	.L42
 875              	.L47:
 876 0118 0226     		movs	r6, #2
 877 011a 9DE7     		b	.L42
 878              	.L48:
 879 011c 0326     		movs	r6, #3
 880 011e 9BE7     		b	.L42
 881              	.L49:
 882 0120 0426     		movs	r6, #4
 883 0122 99E7     		b	.L42
 884              	.L50:
 885 0124 0526     		movs	r6, #5
 886 0126 97E7     		b	.L42
 887              	.L53:
 320:/home/christoschristoforou/STM32Cube/Repository/STM32Cube_FW_F4_V1.27.0/Drivers/STM32F4xx_HAL_Driver/Src/stm32f4xx_hal_gpio.c ****         EXTI->EMR &= ~((uint32_t)iocurrent);
 888              		.loc 1 320 9 is_stmt 1 view .LVU288
 320:/home/christoschristoforou/STM32Cube/Repository/STM32Cube_FW_F4_V1.27.0/Drivers/STM32F4xx_HAL_Driver/Src/stm32f4xx_hal_gpio.c ****         EXTI->EMR &= ~((uint32_t)iocurrent);
 889              		.loc 1 320 19 is_stmt 0 view .LVU289
 890 0128 1049     		ldr	r1, .L56+12
 891 012a 0868     		ldr	r0, [r1]
 892              	.LVL72:
 320:/home/christoschristoforou/STM32Cube/Repository/STM32Cube_FW_F4_V1.27.0/Drivers/STM32F4xx_HAL_Driver/Src/stm32f4xx_hal_gpio.c ****         EXTI->EMR &= ~((uint32_t)iocurrent);
 893              		.loc 1 320 19 view .LVU290
 894 012c 20EA0700 		bic	r0, r0, r7
 895 0130 0860     		str	r0, [r1]
 321:/home/christoschristoforou/STM32Cube/Repository/STM32Cube_FW_F4_V1.27.0/Drivers/STM32F4xx_HAL_Driver/Src/stm32f4xx_hal_gpio.c ****         
 896              		.loc 1 321 9 is_stmt 1 view .LVU291
 321:/home/christoschristoforou/STM32Cube/Repository/STM32Cube_FW_F4_V1.27.0/Drivers/STM32F4xx_HAL_Driver/Src/stm32f4xx_hal_gpio.c ****         
 897              		.loc 1 321 19 is_stmt 0 view .LVU292
 898 0132 4868     		ldr	r0, [r1, #4]
 899 0134 20EA0700 		bic	r0, r0, r7
 900 0138 4860     		str	r0, [r1, #4]
 324:/home/christoschristoforou/STM32Cube/Repository/STM32Cube_FW_F4_V1.27.0/Drivers/STM32F4xx_HAL_Driver/Src/stm32f4xx_hal_gpio.c ****         EXTI->RTSR &= ~((uint32_t)iocurrent);
 901              		.loc 1 324 9 is_stmt 1 view .LVU293
 324:/home/christoschristoforou/STM32Cube/Repository/STM32Cube_FW_F4_V1.27.0/Drivers/STM32F4xx_HAL_Driver/Src/stm32f4xx_hal_gpio.c ****         EXTI->RTSR &= ~((uint32_t)iocurrent);
ARM GAS  /tmp/ccoZx0qa.s 			page 26


 902              		.loc 1 324 20 is_stmt 0 view .LVU294
 903 013a C868     		ldr	r0, [r1, #12]
 904 013c 20EA0700 		bic	r0, r0, r7
 905 0140 C860     		str	r0, [r1, #12]
 325:/home/christoschristoforou/STM32Cube/Repository/STM32Cube_FW_F4_V1.27.0/Drivers/STM32F4xx_HAL_Driver/Src/stm32f4xx_hal_gpio.c **** 
 906              		.loc 1 325 9 is_stmt 1 view .LVU295
 325:/home/christoschristoforou/STM32Cube/Repository/STM32Cube_FW_F4_V1.27.0/Drivers/STM32F4xx_HAL_Driver/Src/stm32f4xx_hal_gpio.c **** 
 907              		.loc 1 325 20 is_stmt 0 view .LVU296
 908 0142 8868     		ldr	r0, [r1, #8]
 909 0144 20EA0707 		bic	r7, r0, r7
 910              	.LVL73:
 325:/home/christoschristoforou/STM32Cube/Repository/STM32Cube_FW_F4_V1.27.0/Drivers/STM32F4xx_HAL_Driver/Src/stm32f4xx_hal_gpio.c **** 
 911              		.loc 1 325 20 view .LVU297
 912 0148 8F60     		str	r7, [r1, #8]
 328:/home/christoschristoforou/STM32Cube/Repository/STM32Cube_FW_F4_V1.27.0/Drivers/STM32F4xx_HAL_Driver/Src/stm32f4xx_hal_gpio.c ****         SYSCFG->EXTICR[position >> 2U] &= ~tmp;
 913              		.loc 1 328 9 is_stmt 1 view .LVU298
 914              	.LVL74:
 329:/home/christoschristoforou/STM32Cube/Repository/STM32Cube_FW_F4_V1.27.0/Drivers/STM32F4xx_HAL_Driver/Src/stm32f4xx_hal_gpio.c ****       }
 915              		.loc 1 329 9 view .LVU299
 329:/home/christoschristoforou/STM32Cube/Repository/STM32Cube_FW_F4_V1.27.0/Drivers/STM32F4xx_HAL_Driver/Src/stm32f4xx_hal_gpio.c ****       }
 916              		.loc 1 329 40 is_stmt 0 view .LVU300
 917 014a 0748     		ldr	r0, .L56+8
 918 014c 0CF10201 		add	r1, ip, #2
 919 0150 50F82160 		ldr	r6, [r0, r1, lsl #2]
 920 0154 26EA0E06 		bic	r6, r6, lr
 921 0158 40F82160 		str	r6, [r0, r1, lsl #2]
 922 015c 80E7     		b	.L43
 923              	.LVL75:
 924              	.L54:
 347:/home/christoschristoforou/STM32Cube/Repository/STM32Cube_FW_F4_V1.27.0/Drivers/STM32F4xx_HAL_Driver/Src/stm32f4xx_hal_gpio.c ****     }
 348:/home/christoschristoforou/STM32Cube/Repository/STM32Cube_FW_F4_V1.27.0/Drivers/STM32F4xx_HAL_Driver/Src/stm32f4xx_hal_gpio.c ****   }
 349:/home/christoschristoforou/STM32Cube/Repository/STM32Cube_FW_F4_V1.27.0/Drivers/STM32F4xx_HAL_Driver/Src/stm32f4xx_hal_gpio.c **** }
 925              		.loc 1 349 1 view .LVU301
 926 015e F8BD     		pop	{r3, r4, r5, r6, r7, pc}
 927              	.LVL76:
 928              	.L57:
 929              		.loc 1 349 1 view .LVU302
 930              		.align	2
 931              	.L56:
 932 0160 00000240 		.word	1073872896
 933 0164 00000000 		.word	.LC0
 934 0168 00380140 		.word	1073821696
 935 016c 003C0140 		.word	1073822720
 936              		.cfi_endproc
 937              	.LFE131:
 939              		.section	.text.HAL_GPIO_ReadPin,"ax",%progbits
 940              		.align	1
 941              		.global	HAL_GPIO_ReadPin
 942              		.syntax unified
 943              		.thumb
 944              		.thumb_func
 945              		.fpu fpv4-sp-d16
 947              	HAL_GPIO_ReadPin:
 948              	.LVL77:
 949              	.LFB132:
 350:/home/christoschristoforou/STM32Cube/Repository/STM32Cube_FW_F4_V1.27.0/Drivers/STM32F4xx_HAL_Driver/Src/stm32f4xx_hal_gpio.c **** 
 351:/home/christoschristoforou/STM32Cube/Repository/STM32Cube_FW_F4_V1.27.0/Drivers/STM32F4xx_HAL_Driver/Src/stm32f4xx_hal_gpio.c **** /**
ARM GAS  /tmp/ccoZx0qa.s 			page 27


 352:/home/christoschristoforou/STM32Cube/Repository/STM32Cube_FW_F4_V1.27.0/Drivers/STM32F4xx_HAL_Driver/Src/stm32f4xx_hal_gpio.c ****   * @}
 353:/home/christoschristoforou/STM32Cube/Repository/STM32Cube_FW_F4_V1.27.0/Drivers/STM32F4xx_HAL_Driver/Src/stm32f4xx_hal_gpio.c ****   */
 354:/home/christoschristoforou/STM32Cube/Repository/STM32Cube_FW_F4_V1.27.0/Drivers/STM32F4xx_HAL_Driver/Src/stm32f4xx_hal_gpio.c **** 
 355:/home/christoschristoforou/STM32Cube/Repository/STM32Cube_FW_F4_V1.27.0/Drivers/STM32F4xx_HAL_Driver/Src/stm32f4xx_hal_gpio.c **** /** @defgroup GPIO_Exported_Functions_Group2 IO operation functions 
 356:/home/christoschristoforou/STM32Cube/Repository/STM32Cube_FW_F4_V1.27.0/Drivers/STM32F4xx_HAL_Driver/Src/stm32f4xx_hal_gpio.c ****   *  @brief   GPIO Read and Write
 357:/home/christoschristoforou/STM32Cube/Repository/STM32Cube_FW_F4_V1.27.0/Drivers/STM32F4xx_HAL_Driver/Src/stm32f4xx_hal_gpio.c ****   *
 358:/home/christoschristoforou/STM32Cube/Repository/STM32Cube_FW_F4_V1.27.0/Drivers/STM32F4xx_HAL_Driver/Src/stm32f4xx_hal_gpio.c **** @verbatim
 359:/home/christoschristoforou/STM32Cube/Repository/STM32Cube_FW_F4_V1.27.0/Drivers/STM32F4xx_HAL_Driver/Src/stm32f4xx_hal_gpio.c ****  ===============================================================================
 360:/home/christoschristoforou/STM32Cube/Repository/STM32Cube_FW_F4_V1.27.0/Drivers/STM32F4xx_HAL_Driver/Src/stm32f4xx_hal_gpio.c ****                        ##### IO operation functions #####
 361:/home/christoschristoforou/STM32Cube/Repository/STM32Cube_FW_F4_V1.27.0/Drivers/STM32F4xx_HAL_Driver/Src/stm32f4xx_hal_gpio.c ****  ===============================================================================
 362:/home/christoschristoforou/STM32Cube/Repository/STM32Cube_FW_F4_V1.27.0/Drivers/STM32F4xx_HAL_Driver/Src/stm32f4xx_hal_gpio.c **** 
 363:/home/christoschristoforou/STM32Cube/Repository/STM32Cube_FW_F4_V1.27.0/Drivers/STM32F4xx_HAL_Driver/Src/stm32f4xx_hal_gpio.c **** @endverbatim
 364:/home/christoschristoforou/STM32Cube/Repository/STM32Cube_FW_F4_V1.27.0/Drivers/STM32F4xx_HAL_Driver/Src/stm32f4xx_hal_gpio.c ****   * @{
 365:/home/christoschristoforou/STM32Cube/Repository/STM32Cube_FW_F4_V1.27.0/Drivers/STM32F4xx_HAL_Driver/Src/stm32f4xx_hal_gpio.c ****   */
 366:/home/christoschristoforou/STM32Cube/Repository/STM32Cube_FW_F4_V1.27.0/Drivers/STM32F4xx_HAL_Driver/Src/stm32f4xx_hal_gpio.c **** 
 367:/home/christoschristoforou/STM32Cube/Repository/STM32Cube_FW_F4_V1.27.0/Drivers/STM32F4xx_HAL_Driver/Src/stm32f4xx_hal_gpio.c **** /**
 368:/home/christoschristoforou/STM32Cube/Repository/STM32Cube_FW_F4_V1.27.0/Drivers/STM32F4xx_HAL_Driver/Src/stm32f4xx_hal_gpio.c ****   * @brief  Reads the specified input port pin.
 369:/home/christoschristoforou/STM32Cube/Repository/STM32Cube_FW_F4_V1.27.0/Drivers/STM32F4xx_HAL_Driver/Src/stm32f4xx_hal_gpio.c ****   * @param  GPIOx where x can be (A..K) to select the GPIO peripheral for STM32F429X device or
 370:/home/christoschristoforou/STM32Cube/Repository/STM32Cube_FW_F4_V1.27.0/Drivers/STM32F4xx_HAL_Driver/Src/stm32f4xx_hal_gpio.c ****   *                      x can be (A..I) to select the GPIO peripheral for STM32F40XX and STM32F427
 371:/home/christoschristoforou/STM32Cube/Repository/STM32Cube_FW_F4_V1.27.0/Drivers/STM32F4xx_HAL_Driver/Src/stm32f4xx_hal_gpio.c ****   * @param  GPIO_Pin specifies the port bit to read.
 372:/home/christoschristoforou/STM32Cube/Repository/STM32Cube_FW_F4_V1.27.0/Drivers/STM32F4xx_HAL_Driver/Src/stm32f4xx_hal_gpio.c ****   *         This parameter can be GPIO_PIN_x where x can be (0..15).
 373:/home/christoschristoforou/STM32Cube/Repository/STM32Cube_FW_F4_V1.27.0/Drivers/STM32F4xx_HAL_Driver/Src/stm32f4xx_hal_gpio.c ****   * @retval The input port pin value.
 374:/home/christoschristoforou/STM32Cube/Repository/STM32Cube_FW_F4_V1.27.0/Drivers/STM32F4xx_HAL_Driver/Src/stm32f4xx_hal_gpio.c ****   */
 375:/home/christoschristoforou/STM32Cube/Repository/STM32Cube_FW_F4_V1.27.0/Drivers/STM32F4xx_HAL_Driver/Src/stm32f4xx_hal_gpio.c **** GPIO_PinState HAL_GPIO_ReadPin(GPIO_TypeDef* GPIOx, uint16_t GPIO_Pin)
 376:/home/christoschristoforou/STM32Cube/Repository/STM32Cube_FW_F4_V1.27.0/Drivers/STM32F4xx_HAL_Driver/Src/stm32f4xx_hal_gpio.c **** {
 950              		.loc 1 376 1 is_stmt 1 view -0
 951              		.cfi_startproc
 952              		@ args = 0, pretend = 0, frame = 0
 953              		@ frame_needed = 0, uses_anonymous_args = 0
 954              		.loc 1 376 1 is_stmt 0 view .LVU304
 955 0000 38B5     		push	{r3, r4, r5, lr}
 956              	.LCFI4:
 957              		.cfi_def_cfa_offset 16
 958              		.cfi_offset 3, -16
 959              		.cfi_offset 4, -12
 960              		.cfi_offset 5, -8
 961              		.cfi_offset 14, -4
 962 0002 0446     		mov	r4, r0
 377:/home/christoschristoforou/STM32Cube/Repository/STM32Cube_FW_F4_V1.27.0/Drivers/STM32F4xx_HAL_Driver/Src/stm32f4xx_hal_gpio.c ****   GPIO_PinState bitstatus;
 963              		.loc 1 377 3 is_stmt 1 view .LVU305
 378:/home/christoschristoforou/STM32Cube/Repository/STM32Cube_FW_F4_V1.27.0/Drivers/STM32F4xx_HAL_Driver/Src/stm32f4xx_hal_gpio.c **** 
 379:/home/christoschristoforou/STM32Cube/Repository/STM32Cube_FW_F4_V1.27.0/Drivers/STM32F4xx_HAL_Driver/Src/stm32f4xx_hal_gpio.c ****   /* Check the parameters */
 380:/home/christoschristoforou/STM32Cube/Repository/STM32Cube_FW_F4_V1.27.0/Drivers/STM32F4xx_HAL_Driver/Src/stm32f4xx_hal_gpio.c ****   assert_param(IS_GPIO_PIN(GPIO_Pin));
 964              		.loc 1 380 3 view .LVU306
 965 0004 0D46     		mov	r5, r1
 966 0006 21B1     		cbz	r1, .L64
 967              	.LVL78:
 968              	.L60:
 381:/home/christoschristoforou/STM32Cube/Repository/STM32Cube_FW_F4_V1.27.0/Drivers/STM32F4xx_HAL_Driver/Src/stm32f4xx_hal_gpio.c **** 
 382:/home/christoschristoforou/STM32Cube/Repository/STM32Cube_FW_F4_V1.27.0/Drivers/STM32F4xx_HAL_Driver/Src/stm32f4xx_hal_gpio.c ****   if((GPIOx->IDR & GPIO_Pin) != (uint32_t)GPIO_PIN_RESET)
 969              		.loc 1 382 3 view .LVU307
 970              		.loc 1 382 12 is_stmt 0 view .LVU308
 971 0008 2369     		ldr	r3, [r4, #16]
 972              		.loc 1 382 5 view .LVU309
 973 000a 1D42     		tst	r5, r3
 974 000c 07D0     		beq	.L62
 383:/home/christoschristoforou/STM32Cube/Repository/STM32Cube_FW_F4_V1.27.0/Drivers/STM32F4xx_HAL_Driver/Src/stm32f4xx_hal_gpio.c ****   {
ARM GAS  /tmp/ccoZx0qa.s 			page 28


 384:/home/christoschristoforou/STM32Cube/Repository/STM32Cube_FW_F4_V1.27.0/Drivers/STM32F4xx_HAL_Driver/Src/stm32f4xx_hal_gpio.c ****     bitstatus = GPIO_PIN_SET;
 975              		.loc 1 384 15 view .LVU310
 976 000e 0120     		movs	r0, #1
 977              	.L61:
 978              	.LVL79:
 385:/home/christoschristoforou/STM32Cube/Repository/STM32Cube_FW_F4_V1.27.0/Drivers/STM32F4xx_HAL_Driver/Src/stm32f4xx_hal_gpio.c ****   }
 386:/home/christoschristoforou/STM32Cube/Repository/STM32Cube_FW_F4_V1.27.0/Drivers/STM32F4xx_HAL_Driver/Src/stm32f4xx_hal_gpio.c ****   else
 387:/home/christoschristoforou/STM32Cube/Repository/STM32Cube_FW_F4_V1.27.0/Drivers/STM32F4xx_HAL_Driver/Src/stm32f4xx_hal_gpio.c ****   {
 388:/home/christoschristoforou/STM32Cube/Repository/STM32Cube_FW_F4_V1.27.0/Drivers/STM32F4xx_HAL_Driver/Src/stm32f4xx_hal_gpio.c ****     bitstatus = GPIO_PIN_RESET;
 389:/home/christoschristoforou/STM32Cube/Repository/STM32Cube_FW_F4_V1.27.0/Drivers/STM32F4xx_HAL_Driver/Src/stm32f4xx_hal_gpio.c ****   }
 390:/home/christoschristoforou/STM32Cube/Repository/STM32Cube_FW_F4_V1.27.0/Drivers/STM32F4xx_HAL_Driver/Src/stm32f4xx_hal_gpio.c ****   return bitstatus;
 979              		.loc 1 390 3 is_stmt 1 view .LVU311
 391:/home/christoschristoforou/STM32Cube/Repository/STM32Cube_FW_F4_V1.27.0/Drivers/STM32F4xx_HAL_Driver/Src/stm32f4xx_hal_gpio.c **** }
 980              		.loc 1 391 1 is_stmt 0 view .LVU312
 981 0010 38BD     		pop	{r3, r4, r5, pc}
 982              	.LVL80:
 983              	.L64:
 380:/home/christoschristoforou/STM32Cube/Repository/STM32Cube_FW_F4_V1.27.0/Drivers/STM32F4xx_HAL_Driver/Src/stm32f4xx_hal_gpio.c **** 
 984              		.loc 1 380 3 discriminator 3 view .LVU313
 985 0012 4FF4BE71 		mov	r1, #380
 986              	.LVL81:
 380:/home/christoschristoforou/STM32Cube/Repository/STM32Cube_FW_F4_V1.27.0/Drivers/STM32F4xx_HAL_Driver/Src/stm32f4xx_hal_gpio.c **** 
 987              		.loc 1 380 3 discriminator 3 view .LVU314
 988 0016 0348     		ldr	r0, .L65
 989              	.LVL82:
 380:/home/christoschristoforou/STM32Cube/Repository/STM32Cube_FW_F4_V1.27.0/Drivers/STM32F4xx_HAL_Driver/Src/stm32f4xx_hal_gpio.c **** 
 990              		.loc 1 380 3 discriminator 3 view .LVU315
 991 0018 FFF7FEFF 		bl	assert_failed
 992              	.LVL83:
 993 001c F4E7     		b	.L60
 994              	.L62:
 388:/home/christoschristoforou/STM32Cube/Repository/STM32Cube_FW_F4_V1.27.0/Drivers/STM32F4xx_HAL_Driver/Src/stm32f4xx_hal_gpio.c ****   }
 995              		.loc 1 388 15 view .LVU316
 996 001e 0020     		movs	r0, #0
 997 0020 F6E7     		b	.L61
 998              	.L66:
 999 0022 00BF     		.align	2
 1000              	.L65:
 1001 0024 00000000 		.word	.LC0
 1002              		.cfi_endproc
 1003              	.LFE132:
 1005              		.section	.text.HAL_GPIO_WritePin,"ax",%progbits
 1006              		.align	1
 1007              		.global	HAL_GPIO_WritePin
 1008              		.syntax unified
 1009              		.thumb
 1010              		.thumb_func
 1011              		.fpu fpv4-sp-d16
 1013              	HAL_GPIO_WritePin:
 1014              	.LVL84:
 1015              	.LFB133:
 392:/home/christoschristoforou/STM32Cube/Repository/STM32Cube_FW_F4_V1.27.0/Drivers/STM32F4xx_HAL_Driver/Src/stm32f4xx_hal_gpio.c **** 
 393:/home/christoschristoforou/STM32Cube/Repository/STM32Cube_FW_F4_V1.27.0/Drivers/STM32F4xx_HAL_Driver/Src/stm32f4xx_hal_gpio.c **** /**
 394:/home/christoschristoforou/STM32Cube/Repository/STM32Cube_FW_F4_V1.27.0/Drivers/STM32F4xx_HAL_Driver/Src/stm32f4xx_hal_gpio.c ****   * @brief  Sets or clears the selected data port bit.
 395:/home/christoschristoforou/STM32Cube/Repository/STM32Cube_FW_F4_V1.27.0/Drivers/STM32F4xx_HAL_Driver/Src/stm32f4xx_hal_gpio.c ****   *
 396:/home/christoschristoforou/STM32Cube/Repository/STM32Cube_FW_F4_V1.27.0/Drivers/STM32F4xx_HAL_Driver/Src/stm32f4xx_hal_gpio.c ****   * @note   This function uses GPIOx_BSRR register to allow atomic read/modify
 397:/home/christoschristoforou/STM32Cube/Repository/STM32Cube_FW_F4_V1.27.0/Drivers/STM32F4xx_HAL_Driver/Src/stm32f4xx_hal_gpio.c ****   *         accesses. In this way, there is no risk of an IRQ occurring between
ARM GAS  /tmp/ccoZx0qa.s 			page 29


 398:/home/christoschristoforou/STM32Cube/Repository/STM32Cube_FW_F4_V1.27.0/Drivers/STM32F4xx_HAL_Driver/Src/stm32f4xx_hal_gpio.c ****   *         the read and the modify access.
 399:/home/christoschristoforou/STM32Cube/Repository/STM32Cube_FW_F4_V1.27.0/Drivers/STM32F4xx_HAL_Driver/Src/stm32f4xx_hal_gpio.c ****   *
 400:/home/christoschristoforou/STM32Cube/Repository/STM32Cube_FW_F4_V1.27.0/Drivers/STM32F4xx_HAL_Driver/Src/stm32f4xx_hal_gpio.c ****   * @param  GPIOx where x can be (A..K) to select the GPIO peripheral for STM32F429X device or
 401:/home/christoschristoforou/STM32Cube/Repository/STM32Cube_FW_F4_V1.27.0/Drivers/STM32F4xx_HAL_Driver/Src/stm32f4xx_hal_gpio.c ****   *                      x can be (A..I) to select the GPIO peripheral for STM32F40XX and STM32F427
 402:/home/christoschristoforou/STM32Cube/Repository/STM32Cube_FW_F4_V1.27.0/Drivers/STM32F4xx_HAL_Driver/Src/stm32f4xx_hal_gpio.c ****   * @param  GPIO_Pin specifies the port bit to be written.
 403:/home/christoschristoforou/STM32Cube/Repository/STM32Cube_FW_F4_V1.27.0/Drivers/STM32F4xx_HAL_Driver/Src/stm32f4xx_hal_gpio.c ****   *          This parameter can be one of GPIO_PIN_x where x can be (0..15).
 404:/home/christoschristoforou/STM32Cube/Repository/STM32Cube_FW_F4_V1.27.0/Drivers/STM32F4xx_HAL_Driver/Src/stm32f4xx_hal_gpio.c ****   * @param  PinState specifies the value to be written to the selected bit.
 405:/home/christoschristoforou/STM32Cube/Repository/STM32Cube_FW_F4_V1.27.0/Drivers/STM32F4xx_HAL_Driver/Src/stm32f4xx_hal_gpio.c ****   *          This parameter can be one of the GPIO_PinState enum values:
 406:/home/christoschristoforou/STM32Cube/Repository/STM32Cube_FW_F4_V1.27.0/Drivers/STM32F4xx_HAL_Driver/Src/stm32f4xx_hal_gpio.c ****   *            @arg GPIO_PIN_RESET: to clear the port pin
 407:/home/christoschristoforou/STM32Cube/Repository/STM32Cube_FW_F4_V1.27.0/Drivers/STM32F4xx_HAL_Driver/Src/stm32f4xx_hal_gpio.c ****   *            @arg GPIO_PIN_SET: to set the port pin
 408:/home/christoschristoforou/STM32Cube/Repository/STM32Cube_FW_F4_V1.27.0/Drivers/STM32F4xx_HAL_Driver/Src/stm32f4xx_hal_gpio.c ****   * @retval None
 409:/home/christoschristoforou/STM32Cube/Repository/STM32Cube_FW_F4_V1.27.0/Drivers/STM32F4xx_HAL_Driver/Src/stm32f4xx_hal_gpio.c ****   */
 410:/home/christoschristoforou/STM32Cube/Repository/STM32Cube_FW_F4_V1.27.0/Drivers/STM32F4xx_HAL_Driver/Src/stm32f4xx_hal_gpio.c **** void HAL_GPIO_WritePin(GPIO_TypeDef* GPIOx, uint16_t GPIO_Pin, GPIO_PinState PinState)
 411:/home/christoschristoforou/STM32Cube/Repository/STM32Cube_FW_F4_V1.27.0/Drivers/STM32F4xx_HAL_Driver/Src/stm32f4xx_hal_gpio.c **** {
 1016              		.loc 1 411 1 is_stmt 1 view -0
 1017              		.cfi_startproc
 1018              		@ args = 0, pretend = 0, frame = 0
 1019              		@ frame_needed = 0, uses_anonymous_args = 0
 1020              		.loc 1 411 1 is_stmt 0 view .LVU318
 1021 0000 70B5     		push	{r4, r5, r6, lr}
 1022              	.LCFI5:
 1023              		.cfi_def_cfa_offset 16
 1024              		.cfi_offset 4, -16
 1025              		.cfi_offset 5, -12
 1026              		.cfi_offset 6, -8
 1027              		.cfi_offset 14, -4
 1028 0002 0546     		mov	r5, r0
 1029 0004 1446     		mov	r4, r2
 412:/home/christoschristoforou/STM32Cube/Repository/STM32Cube_FW_F4_V1.27.0/Drivers/STM32F4xx_HAL_Driver/Src/stm32f4xx_hal_gpio.c ****   /* Check the parameters */
 413:/home/christoschristoforou/STM32Cube/Repository/STM32Cube_FW_F4_V1.27.0/Drivers/STM32F4xx_HAL_Driver/Src/stm32f4xx_hal_gpio.c ****   assert_param(IS_GPIO_PIN(GPIO_Pin));
 1030              		.loc 1 413 3 is_stmt 1 view .LVU319
 1031 0006 0E46     		mov	r6, r1
 1032 0008 21B1     		cbz	r1, .L74
 1033              	.LVL85:
 1034              	.L69:
 414:/home/christoschristoforou/STM32Cube/Repository/STM32Cube_FW_F4_V1.27.0/Drivers/STM32F4xx_HAL_Driver/Src/stm32f4xx_hal_gpio.c ****   assert_param(IS_GPIO_PIN_ACTION(PinState));
 1035              		.loc 1 414 3 view .LVU320
 1036 000a 012C     		cmp	r4, #1
 1037 000c 08D8     		bhi	.L75
 1038              	.L70:
 415:/home/christoschristoforou/STM32Cube/Repository/STM32Cube_FW_F4_V1.27.0/Drivers/STM32F4xx_HAL_Driver/Src/stm32f4xx_hal_gpio.c **** 
 416:/home/christoschristoforou/STM32Cube/Repository/STM32Cube_FW_F4_V1.27.0/Drivers/STM32F4xx_HAL_Driver/Src/stm32f4xx_hal_gpio.c ****   if(PinState != GPIO_PIN_RESET)
 1039              		.loc 1 416 3 view .LVU321
 1040              		.loc 1 416 5 is_stmt 0 view .LVU322
 1041 000e 6CB1     		cbz	r4, .L71
 417:/home/christoschristoforou/STM32Cube/Repository/STM32Cube_FW_F4_V1.27.0/Drivers/STM32F4xx_HAL_Driver/Src/stm32f4xx_hal_gpio.c ****   {
 418:/home/christoschristoforou/STM32Cube/Repository/STM32Cube_FW_F4_V1.27.0/Drivers/STM32F4xx_HAL_Driver/Src/stm32f4xx_hal_gpio.c ****     GPIOx->BSRR = GPIO_Pin;
 1042              		.loc 1 418 5 is_stmt 1 view .LVU323
 1043              		.loc 1 418 17 is_stmt 0 view .LVU324
 1044 0010 AE61     		str	r6, [r5, #24]
 1045              	.L67:
 419:/home/christoschristoforou/STM32Cube/Repository/STM32Cube_FW_F4_V1.27.0/Drivers/STM32F4xx_HAL_Driver/Src/stm32f4xx_hal_gpio.c ****   }
 420:/home/christoschristoforou/STM32Cube/Repository/STM32Cube_FW_F4_V1.27.0/Drivers/STM32F4xx_HAL_Driver/Src/stm32f4xx_hal_gpio.c ****   else
 421:/home/christoschristoforou/STM32Cube/Repository/STM32Cube_FW_F4_V1.27.0/Drivers/STM32F4xx_HAL_Driver/Src/stm32f4xx_hal_gpio.c ****   {
 422:/home/christoschristoforou/STM32Cube/Repository/STM32Cube_FW_F4_V1.27.0/Drivers/STM32F4xx_HAL_Driver/Src/stm32f4xx_hal_gpio.c ****     GPIOx->BSRR = (uint32_t)GPIO_Pin << 16U;
 423:/home/christoschristoforou/STM32Cube/Repository/STM32Cube_FW_F4_V1.27.0/Drivers/STM32F4xx_HAL_Driver/Src/stm32f4xx_hal_gpio.c ****   }
 424:/home/christoschristoforou/STM32Cube/Repository/STM32Cube_FW_F4_V1.27.0/Drivers/STM32F4xx_HAL_Driver/Src/stm32f4xx_hal_gpio.c **** }
ARM GAS  /tmp/ccoZx0qa.s 			page 30


 1046              		.loc 1 424 1 view .LVU325
 1047 0012 70BD     		pop	{r4, r5, r6, pc}
 1048              	.LVL86:
 1049              	.L74:
 413:/home/christoschristoforou/STM32Cube/Repository/STM32Cube_FW_F4_V1.27.0/Drivers/STM32F4xx_HAL_Driver/Src/stm32f4xx_hal_gpio.c ****   assert_param(IS_GPIO_PIN_ACTION(PinState));
 1050              		.loc 1 413 3 discriminator 3 view .LVU326
 1051 0014 40F29D11 		movw	r1, #413
 1052              	.LVL87:
 413:/home/christoschristoforou/STM32Cube/Repository/STM32Cube_FW_F4_V1.27.0/Drivers/STM32F4xx_HAL_Driver/Src/stm32f4xx_hal_gpio.c ****   assert_param(IS_GPIO_PIN_ACTION(PinState));
 1053              		.loc 1 413 3 discriminator 3 view .LVU327
 1054 0018 0648     		ldr	r0, .L76
 1055              	.LVL88:
 413:/home/christoschristoforou/STM32Cube/Repository/STM32Cube_FW_F4_V1.27.0/Drivers/STM32F4xx_HAL_Driver/Src/stm32f4xx_hal_gpio.c ****   assert_param(IS_GPIO_PIN_ACTION(PinState));
 1056              		.loc 1 413 3 discriminator 3 view .LVU328
 1057 001a FFF7FEFF 		bl	assert_failed
 1058              	.LVL89:
 413:/home/christoschristoforou/STM32Cube/Repository/STM32Cube_FW_F4_V1.27.0/Drivers/STM32F4xx_HAL_Driver/Src/stm32f4xx_hal_gpio.c ****   assert_param(IS_GPIO_PIN_ACTION(PinState));
 1059              		.loc 1 413 3 discriminator 3 view .LVU329
 1060 001e F4E7     		b	.L69
 1061              	.L75:
 414:/home/christoschristoforou/STM32Cube/Repository/STM32Cube_FW_F4_V1.27.0/Drivers/STM32F4xx_HAL_Driver/Src/stm32f4xx_hal_gpio.c **** 
 1062              		.loc 1 414 3 discriminator 1 view .LVU330
 1063 0020 4FF4CF71 		mov	r1, #414
 1064 0024 0348     		ldr	r0, .L76
 1065 0026 FFF7FEFF 		bl	assert_failed
 1066              	.LVL90:
 1067 002a F0E7     		b	.L70
 1068              	.L71:
 422:/home/christoschristoforou/STM32Cube/Repository/STM32Cube_FW_F4_V1.27.0/Drivers/STM32F4xx_HAL_Driver/Src/stm32f4xx_hal_gpio.c ****   }
 1069              		.loc 1 422 5 is_stmt 1 view .LVU331
 422:/home/christoschristoforou/STM32Cube/Repository/STM32Cube_FW_F4_V1.27.0/Drivers/STM32F4xx_HAL_Driver/Src/stm32f4xx_hal_gpio.c ****   }
 1070              		.loc 1 422 38 is_stmt 0 view .LVU332
 1071 002c 3604     		lsls	r6, r6, #16
 422:/home/christoschristoforou/STM32Cube/Repository/STM32Cube_FW_F4_V1.27.0/Drivers/STM32F4xx_HAL_Driver/Src/stm32f4xx_hal_gpio.c ****   }
 1072              		.loc 1 422 17 view .LVU333
 1073 002e AE61     		str	r6, [r5, #24]
 1074              		.loc 1 424 1 view .LVU334
 1075 0030 EFE7     		b	.L67
 1076              	.L77:
 1077 0032 00BF     		.align	2
 1078              	.L76:
 1079 0034 00000000 		.word	.LC0
 1080              		.cfi_endproc
 1081              	.LFE133:
 1083              		.section	.text.HAL_GPIO_TogglePin,"ax",%progbits
 1084              		.align	1
 1085              		.global	HAL_GPIO_TogglePin
 1086              		.syntax unified
 1087              		.thumb
 1088              		.thumb_func
 1089              		.fpu fpv4-sp-d16
 1091              	HAL_GPIO_TogglePin:
 1092              	.LVL91:
 1093              	.LFB134:
 425:/home/christoschristoforou/STM32Cube/Repository/STM32Cube_FW_F4_V1.27.0/Drivers/STM32F4xx_HAL_Driver/Src/stm32f4xx_hal_gpio.c **** 
 426:/home/christoschristoforou/STM32Cube/Repository/STM32Cube_FW_F4_V1.27.0/Drivers/STM32F4xx_HAL_Driver/Src/stm32f4xx_hal_gpio.c **** /**
 427:/home/christoschristoforou/STM32Cube/Repository/STM32Cube_FW_F4_V1.27.0/Drivers/STM32F4xx_HAL_Driver/Src/stm32f4xx_hal_gpio.c ****   * @brief  Toggles the specified GPIO pins.
ARM GAS  /tmp/ccoZx0qa.s 			page 31


 428:/home/christoschristoforou/STM32Cube/Repository/STM32Cube_FW_F4_V1.27.0/Drivers/STM32F4xx_HAL_Driver/Src/stm32f4xx_hal_gpio.c ****   * @param  GPIOx Where x can be (A..K) to select the GPIO peripheral for STM32F429X device or
 429:/home/christoschristoforou/STM32Cube/Repository/STM32Cube_FW_F4_V1.27.0/Drivers/STM32F4xx_HAL_Driver/Src/stm32f4xx_hal_gpio.c ****   *                      x can be (A..I) to select the GPIO peripheral for STM32F40XX and STM32F427
 430:/home/christoschristoforou/STM32Cube/Repository/STM32Cube_FW_F4_V1.27.0/Drivers/STM32F4xx_HAL_Driver/Src/stm32f4xx_hal_gpio.c ****   * @param  GPIO_Pin Specifies the pins to be toggled.
 431:/home/christoschristoforou/STM32Cube/Repository/STM32Cube_FW_F4_V1.27.0/Drivers/STM32F4xx_HAL_Driver/Src/stm32f4xx_hal_gpio.c ****   * @retval None
 432:/home/christoschristoforou/STM32Cube/Repository/STM32Cube_FW_F4_V1.27.0/Drivers/STM32F4xx_HAL_Driver/Src/stm32f4xx_hal_gpio.c ****   */
 433:/home/christoschristoforou/STM32Cube/Repository/STM32Cube_FW_F4_V1.27.0/Drivers/STM32F4xx_HAL_Driver/Src/stm32f4xx_hal_gpio.c **** void HAL_GPIO_TogglePin(GPIO_TypeDef* GPIOx, uint16_t GPIO_Pin)
 434:/home/christoschristoforou/STM32Cube/Repository/STM32Cube_FW_F4_V1.27.0/Drivers/STM32F4xx_HAL_Driver/Src/stm32f4xx_hal_gpio.c **** {
 1094              		.loc 1 434 1 is_stmt 1 view -0
 1095              		.cfi_startproc
 1096              		@ args = 0, pretend = 0, frame = 0
 1097              		@ frame_needed = 0, uses_anonymous_args = 0
 1098              		.loc 1 434 1 is_stmt 0 view .LVU336
 1099 0000 38B5     		push	{r3, r4, r5, lr}
 1100              	.LCFI6:
 1101              		.cfi_def_cfa_offset 16
 1102              		.cfi_offset 3, -16
 1103              		.cfi_offset 4, -12
 1104              		.cfi_offset 5, -8
 1105              		.cfi_offset 14, -4
 1106 0002 0546     		mov	r5, r0
 435:/home/christoschristoforou/STM32Cube/Repository/STM32Cube_FW_F4_V1.27.0/Drivers/STM32F4xx_HAL_Driver/Src/stm32f4xx_hal_gpio.c ****   uint32_t odr;
 1107              		.loc 1 435 3 is_stmt 1 view .LVU337
 436:/home/christoschristoforou/STM32Cube/Repository/STM32Cube_FW_F4_V1.27.0/Drivers/STM32F4xx_HAL_Driver/Src/stm32f4xx_hal_gpio.c **** 
 437:/home/christoschristoforou/STM32Cube/Repository/STM32Cube_FW_F4_V1.27.0/Drivers/STM32F4xx_HAL_Driver/Src/stm32f4xx_hal_gpio.c ****   /* Check the parameters */
 438:/home/christoschristoforou/STM32Cube/Repository/STM32Cube_FW_F4_V1.27.0/Drivers/STM32F4xx_HAL_Driver/Src/stm32f4xx_hal_gpio.c ****   assert_param(IS_GPIO_PIN(GPIO_Pin));
 1108              		.loc 1 438 3 view .LVU338
 1109 0004 0C46     		mov	r4, r1
 1110 0006 41B1     		cbz	r1, .L82
 1111              	.LVL92:
 1112              	.L80:
 439:/home/christoschristoforou/STM32Cube/Repository/STM32Cube_FW_F4_V1.27.0/Drivers/STM32F4xx_HAL_Driver/Src/stm32f4xx_hal_gpio.c **** 
 440:/home/christoschristoforou/STM32Cube/Repository/STM32Cube_FW_F4_V1.27.0/Drivers/STM32F4xx_HAL_Driver/Src/stm32f4xx_hal_gpio.c ****   /* get current Output Data Register value */
 441:/home/christoschristoforou/STM32Cube/Repository/STM32Cube_FW_F4_V1.27.0/Drivers/STM32F4xx_HAL_Driver/Src/stm32f4xx_hal_gpio.c ****   odr = GPIOx->ODR;
 1113              		.loc 1 441 3 view .LVU339
 1114              		.loc 1 441 7 is_stmt 0 view .LVU340
 1115 0008 6B69     		ldr	r3, [r5, #20]
 1116              	.LVL93:
 442:/home/christoschristoforou/STM32Cube/Repository/STM32Cube_FW_F4_V1.27.0/Drivers/STM32F4xx_HAL_Driver/Src/stm32f4xx_hal_gpio.c **** 
 443:/home/christoschristoforou/STM32Cube/Repository/STM32Cube_FW_F4_V1.27.0/Drivers/STM32F4xx_HAL_Driver/Src/stm32f4xx_hal_gpio.c ****   /* Set selected pins that were at low level, and reset ones that were high */
 444:/home/christoschristoforou/STM32Cube/Repository/STM32Cube_FW_F4_V1.27.0/Drivers/STM32F4xx_HAL_Driver/Src/stm32f4xx_hal_gpio.c ****   GPIOx->BSRR = ((odr & GPIO_Pin) << GPIO_NUMBER) | (~odr & GPIO_Pin);
 1117              		.loc 1 444 3 is_stmt 1 view .LVU341
 1118              		.loc 1 444 23 is_stmt 0 view .LVU342
 1119 000a 04EA0302 		and	r2, r4, r3
 1120              		.loc 1 444 59 view .LVU343
 1121 000e 24EA0304 		bic	r4, r4, r3
 1122              		.loc 1 444 51 view .LVU344
 1123 0012 44EA0244 		orr	r4, r4, r2, lsl #16
 1124              		.loc 1 444 15 view .LVU345
 1125 0016 AC61     		str	r4, [r5, #24]
 445:/home/christoschristoforou/STM32Cube/Repository/STM32Cube_FW_F4_V1.27.0/Drivers/STM32F4xx_HAL_Driver/Src/stm32f4xx_hal_gpio.c **** }
 1126              		.loc 1 445 1 view .LVU346
 1127 0018 38BD     		pop	{r3, r4, r5, pc}
 1128              	.LVL94:
 1129              	.L82:
 438:/home/christoschristoforou/STM32Cube/Repository/STM32Cube_FW_F4_V1.27.0/Drivers/STM32F4xx_HAL_Driver/Src/stm32f4xx_hal_gpio.c **** 
 1130              		.loc 1 438 3 discriminator 3 view .LVU347
 1131 001a 4FF4DB71 		mov	r1, #438
ARM GAS  /tmp/ccoZx0qa.s 			page 32


 1132              	.LVL95:
 438:/home/christoschristoforou/STM32Cube/Repository/STM32Cube_FW_F4_V1.27.0/Drivers/STM32F4xx_HAL_Driver/Src/stm32f4xx_hal_gpio.c **** 
 1133              		.loc 1 438 3 discriminator 3 view .LVU348
 1134 001e 0248     		ldr	r0, .L83
 1135              	.LVL96:
 438:/home/christoschristoforou/STM32Cube/Repository/STM32Cube_FW_F4_V1.27.0/Drivers/STM32F4xx_HAL_Driver/Src/stm32f4xx_hal_gpio.c **** 
 1136              		.loc 1 438 3 discriminator 3 view .LVU349
 1137 0020 FFF7FEFF 		bl	assert_failed
 1138              	.LVL97:
 1139 0024 F0E7     		b	.L80
 1140              	.L84:
 1141 0026 00BF     		.align	2
 1142              	.L83:
 1143 0028 00000000 		.word	.LC0
 1144              		.cfi_endproc
 1145              	.LFE134:
 1147              		.section	.text.HAL_GPIO_LockPin,"ax",%progbits
 1148              		.align	1
 1149              		.global	HAL_GPIO_LockPin
 1150              		.syntax unified
 1151              		.thumb
 1152              		.thumb_func
 1153              		.fpu fpv4-sp-d16
 1155              	HAL_GPIO_LockPin:
 1156              	.LVL98:
 1157              	.LFB135:
 446:/home/christoschristoforou/STM32Cube/Repository/STM32Cube_FW_F4_V1.27.0/Drivers/STM32F4xx_HAL_Driver/Src/stm32f4xx_hal_gpio.c **** 
 447:/home/christoschristoforou/STM32Cube/Repository/STM32Cube_FW_F4_V1.27.0/Drivers/STM32F4xx_HAL_Driver/Src/stm32f4xx_hal_gpio.c **** /**
 448:/home/christoschristoforou/STM32Cube/Repository/STM32Cube_FW_F4_V1.27.0/Drivers/STM32F4xx_HAL_Driver/Src/stm32f4xx_hal_gpio.c ****   * @brief  Locks GPIO Pins configuration registers.
 449:/home/christoschristoforou/STM32Cube/Repository/STM32Cube_FW_F4_V1.27.0/Drivers/STM32F4xx_HAL_Driver/Src/stm32f4xx_hal_gpio.c ****   * @note   The locked registers are GPIOx_MODER, GPIOx_OTYPER, GPIOx_OSPEEDR,
 450:/home/christoschristoforou/STM32Cube/Repository/STM32Cube_FW_F4_V1.27.0/Drivers/STM32F4xx_HAL_Driver/Src/stm32f4xx_hal_gpio.c ****   *         GPIOx_PUPDR, GPIOx_AFRL and GPIOx_AFRH.
 451:/home/christoschristoforou/STM32Cube/Repository/STM32Cube_FW_F4_V1.27.0/Drivers/STM32F4xx_HAL_Driver/Src/stm32f4xx_hal_gpio.c ****   * @note   The configuration of the locked GPIO pins can no longer be modified
 452:/home/christoschristoforou/STM32Cube/Repository/STM32Cube_FW_F4_V1.27.0/Drivers/STM32F4xx_HAL_Driver/Src/stm32f4xx_hal_gpio.c ****   *         until the next reset.
 453:/home/christoschristoforou/STM32Cube/Repository/STM32Cube_FW_F4_V1.27.0/Drivers/STM32F4xx_HAL_Driver/Src/stm32f4xx_hal_gpio.c ****   * @param  GPIOx where x can be (A..F) to select the GPIO peripheral for STM32F4 family
 454:/home/christoschristoforou/STM32Cube/Repository/STM32Cube_FW_F4_V1.27.0/Drivers/STM32F4xx_HAL_Driver/Src/stm32f4xx_hal_gpio.c ****   * @param  GPIO_Pin specifies the port bit to be locked.
 455:/home/christoschristoforou/STM32Cube/Repository/STM32Cube_FW_F4_V1.27.0/Drivers/STM32F4xx_HAL_Driver/Src/stm32f4xx_hal_gpio.c ****   *         This parameter can be any combination of GPIO_PIN_x where x can be (0..15).
 456:/home/christoschristoforou/STM32Cube/Repository/STM32Cube_FW_F4_V1.27.0/Drivers/STM32F4xx_HAL_Driver/Src/stm32f4xx_hal_gpio.c ****   * @retval None
 457:/home/christoschristoforou/STM32Cube/Repository/STM32Cube_FW_F4_V1.27.0/Drivers/STM32F4xx_HAL_Driver/Src/stm32f4xx_hal_gpio.c ****   */
 458:/home/christoschristoforou/STM32Cube/Repository/STM32Cube_FW_F4_V1.27.0/Drivers/STM32F4xx_HAL_Driver/Src/stm32f4xx_hal_gpio.c **** HAL_StatusTypeDef HAL_GPIO_LockPin(GPIO_TypeDef* GPIOx, uint16_t GPIO_Pin)
 459:/home/christoschristoforou/STM32Cube/Repository/STM32Cube_FW_F4_V1.27.0/Drivers/STM32F4xx_HAL_Driver/Src/stm32f4xx_hal_gpio.c **** {
 1158              		.loc 1 459 1 is_stmt 1 view -0
 1159              		.cfi_startproc
 1160              		@ args = 0, pretend = 0, frame = 8
 1161              		@ frame_needed = 0, uses_anonymous_args = 0
 1162              		.loc 1 459 1 is_stmt 0 view .LVU351
 1163 0000 30B5     		push	{r4, r5, lr}
 1164              	.LCFI7:
 1165              		.cfi_def_cfa_offset 12
 1166              		.cfi_offset 4, -12
 1167              		.cfi_offset 5, -8
 1168              		.cfi_offset 14, -4
 1169 0002 83B0     		sub	sp, sp, #12
 1170              	.LCFI8:
 1171              		.cfi_def_cfa_offset 24
 1172 0004 0446     		mov	r4, r0
 460:/home/christoschristoforou/STM32Cube/Repository/STM32Cube_FW_F4_V1.27.0/Drivers/STM32F4xx_HAL_Driver/Src/stm32f4xx_hal_gpio.c ****   __IO uint32_t tmp = GPIO_LCKR_LCKK;
 1173              		.loc 1 460 3 is_stmt 1 view .LVU352
ARM GAS  /tmp/ccoZx0qa.s 			page 33


 1174              		.loc 1 460 17 is_stmt 0 view .LVU353
 1175 0006 4FF48033 		mov	r3, #65536
 1176 000a 0193     		str	r3, [sp, #4]
 461:/home/christoschristoforou/STM32Cube/Repository/STM32Cube_FW_F4_V1.27.0/Drivers/STM32F4xx_HAL_Driver/Src/stm32f4xx_hal_gpio.c **** 
 462:/home/christoschristoforou/STM32Cube/Repository/STM32Cube_FW_F4_V1.27.0/Drivers/STM32F4xx_HAL_Driver/Src/stm32f4xx_hal_gpio.c ****   /* Check the parameters */
 463:/home/christoschristoforou/STM32Cube/Repository/STM32Cube_FW_F4_V1.27.0/Drivers/STM32F4xx_HAL_Driver/Src/stm32f4xx_hal_gpio.c ****   assert_param(IS_GPIO_PIN(GPIO_Pin));
 1177              		.loc 1 463 3 is_stmt 1 view .LVU354
 1178 000c 0D46     		mov	r5, r1
 1179 000e 81B1     		cbz	r1, .L91
 1180              	.LVL99:
 1181              	.L87:
 464:/home/christoschristoforou/STM32Cube/Repository/STM32Cube_FW_F4_V1.27.0/Drivers/STM32F4xx_HAL_Driver/Src/stm32f4xx_hal_gpio.c **** 
 465:/home/christoschristoforou/STM32Cube/Repository/STM32Cube_FW_F4_V1.27.0/Drivers/STM32F4xx_HAL_Driver/Src/stm32f4xx_hal_gpio.c ****   /* Apply lock key write sequence */
 466:/home/christoschristoforou/STM32Cube/Repository/STM32Cube_FW_F4_V1.27.0/Drivers/STM32F4xx_HAL_Driver/Src/stm32f4xx_hal_gpio.c ****   tmp |= GPIO_Pin;
 1182              		.loc 1 466 3 view .LVU355
 1183              		.loc 1 466 7 is_stmt 0 view .LVU356
 1184 0010 019B     		ldr	r3, [sp, #4]
 1185 0012 2B43     		orrs	r3, r3, r5
 1186 0014 0193     		str	r3, [sp, #4]
 467:/home/christoschristoforou/STM32Cube/Repository/STM32Cube_FW_F4_V1.27.0/Drivers/STM32F4xx_HAL_Driver/Src/stm32f4xx_hal_gpio.c ****   /* Set LCKx bit(s): LCKK='1' + LCK[15-0] */
 468:/home/christoschristoforou/STM32Cube/Repository/STM32Cube_FW_F4_V1.27.0/Drivers/STM32F4xx_HAL_Driver/Src/stm32f4xx_hal_gpio.c ****   GPIOx->LCKR = tmp;
 1187              		.loc 1 468 3 is_stmt 1 view .LVU357
 1188              		.loc 1 468 15 is_stmt 0 view .LVU358
 1189 0016 019B     		ldr	r3, [sp, #4]
 1190 0018 E361     		str	r3, [r4, #28]
 469:/home/christoschristoforou/STM32Cube/Repository/STM32Cube_FW_F4_V1.27.0/Drivers/STM32F4xx_HAL_Driver/Src/stm32f4xx_hal_gpio.c ****   /* Reset LCKx bit(s): LCKK='0' + LCK[15-0] */
 470:/home/christoschristoforou/STM32Cube/Repository/STM32Cube_FW_F4_V1.27.0/Drivers/STM32F4xx_HAL_Driver/Src/stm32f4xx_hal_gpio.c ****   GPIOx->LCKR = GPIO_Pin;
 1191              		.loc 1 470 3 is_stmt 1 view .LVU359
 1192              		.loc 1 470 15 is_stmt 0 view .LVU360
 1193 001a E561     		str	r5, [r4, #28]
 471:/home/christoschristoforou/STM32Cube/Repository/STM32Cube_FW_F4_V1.27.0/Drivers/STM32F4xx_HAL_Driver/Src/stm32f4xx_hal_gpio.c ****   /* Set LCKx bit(s): LCKK='1' + LCK[15-0] */
 472:/home/christoschristoforou/STM32Cube/Repository/STM32Cube_FW_F4_V1.27.0/Drivers/STM32F4xx_HAL_Driver/Src/stm32f4xx_hal_gpio.c ****   GPIOx->LCKR = tmp;
 1194              		.loc 1 472 3 is_stmt 1 view .LVU361
 1195              		.loc 1 472 15 is_stmt 0 view .LVU362
 1196 001c 019B     		ldr	r3, [sp, #4]
 1197 001e E361     		str	r3, [r4, #28]
 473:/home/christoschristoforou/STM32Cube/Repository/STM32Cube_FW_F4_V1.27.0/Drivers/STM32F4xx_HAL_Driver/Src/stm32f4xx_hal_gpio.c ****   /* Read LCKR register. This read is mandatory to complete key lock sequence */
 474:/home/christoschristoforou/STM32Cube/Repository/STM32Cube_FW_F4_V1.27.0/Drivers/STM32F4xx_HAL_Driver/Src/stm32f4xx_hal_gpio.c ****   tmp = GPIOx->LCKR;
 1198              		.loc 1 474 3 is_stmt 1 view .LVU363
 1199              		.loc 1 474 14 is_stmt 0 view .LVU364
 1200 0020 E369     		ldr	r3, [r4, #28]
 1201              		.loc 1 474 7 view .LVU365
 1202 0022 0193     		str	r3, [sp, #4]
 475:/home/christoschristoforou/STM32Cube/Repository/STM32Cube_FW_F4_V1.27.0/Drivers/STM32F4xx_HAL_Driver/Src/stm32f4xx_hal_gpio.c **** 
 476:/home/christoschristoforou/STM32Cube/Repository/STM32Cube_FW_F4_V1.27.0/Drivers/STM32F4xx_HAL_Driver/Src/stm32f4xx_hal_gpio.c ****   /* Read again in order to confirm lock is active */
 477:/home/christoschristoforou/STM32Cube/Repository/STM32Cube_FW_F4_V1.27.0/Drivers/STM32F4xx_HAL_Driver/Src/stm32f4xx_hal_gpio.c ****  if((GPIOx->LCKR & GPIO_LCKR_LCKK) != RESET)
 1203              		.loc 1 477 2 is_stmt 1 view .LVU366
 1204              		.loc 1 477 11 is_stmt 0 view .LVU367
 1205 0024 E369     		ldr	r3, [r4, #28]
 1206              		.loc 1 477 4 view .LVU368
 1207 0026 13F4803F 		tst	r3, #65536
 1208 002a 08D0     		beq	.L89
 478:/home/christoschristoforou/STM32Cube/Repository/STM32Cube_FW_F4_V1.27.0/Drivers/STM32F4xx_HAL_Driver/Src/stm32f4xx_hal_gpio.c ****   {
 479:/home/christoschristoforou/STM32Cube/Repository/STM32Cube_FW_F4_V1.27.0/Drivers/STM32F4xx_HAL_Driver/Src/stm32f4xx_hal_gpio.c ****     return HAL_OK;
 1209              		.loc 1 479 12 view .LVU369
 1210 002c 0020     		movs	r0, #0
 1211              	.L88:
ARM GAS  /tmp/ccoZx0qa.s 			page 34


 480:/home/christoschristoforou/STM32Cube/Repository/STM32Cube_FW_F4_V1.27.0/Drivers/STM32F4xx_HAL_Driver/Src/stm32f4xx_hal_gpio.c ****   }
 481:/home/christoschristoforou/STM32Cube/Repository/STM32Cube_FW_F4_V1.27.0/Drivers/STM32F4xx_HAL_Driver/Src/stm32f4xx_hal_gpio.c ****   else
 482:/home/christoschristoforou/STM32Cube/Repository/STM32Cube_FW_F4_V1.27.0/Drivers/STM32F4xx_HAL_Driver/Src/stm32f4xx_hal_gpio.c ****   {
 483:/home/christoschristoforou/STM32Cube/Repository/STM32Cube_FW_F4_V1.27.0/Drivers/STM32F4xx_HAL_Driver/Src/stm32f4xx_hal_gpio.c ****     return HAL_ERROR;
 484:/home/christoschristoforou/STM32Cube/Repository/STM32Cube_FW_F4_V1.27.0/Drivers/STM32F4xx_HAL_Driver/Src/stm32f4xx_hal_gpio.c ****   }
 485:/home/christoschristoforou/STM32Cube/Repository/STM32Cube_FW_F4_V1.27.0/Drivers/STM32F4xx_HAL_Driver/Src/stm32f4xx_hal_gpio.c **** }
 1212              		.loc 1 485 1 view .LVU370
 1213 002e 03B0     		add	sp, sp, #12
 1214              	.LCFI9:
 1215              		.cfi_remember_state
 1216              		.cfi_def_cfa_offset 12
 1217              		@ sp needed
 1218 0030 30BD     		pop	{r4, r5, pc}
 1219              	.LVL100:
 1220              	.L91:
 1221              	.LCFI10:
 1222              		.cfi_restore_state
 463:/home/christoschristoforou/STM32Cube/Repository/STM32Cube_FW_F4_V1.27.0/Drivers/STM32F4xx_HAL_Driver/Src/stm32f4xx_hal_gpio.c **** 
 1223              		.loc 1 463 3 discriminator 3 view .LVU371
 1224 0032 40F2CF11 		movw	r1, #463
 1225              	.LVL101:
 463:/home/christoschristoforou/STM32Cube/Repository/STM32Cube_FW_F4_V1.27.0/Drivers/STM32F4xx_HAL_Driver/Src/stm32f4xx_hal_gpio.c **** 
 1226              		.loc 1 463 3 discriminator 3 view .LVU372
 1227 0036 0348     		ldr	r0, .L92
 1228              	.LVL102:
 463:/home/christoschristoforou/STM32Cube/Repository/STM32Cube_FW_F4_V1.27.0/Drivers/STM32F4xx_HAL_Driver/Src/stm32f4xx_hal_gpio.c **** 
 1229              		.loc 1 463 3 discriminator 3 view .LVU373
 1230 0038 FFF7FEFF 		bl	assert_failed
 1231              	.LVL103:
 1232 003c E8E7     		b	.L87
 1233              	.L89:
 483:/home/christoschristoforou/STM32Cube/Repository/STM32Cube_FW_F4_V1.27.0/Drivers/STM32F4xx_HAL_Driver/Src/stm32f4xx_hal_gpio.c ****   }
 1234              		.loc 1 483 12 view .LVU374
 1235 003e 0120     		movs	r0, #1
 1236 0040 F5E7     		b	.L88
 1237              	.L93:
 1238 0042 00BF     		.align	2
 1239              	.L92:
 1240 0044 00000000 		.word	.LC0
 1241              		.cfi_endproc
 1242              	.LFE135:
 1244              		.section	.text.HAL_GPIO_EXTI_Callback,"ax",%progbits
 1245              		.align	1
 1246              		.weak	HAL_GPIO_EXTI_Callback
 1247              		.syntax unified
 1248              		.thumb
 1249              		.thumb_func
 1250              		.fpu fpv4-sp-d16
 1252              	HAL_GPIO_EXTI_Callback:
 1253              	.LVL104:
 1254              	.LFB137:
 486:/home/christoschristoforou/STM32Cube/Repository/STM32Cube_FW_F4_V1.27.0/Drivers/STM32F4xx_HAL_Driver/Src/stm32f4xx_hal_gpio.c **** 
 487:/home/christoschristoforou/STM32Cube/Repository/STM32Cube_FW_F4_V1.27.0/Drivers/STM32F4xx_HAL_Driver/Src/stm32f4xx_hal_gpio.c **** /**
 488:/home/christoschristoforou/STM32Cube/Repository/STM32Cube_FW_F4_V1.27.0/Drivers/STM32F4xx_HAL_Driver/Src/stm32f4xx_hal_gpio.c ****   * @brief  This function handles EXTI interrupt request.
 489:/home/christoschristoforou/STM32Cube/Repository/STM32Cube_FW_F4_V1.27.0/Drivers/STM32F4xx_HAL_Driver/Src/stm32f4xx_hal_gpio.c ****   * @param  GPIO_Pin Specifies the pins connected EXTI line
 490:/home/christoschristoforou/STM32Cube/Repository/STM32Cube_FW_F4_V1.27.0/Drivers/STM32F4xx_HAL_Driver/Src/stm32f4xx_hal_gpio.c ****   * @retval None
 491:/home/christoschristoforou/STM32Cube/Repository/STM32Cube_FW_F4_V1.27.0/Drivers/STM32F4xx_HAL_Driver/Src/stm32f4xx_hal_gpio.c ****   */
ARM GAS  /tmp/ccoZx0qa.s 			page 35


 492:/home/christoschristoforou/STM32Cube/Repository/STM32Cube_FW_F4_V1.27.0/Drivers/STM32F4xx_HAL_Driver/Src/stm32f4xx_hal_gpio.c **** void HAL_GPIO_EXTI_IRQHandler(uint16_t GPIO_Pin)
 493:/home/christoschristoforou/STM32Cube/Repository/STM32Cube_FW_F4_V1.27.0/Drivers/STM32F4xx_HAL_Driver/Src/stm32f4xx_hal_gpio.c **** {
 494:/home/christoschristoforou/STM32Cube/Repository/STM32Cube_FW_F4_V1.27.0/Drivers/STM32F4xx_HAL_Driver/Src/stm32f4xx_hal_gpio.c ****   /* EXTI line interrupt detected */
 495:/home/christoschristoforou/STM32Cube/Repository/STM32Cube_FW_F4_V1.27.0/Drivers/STM32F4xx_HAL_Driver/Src/stm32f4xx_hal_gpio.c ****   if(__HAL_GPIO_EXTI_GET_IT(GPIO_Pin) != RESET)
 496:/home/christoschristoforou/STM32Cube/Repository/STM32Cube_FW_F4_V1.27.0/Drivers/STM32F4xx_HAL_Driver/Src/stm32f4xx_hal_gpio.c ****   {
 497:/home/christoschristoforou/STM32Cube/Repository/STM32Cube_FW_F4_V1.27.0/Drivers/STM32F4xx_HAL_Driver/Src/stm32f4xx_hal_gpio.c ****     __HAL_GPIO_EXTI_CLEAR_IT(GPIO_Pin);
 498:/home/christoschristoforou/STM32Cube/Repository/STM32Cube_FW_F4_V1.27.0/Drivers/STM32F4xx_HAL_Driver/Src/stm32f4xx_hal_gpio.c ****     HAL_GPIO_EXTI_Callback(GPIO_Pin);
 499:/home/christoschristoforou/STM32Cube/Repository/STM32Cube_FW_F4_V1.27.0/Drivers/STM32F4xx_HAL_Driver/Src/stm32f4xx_hal_gpio.c ****   }
 500:/home/christoschristoforou/STM32Cube/Repository/STM32Cube_FW_F4_V1.27.0/Drivers/STM32F4xx_HAL_Driver/Src/stm32f4xx_hal_gpio.c **** }
 501:/home/christoschristoforou/STM32Cube/Repository/STM32Cube_FW_F4_V1.27.0/Drivers/STM32F4xx_HAL_Driver/Src/stm32f4xx_hal_gpio.c **** 
 502:/home/christoschristoforou/STM32Cube/Repository/STM32Cube_FW_F4_V1.27.0/Drivers/STM32F4xx_HAL_Driver/Src/stm32f4xx_hal_gpio.c **** /**
 503:/home/christoschristoforou/STM32Cube/Repository/STM32Cube_FW_F4_V1.27.0/Drivers/STM32F4xx_HAL_Driver/Src/stm32f4xx_hal_gpio.c ****   * @brief  EXTI line detection callbacks.
 504:/home/christoschristoforou/STM32Cube/Repository/STM32Cube_FW_F4_V1.27.0/Drivers/STM32F4xx_HAL_Driver/Src/stm32f4xx_hal_gpio.c ****   * @param  GPIO_Pin Specifies the pins connected EXTI line
 505:/home/christoschristoforou/STM32Cube/Repository/STM32Cube_FW_F4_V1.27.0/Drivers/STM32F4xx_HAL_Driver/Src/stm32f4xx_hal_gpio.c ****   * @retval None
 506:/home/christoschristoforou/STM32Cube/Repository/STM32Cube_FW_F4_V1.27.0/Drivers/STM32F4xx_HAL_Driver/Src/stm32f4xx_hal_gpio.c ****   */
 507:/home/christoschristoforou/STM32Cube/Repository/STM32Cube_FW_F4_V1.27.0/Drivers/STM32F4xx_HAL_Driver/Src/stm32f4xx_hal_gpio.c **** __weak void HAL_GPIO_EXTI_Callback(uint16_t GPIO_Pin)
 508:/home/christoschristoforou/STM32Cube/Repository/STM32Cube_FW_F4_V1.27.0/Drivers/STM32F4xx_HAL_Driver/Src/stm32f4xx_hal_gpio.c **** {
 1255              		.loc 1 508 1 is_stmt 1 view -0
 1256              		.cfi_startproc
 1257              		@ args = 0, pretend = 0, frame = 0
 1258              		@ frame_needed = 0, uses_anonymous_args = 0
 1259              		@ link register save eliminated.
 509:/home/christoschristoforou/STM32Cube/Repository/STM32Cube_FW_F4_V1.27.0/Drivers/STM32F4xx_HAL_Driver/Src/stm32f4xx_hal_gpio.c ****   /* Prevent unused argument(s) compilation warning */
 510:/home/christoschristoforou/STM32Cube/Repository/STM32Cube_FW_F4_V1.27.0/Drivers/STM32F4xx_HAL_Driver/Src/stm32f4xx_hal_gpio.c ****   UNUSED(GPIO_Pin);
 1260              		.loc 1 510 3 view .LVU376
 511:/home/christoschristoforou/STM32Cube/Repository/STM32Cube_FW_F4_V1.27.0/Drivers/STM32F4xx_HAL_Driver/Src/stm32f4xx_hal_gpio.c ****   /* NOTE: This function Should not be modified, when the callback is needed,
 512:/home/christoschristoforou/STM32Cube/Repository/STM32Cube_FW_F4_V1.27.0/Drivers/STM32F4xx_HAL_Driver/Src/stm32f4xx_hal_gpio.c ****            the HAL_GPIO_EXTI_Callback could be implemented in the user file
 513:/home/christoschristoforou/STM32Cube/Repository/STM32Cube_FW_F4_V1.27.0/Drivers/STM32F4xx_HAL_Driver/Src/stm32f4xx_hal_gpio.c ****    */
 514:/home/christoschristoforou/STM32Cube/Repository/STM32Cube_FW_F4_V1.27.0/Drivers/STM32F4xx_HAL_Driver/Src/stm32f4xx_hal_gpio.c **** }
 1261              		.loc 1 514 1 is_stmt 0 view .LVU377
 1262 0000 7047     		bx	lr
 1263              		.cfi_endproc
 1264              	.LFE137:
 1266              		.section	.text.HAL_GPIO_EXTI_IRQHandler,"ax",%progbits
 1267              		.align	1
 1268              		.global	HAL_GPIO_EXTI_IRQHandler
 1269              		.syntax unified
 1270              		.thumb
 1271              		.thumb_func
 1272              		.fpu fpv4-sp-d16
 1274              	HAL_GPIO_EXTI_IRQHandler:
 1275              	.LVL105:
 1276              	.LFB136:
 493:/home/christoschristoforou/STM32Cube/Repository/STM32Cube_FW_F4_V1.27.0/Drivers/STM32F4xx_HAL_Driver/Src/stm32f4xx_hal_gpio.c ****   /* EXTI line interrupt detected */
 1277              		.loc 1 493 1 is_stmt 1 view -0
 1278              		.cfi_startproc
 1279              		@ args = 0, pretend = 0, frame = 0
 1280              		@ frame_needed = 0, uses_anonymous_args = 0
 493:/home/christoschristoforou/STM32Cube/Repository/STM32Cube_FW_F4_V1.27.0/Drivers/STM32F4xx_HAL_Driver/Src/stm32f4xx_hal_gpio.c ****   /* EXTI line interrupt detected */
 1281              		.loc 1 493 1 is_stmt 0 view .LVU379
 1282 0000 08B5     		push	{r3, lr}
 1283              	.LCFI11:
 1284              		.cfi_def_cfa_offset 8
 1285              		.cfi_offset 3, -8
 1286              		.cfi_offset 14, -4
 495:/home/christoschristoforou/STM32Cube/Repository/STM32Cube_FW_F4_V1.27.0/Drivers/STM32F4xx_HAL_Driver/Src/stm32f4xx_hal_gpio.c ****   {
 1287              		.loc 1 495 3 is_stmt 1 view .LVU380
ARM GAS  /tmp/ccoZx0qa.s 			page 36


 495:/home/christoschristoforou/STM32Cube/Repository/STM32Cube_FW_F4_V1.27.0/Drivers/STM32F4xx_HAL_Driver/Src/stm32f4xx_hal_gpio.c ****   {
 1288              		.loc 1 495 6 is_stmt 0 view .LVU381
 1289 0002 054B     		ldr	r3, .L99
 1290 0004 5B69     		ldr	r3, [r3, #20]
 495:/home/christoschristoforou/STM32Cube/Repository/STM32Cube_FW_F4_V1.27.0/Drivers/STM32F4xx_HAL_Driver/Src/stm32f4xx_hal_gpio.c ****   {
 1291              		.loc 1 495 5 view .LVU382
 1292 0006 0342     		tst	r3, r0
 1293 0008 00D1     		bne	.L98
 1294              	.LVL106:
 1295              	.L95:
 500:/home/christoschristoforou/STM32Cube/Repository/STM32Cube_FW_F4_V1.27.0/Drivers/STM32F4xx_HAL_Driver/Src/stm32f4xx_hal_gpio.c **** 
 1296              		.loc 1 500 1 view .LVU383
 1297 000a 08BD     		pop	{r3, pc}
 1298              	.LVL107:
 1299              	.L98:
 497:/home/christoschristoforou/STM32Cube/Repository/STM32Cube_FW_F4_V1.27.0/Drivers/STM32F4xx_HAL_Driver/Src/stm32f4xx_hal_gpio.c ****     HAL_GPIO_EXTI_Callback(GPIO_Pin);
 1300              		.loc 1 497 5 is_stmt 1 view .LVU384
 1301 000c 024B     		ldr	r3, .L99
 1302 000e 5861     		str	r0, [r3, #20]
 498:/home/christoschristoforou/STM32Cube/Repository/STM32Cube_FW_F4_V1.27.0/Drivers/STM32F4xx_HAL_Driver/Src/stm32f4xx_hal_gpio.c ****   }
 1303              		.loc 1 498 5 view .LVU385
 1304 0010 FFF7FEFF 		bl	HAL_GPIO_EXTI_Callback
 1305              	.LVL108:
 500:/home/christoschristoforou/STM32Cube/Repository/STM32Cube_FW_F4_V1.27.0/Drivers/STM32F4xx_HAL_Driver/Src/stm32f4xx_hal_gpio.c **** 
 1306              		.loc 1 500 1 is_stmt 0 view .LVU386
 1307 0014 F9E7     		b	.L95
 1308              	.L100:
 1309 0016 00BF     		.align	2
 1310              	.L99:
 1311 0018 003C0140 		.word	1073822720
 1312              		.cfi_endproc
 1313              	.LFE136:
 1315              		.text
 1316              	.Letext0:
 1317              		.file 2 "/usr/lib/gcc/arm-none-eabi/9.2.1/include/stdint.h"
 1318              		.file 3 "/home/christoschristoforou/STM32Cube/Repository/STM32Cube_FW_F4_V1.27.0/Drivers/CMSIS/Inc
 1319              		.file 4 "/home/christoschristoforou/STM32Cube/Repository/STM32Cube_FW_F4_V1.27.0/Drivers/CMSIS/Dev
 1320              		.file 5 "/home/christoschristoforou/STM32Cube/Repository/STM32Cube_FW_F4_V1.27.0/Drivers/CMSIS/Dev
 1321              		.file 6 "/home/christoschristoforou/STM32Cube/Repository/STM32Cube_FW_F4_V1.27.0/Drivers/CMSIS/Dev
 1322              		.file 7 "/home/christoschristoforou/STM32Cube/Repository/STM32Cube_FW_F4_V1.27.0/Drivers/STM32F4xx
 1323              		.file 8 "/home/christoschristoforou/STM32Cube/Repository/STM32Cube_FW_F4_V1.27.0/Drivers/STM32F4xx
 1324              		.file 9 "/home/christoschristoforou/STM32Cube/Repository/STM32Cube_FW_F4_V1.27.0/Drivers/STM32F4xx
 1325              		.file 10 "Core/Inc/stm32f4xx_hal_conf.h"
ARM GAS  /tmp/ccoZx0qa.s 			page 37

