ARM GAS  /tmp/cctZJEWc.s 			page 1


   1              		.cpu cortex-m4
   2              		.eabi_attribute 27, 1
   3              		.eabi_attribute 28, 1
   4              		.eabi_attribute 20, 1
   5              		.eabi_attribute 21, 1
   6              		.eabi_attribute 23, 3
   7              		.eabi_attribute 24, 1
   8              		.eabi_attribute 25, 1
   9              		.eabi_attribute 26, 1
  10              		.eabi_attribute 30, 1
  11              		.eabi_attribute 34, 1
  12              		.eabi_attribute 18, 4
  13              		.file	"stm32f4xx_hal_dma_ex.c"
  14              		.text
  15              	.Ltext0:
  16              		.cfi_sections	.debug_frame
  17              		.section	.text.DMA_MultiBufferSetConfig,"ax",%progbits
  18              		.align	1
  19              		.arch armv7e-m
  20              		.syntax unified
  21              		.thumb
  22              		.thumb_func
  23              		.fpu fpv4-sp-d16
  25              	DMA_MultiBufferSetConfig:
  26              	.LVL0:
  27              	.LFB133:
  28              		.file 1 "/home/christoschristoforou/STM32Cube/Repository/STM32Cube_FW_F4_V1.27.0/Drivers/STM32F4xx
   1:/home/christoschristoforou/STM32Cube/Repository/STM32Cube_FW_F4_V1.27.0/Drivers/STM32F4xx_HAL_Driver/Src/stm32f4xx_hal_dma_ex.c **** /**
   2:/home/christoschristoforou/STM32Cube/Repository/STM32Cube_FW_F4_V1.27.0/Drivers/STM32F4xx_HAL_Driver/Src/stm32f4xx_hal_dma_ex.c ****   ******************************************************************************
   3:/home/christoschristoforou/STM32Cube/Repository/STM32Cube_FW_F4_V1.27.0/Drivers/STM32F4xx_HAL_Driver/Src/stm32f4xx_hal_dma_ex.c ****   * @file    stm32f4xx_hal_dma_ex.c
   4:/home/christoschristoforou/STM32Cube/Repository/STM32Cube_FW_F4_V1.27.0/Drivers/STM32F4xx_HAL_Driver/Src/stm32f4xx_hal_dma_ex.c ****   * @author  MCD Application Team
   5:/home/christoschristoforou/STM32Cube/Repository/STM32Cube_FW_F4_V1.27.0/Drivers/STM32F4xx_HAL_Driver/Src/stm32f4xx_hal_dma_ex.c ****   * @brief   DMA Extension HAL module driver
   6:/home/christoschristoforou/STM32Cube/Repository/STM32Cube_FW_F4_V1.27.0/Drivers/STM32F4xx_HAL_Driver/Src/stm32f4xx_hal_dma_ex.c ****   *         This file provides firmware functions to manage the following 
   7:/home/christoschristoforou/STM32Cube/Repository/STM32Cube_FW_F4_V1.27.0/Drivers/STM32F4xx_HAL_Driver/Src/stm32f4xx_hal_dma_ex.c ****   *         functionalities of the DMA Extension peripheral:
   8:/home/christoschristoforou/STM32Cube/Repository/STM32Cube_FW_F4_V1.27.0/Drivers/STM32F4xx_HAL_Driver/Src/stm32f4xx_hal_dma_ex.c ****   *           + Extended features functions
   9:/home/christoschristoforou/STM32Cube/Repository/STM32Cube_FW_F4_V1.27.0/Drivers/STM32F4xx_HAL_Driver/Src/stm32f4xx_hal_dma_ex.c ****   *
  10:/home/christoschristoforou/STM32Cube/Repository/STM32Cube_FW_F4_V1.27.0/Drivers/STM32F4xx_HAL_Driver/Src/stm32f4xx_hal_dma_ex.c ****   @verbatim
  11:/home/christoschristoforou/STM32Cube/Repository/STM32Cube_FW_F4_V1.27.0/Drivers/STM32F4xx_HAL_Driver/Src/stm32f4xx_hal_dma_ex.c ****   ==============================================================================
  12:/home/christoschristoforou/STM32Cube/Repository/STM32Cube_FW_F4_V1.27.0/Drivers/STM32F4xx_HAL_Driver/Src/stm32f4xx_hal_dma_ex.c ****                         ##### How to use this driver #####
  13:/home/christoschristoforou/STM32Cube/Repository/STM32Cube_FW_F4_V1.27.0/Drivers/STM32F4xx_HAL_Driver/Src/stm32f4xx_hal_dma_ex.c ****   ==============================================================================
  14:/home/christoschristoforou/STM32Cube/Repository/STM32Cube_FW_F4_V1.27.0/Drivers/STM32F4xx_HAL_Driver/Src/stm32f4xx_hal_dma_ex.c ****   [..]
  15:/home/christoschristoforou/STM32Cube/Repository/STM32Cube_FW_F4_V1.27.0/Drivers/STM32F4xx_HAL_Driver/Src/stm32f4xx_hal_dma_ex.c ****   The DMA Extension HAL driver can be used as follows:
  16:/home/christoschristoforou/STM32Cube/Repository/STM32Cube_FW_F4_V1.27.0/Drivers/STM32F4xx_HAL_Driver/Src/stm32f4xx_hal_dma_ex.c ****    (#) Start a multi buffer transfer using the HAL_DMA_MultiBufferStart() function
  17:/home/christoschristoforou/STM32Cube/Repository/STM32Cube_FW_F4_V1.27.0/Drivers/STM32F4xx_HAL_Driver/Src/stm32f4xx_hal_dma_ex.c ****        for polling mode or HAL_DMA_MultiBufferStart_IT() for interrupt mode.
  18:/home/christoschristoforou/STM32Cube/Repository/STM32Cube_FW_F4_V1.27.0/Drivers/STM32F4xx_HAL_Driver/Src/stm32f4xx_hal_dma_ex.c ****                    
  19:/home/christoschristoforou/STM32Cube/Repository/STM32Cube_FW_F4_V1.27.0/Drivers/STM32F4xx_HAL_Driver/Src/stm32f4xx_hal_dma_ex.c ****      -@-  In Memory-to-Memory transfer mode, Multi (Double) Buffer mode is not allowed.
  20:/home/christoschristoforou/STM32Cube/Repository/STM32Cube_FW_F4_V1.27.0/Drivers/STM32F4xx_HAL_Driver/Src/stm32f4xx_hal_dma_ex.c ****      -@-  When Multi (Double) Buffer mode is enabled the, transfer is circular by default.
  21:/home/christoschristoforou/STM32Cube/Repository/STM32Cube_FW_F4_V1.27.0/Drivers/STM32F4xx_HAL_Driver/Src/stm32f4xx_hal_dma_ex.c ****      -@-  In Multi (Double) buffer mode, it is possible to update the base address for 
  22:/home/christoschristoforou/STM32Cube/Repository/STM32Cube_FW_F4_V1.27.0/Drivers/STM32F4xx_HAL_Driver/Src/stm32f4xx_hal_dma_ex.c ****           the AHB memory port on the fly (DMA_SxM0AR or DMA_SxM1AR) when the stream is enabled. 
  23:/home/christoschristoforou/STM32Cube/Repository/STM32Cube_FW_F4_V1.27.0/Drivers/STM32F4xx_HAL_Driver/Src/stm32f4xx_hal_dma_ex.c ****   
  24:/home/christoschristoforou/STM32Cube/Repository/STM32Cube_FW_F4_V1.27.0/Drivers/STM32F4xx_HAL_Driver/Src/stm32f4xx_hal_dma_ex.c ****   @endverbatim
  25:/home/christoschristoforou/STM32Cube/Repository/STM32Cube_FW_F4_V1.27.0/Drivers/STM32F4xx_HAL_Driver/Src/stm32f4xx_hal_dma_ex.c ****   ******************************************************************************
  26:/home/christoschristoforou/STM32Cube/Repository/STM32Cube_FW_F4_V1.27.0/Drivers/STM32F4xx_HAL_Driver/Src/stm32f4xx_hal_dma_ex.c ****   * @attention
  27:/home/christoschristoforou/STM32Cube/Repository/STM32Cube_FW_F4_V1.27.0/Drivers/STM32F4xx_HAL_Driver/Src/stm32f4xx_hal_dma_ex.c ****   *
  28:/home/christoschristoforou/STM32Cube/Repository/STM32Cube_FW_F4_V1.27.0/Drivers/STM32F4xx_HAL_Driver/Src/stm32f4xx_hal_dma_ex.c ****   * Copyright (c) 2017 STMicroelectronics.
  29:/home/christoschristoforou/STM32Cube/Repository/STM32Cube_FW_F4_V1.27.0/Drivers/STM32F4xx_HAL_Driver/Src/stm32f4xx_hal_dma_ex.c ****   * All rights reserved.
  30:/home/christoschristoforou/STM32Cube/Repository/STM32Cube_FW_F4_V1.27.0/Drivers/STM32F4xx_HAL_Driver/Src/stm32f4xx_hal_dma_ex.c ****   *
ARM GAS  /tmp/cctZJEWc.s 			page 2


  31:/home/christoschristoforou/STM32Cube/Repository/STM32Cube_FW_F4_V1.27.0/Drivers/STM32F4xx_HAL_Driver/Src/stm32f4xx_hal_dma_ex.c ****   * This software is licensed under terms that can be found in the LICENSE file in
  32:/home/christoschristoforou/STM32Cube/Repository/STM32Cube_FW_F4_V1.27.0/Drivers/STM32F4xx_HAL_Driver/Src/stm32f4xx_hal_dma_ex.c ****   * the root directory of this software component.
  33:/home/christoschristoforou/STM32Cube/Repository/STM32Cube_FW_F4_V1.27.0/Drivers/STM32F4xx_HAL_Driver/Src/stm32f4xx_hal_dma_ex.c ****   * If no LICENSE file comes with this software, it is provided AS-IS.
  34:/home/christoschristoforou/STM32Cube/Repository/STM32Cube_FW_F4_V1.27.0/Drivers/STM32F4xx_HAL_Driver/Src/stm32f4xx_hal_dma_ex.c ****   *
  35:/home/christoschristoforou/STM32Cube/Repository/STM32Cube_FW_F4_V1.27.0/Drivers/STM32F4xx_HAL_Driver/Src/stm32f4xx_hal_dma_ex.c ****   ******************************************************************************
  36:/home/christoschristoforou/STM32Cube/Repository/STM32Cube_FW_F4_V1.27.0/Drivers/STM32F4xx_HAL_Driver/Src/stm32f4xx_hal_dma_ex.c ****   */
  37:/home/christoschristoforou/STM32Cube/Repository/STM32Cube_FW_F4_V1.27.0/Drivers/STM32F4xx_HAL_Driver/Src/stm32f4xx_hal_dma_ex.c **** 
  38:/home/christoschristoforou/STM32Cube/Repository/STM32Cube_FW_F4_V1.27.0/Drivers/STM32F4xx_HAL_Driver/Src/stm32f4xx_hal_dma_ex.c **** /* Includes ------------------------------------------------------------------*/
  39:/home/christoschristoforou/STM32Cube/Repository/STM32Cube_FW_F4_V1.27.0/Drivers/STM32F4xx_HAL_Driver/Src/stm32f4xx_hal_dma_ex.c **** #include "stm32f4xx_hal.h"
  40:/home/christoschristoforou/STM32Cube/Repository/STM32Cube_FW_F4_V1.27.0/Drivers/STM32F4xx_HAL_Driver/Src/stm32f4xx_hal_dma_ex.c **** 
  41:/home/christoschristoforou/STM32Cube/Repository/STM32Cube_FW_F4_V1.27.0/Drivers/STM32F4xx_HAL_Driver/Src/stm32f4xx_hal_dma_ex.c **** /** @addtogroup STM32F4xx_HAL_Driver
  42:/home/christoschristoforou/STM32Cube/Repository/STM32Cube_FW_F4_V1.27.0/Drivers/STM32F4xx_HAL_Driver/Src/stm32f4xx_hal_dma_ex.c ****   * @{
  43:/home/christoschristoforou/STM32Cube/Repository/STM32Cube_FW_F4_V1.27.0/Drivers/STM32F4xx_HAL_Driver/Src/stm32f4xx_hal_dma_ex.c ****   */
  44:/home/christoschristoforou/STM32Cube/Repository/STM32Cube_FW_F4_V1.27.0/Drivers/STM32F4xx_HAL_Driver/Src/stm32f4xx_hal_dma_ex.c **** 
  45:/home/christoschristoforou/STM32Cube/Repository/STM32Cube_FW_F4_V1.27.0/Drivers/STM32F4xx_HAL_Driver/Src/stm32f4xx_hal_dma_ex.c **** /** @defgroup DMAEx DMAEx
  46:/home/christoschristoforou/STM32Cube/Repository/STM32Cube_FW_F4_V1.27.0/Drivers/STM32F4xx_HAL_Driver/Src/stm32f4xx_hal_dma_ex.c ****   * @brief DMA Extended HAL module driver
  47:/home/christoschristoforou/STM32Cube/Repository/STM32Cube_FW_F4_V1.27.0/Drivers/STM32F4xx_HAL_Driver/Src/stm32f4xx_hal_dma_ex.c ****   * @{
  48:/home/christoschristoforou/STM32Cube/Repository/STM32Cube_FW_F4_V1.27.0/Drivers/STM32F4xx_HAL_Driver/Src/stm32f4xx_hal_dma_ex.c ****   */
  49:/home/christoschristoforou/STM32Cube/Repository/STM32Cube_FW_F4_V1.27.0/Drivers/STM32F4xx_HAL_Driver/Src/stm32f4xx_hal_dma_ex.c **** 
  50:/home/christoschristoforou/STM32Cube/Repository/STM32Cube_FW_F4_V1.27.0/Drivers/STM32F4xx_HAL_Driver/Src/stm32f4xx_hal_dma_ex.c **** #ifdef HAL_DMA_MODULE_ENABLED
  51:/home/christoschristoforou/STM32Cube/Repository/STM32Cube_FW_F4_V1.27.0/Drivers/STM32F4xx_HAL_Driver/Src/stm32f4xx_hal_dma_ex.c **** 
  52:/home/christoschristoforou/STM32Cube/Repository/STM32Cube_FW_F4_V1.27.0/Drivers/STM32F4xx_HAL_Driver/Src/stm32f4xx_hal_dma_ex.c **** /* Private types -------------------------------------------------------------*/
  53:/home/christoschristoforou/STM32Cube/Repository/STM32Cube_FW_F4_V1.27.0/Drivers/STM32F4xx_HAL_Driver/Src/stm32f4xx_hal_dma_ex.c **** /* Private variables ---------------------------------------------------------*/
  54:/home/christoschristoforou/STM32Cube/Repository/STM32Cube_FW_F4_V1.27.0/Drivers/STM32F4xx_HAL_Driver/Src/stm32f4xx_hal_dma_ex.c **** /* Private Constants ---------------------------------------------------------*/
  55:/home/christoschristoforou/STM32Cube/Repository/STM32Cube_FW_F4_V1.27.0/Drivers/STM32F4xx_HAL_Driver/Src/stm32f4xx_hal_dma_ex.c **** /* Private macros ------------------------------------------------------------*/
  56:/home/christoschristoforou/STM32Cube/Repository/STM32Cube_FW_F4_V1.27.0/Drivers/STM32F4xx_HAL_Driver/Src/stm32f4xx_hal_dma_ex.c **** /* Private functions ---------------------------------------------------------*/
  57:/home/christoschristoforou/STM32Cube/Repository/STM32Cube_FW_F4_V1.27.0/Drivers/STM32F4xx_HAL_Driver/Src/stm32f4xx_hal_dma_ex.c **** /** @addtogroup DMAEx_Private_Functions
  58:/home/christoschristoforou/STM32Cube/Repository/STM32Cube_FW_F4_V1.27.0/Drivers/STM32F4xx_HAL_Driver/Src/stm32f4xx_hal_dma_ex.c ****   * @{
  59:/home/christoschristoforou/STM32Cube/Repository/STM32Cube_FW_F4_V1.27.0/Drivers/STM32F4xx_HAL_Driver/Src/stm32f4xx_hal_dma_ex.c ****   */
  60:/home/christoschristoforou/STM32Cube/Repository/STM32Cube_FW_F4_V1.27.0/Drivers/STM32F4xx_HAL_Driver/Src/stm32f4xx_hal_dma_ex.c **** static void DMA_MultiBufferSetConfig(DMA_HandleTypeDef *hdma, uint32_t SrcAddress, uint32_t DstAddr
  61:/home/christoschristoforou/STM32Cube/Repository/STM32Cube_FW_F4_V1.27.0/Drivers/STM32F4xx_HAL_Driver/Src/stm32f4xx_hal_dma_ex.c **** /**
  62:/home/christoschristoforou/STM32Cube/Repository/STM32Cube_FW_F4_V1.27.0/Drivers/STM32F4xx_HAL_Driver/Src/stm32f4xx_hal_dma_ex.c ****   * @}
  63:/home/christoschristoforou/STM32Cube/Repository/STM32Cube_FW_F4_V1.27.0/Drivers/STM32F4xx_HAL_Driver/Src/stm32f4xx_hal_dma_ex.c ****   */
  64:/home/christoschristoforou/STM32Cube/Repository/STM32Cube_FW_F4_V1.27.0/Drivers/STM32F4xx_HAL_Driver/Src/stm32f4xx_hal_dma_ex.c **** 
  65:/home/christoschristoforou/STM32Cube/Repository/STM32Cube_FW_F4_V1.27.0/Drivers/STM32F4xx_HAL_Driver/Src/stm32f4xx_hal_dma_ex.c **** /* Exported functions ---------------------------------------------------------*/
  66:/home/christoschristoforou/STM32Cube/Repository/STM32Cube_FW_F4_V1.27.0/Drivers/STM32F4xx_HAL_Driver/Src/stm32f4xx_hal_dma_ex.c **** 
  67:/home/christoschristoforou/STM32Cube/Repository/STM32Cube_FW_F4_V1.27.0/Drivers/STM32F4xx_HAL_Driver/Src/stm32f4xx_hal_dma_ex.c **** /** @addtogroup DMAEx_Exported_Functions
  68:/home/christoschristoforou/STM32Cube/Repository/STM32Cube_FW_F4_V1.27.0/Drivers/STM32F4xx_HAL_Driver/Src/stm32f4xx_hal_dma_ex.c ****   * @{
  69:/home/christoschristoforou/STM32Cube/Repository/STM32Cube_FW_F4_V1.27.0/Drivers/STM32F4xx_HAL_Driver/Src/stm32f4xx_hal_dma_ex.c ****   */
  70:/home/christoschristoforou/STM32Cube/Repository/STM32Cube_FW_F4_V1.27.0/Drivers/STM32F4xx_HAL_Driver/Src/stm32f4xx_hal_dma_ex.c **** 
  71:/home/christoschristoforou/STM32Cube/Repository/STM32Cube_FW_F4_V1.27.0/Drivers/STM32F4xx_HAL_Driver/Src/stm32f4xx_hal_dma_ex.c **** 
  72:/home/christoschristoforou/STM32Cube/Repository/STM32Cube_FW_F4_V1.27.0/Drivers/STM32F4xx_HAL_Driver/Src/stm32f4xx_hal_dma_ex.c **** /** @addtogroup DMAEx_Exported_Functions_Group1
  73:/home/christoschristoforou/STM32Cube/Repository/STM32Cube_FW_F4_V1.27.0/Drivers/STM32F4xx_HAL_Driver/Src/stm32f4xx_hal_dma_ex.c ****   *
  74:/home/christoschristoforou/STM32Cube/Repository/STM32Cube_FW_F4_V1.27.0/Drivers/STM32F4xx_HAL_Driver/Src/stm32f4xx_hal_dma_ex.c **** @verbatim   
  75:/home/christoschristoforou/STM32Cube/Repository/STM32Cube_FW_F4_V1.27.0/Drivers/STM32F4xx_HAL_Driver/Src/stm32f4xx_hal_dma_ex.c ****  ===============================================================================
  76:/home/christoschristoforou/STM32Cube/Repository/STM32Cube_FW_F4_V1.27.0/Drivers/STM32F4xx_HAL_Driver/Src/stm32f4xx_hal_dma_ex.c ****                 #####  Extended features functions  #####
  77:/home/christoschristoforou/STM32Cube/Repository/STM32Cube_FW_F4_V1.27.0/Drivers/STM32F4xx_HAL_Driver/Src/stm32f4xx_hal_dma_ex.c ****  ===============================================================================  
  78:/home/christoschristoforou/STM32Cube/Repository/STM32Cube_FW_F4_V1.27.0/Drivers/STM32F4xx_HAL_Driver/Src/stm32f4xx_hal_dma_ex.c ****     [..]  This section provides functions allowing to:
  79:/home/christoschristoforou/STM32Cube/Repository/STM32Cube_FW_F4_V1.27.0/Drivers/STM32F4xx_HAL_Driver/Src/stm32f4xx_hal_dma_ex.c ****       (+) Configure the source, destination address and data length and 
  80:/home/christoschristoforou/STM32Cube/Repository/STM32Cube_FW_F4_V1.27.0/Drivers/STM32F4xx_HAL_Driver/Src/stm32f4xx_hal_dma_ex.c ****           Start MultiBuffer DMA transfer
  81:/home/christoschristoforou/STM32Cube/Repository/STM32Cube_FW_F4_V1.27.0/Drivers/STM32F4xx_HAL_Driver/Src/stm32f4xx_hal_dma_ex.c ****       (+) Configure the source, destination address and data length and 
  82:/home/christoschristoforou/STM32Cube/Repository/STM32Cube_FW_F4_V1.27.0/Drivers/STM32F4xx_HAL_Driver/Src/stm32f4xx_hal_dma_ex.c ****           Start MultiBuffer DMA transfer with interrupt
  83:/home/christoschristoforou/STM32Cube/Repository/STM32Cube_FW_F4_V1.27.0/Drivers/STM32F4xx_HAL_Driver/Src/stm32f4xx_hal_dma_ex.c ****       (+) Change on the fly the memory0 or memory1 address.
  84:/home/christoschristoforou/STM32Cube/Repository/STM32Cube_FW_F4_V1.27.0/Drivers/STM32F4xx_HAL_Driver/Src/stm32f4xx_hal_dma_ex.c ****       
  85:/home/christoschristoforou/STM32Cube/Repository/STM32Cube_FW_F4_V1.27.0/Drivers/STM32F4xx_HAL_Driver/Src/stm32f4xx_hal_dma_ex.c **** @endverbatim
  86:/home/christoschristoforou/STM32Cube/Repository/STM32Cube_FW_F4_V1.27.0/Drivers/STM32F4xx_HAL_Driver/Src/stm32f4xx_hal_dma_ex.c ****   * @{
  87:/home/christoschristoforou/STM32Cube/Repository/STM32Cube_FW_F4_V1.27.0/Drivers/STM32F4xx_HAL_Driver/Src/stm32f4xx_hal_dma_ex.c ****   */
ARM GAS  /tmp/cctZJEWc.s 			page 3


  88:/home/christoschristoforou/STM32Cube/Repository/STM32Cube_FW_F4_V1.27.0/Drivers/STM32F4xx_HAL_Driver/Src/stm32f4xx_hal_dma_ex.c **** 
  89:/home/christoschristoforou/STM32Cube/Repository/STM32Cube_FW_F4_V1.27.0/Drivers/STM32F4xx_HAL_Driver/Src/stm32f4xx_hal_dma_ex.c **** 
  90:/home/christoschristoforou/STM32Cube/Repository/STM32Cube_FW_F4_V1.27.0/Drivers/STM32F4xx_HAL_Driver/Src/stm32f4xx_hal_dma_ex.c **** /**
  91:/home/christoschristoforou/STM32Cube/Repository/STM32Cube_FW_F4_V1.27.0/Drivers/STM32F4xx_HAL_Driver/Src/stm32f4xx_hal_dma_ex.c ****   * @brief  Starts the multi_buffer DMA Transfer.
  92:/home/christoschristoforou/STM32Cube/Repository/STM32Cube_FW_F4_V1.27.0/Drivers/STM32F4xx_HAL_Driver/Src/stm32f4xx_hal_dma_ex.c ****   * @param  hdma       pointer to a DMA_HandleTypeDef structure that contains
  93:/home/christoschristoforou/STM32Cube/Repository/STM32Cube_FW_F4_V1.27.0/Drivers/STM32F4xx_HAL_Driver/Src/stm32f4xx_hal_dma_ex.c ****   *                     the configuration information for the specified DMA Stream.  
  94:/home/christoschristoforou/STM32Cube/Repository/STM32Cube_FW_F4_V1.27.0/Drivers/STM32F4xx_HAL_Driver/Src/stm32f4xx_hal_dma_ex.c ****   * @param  SrcAddress The source memory Buffer address
  95:/home/christoschristoforou/STM32Cube/Repository/STM32Cube_FW_F4_V1.27.0/Drivers/STM32F4xx_HAL_Driver/Src/stm32f4xx_hal_dma_ex.c ****   * @param  DstAddress The destination memory Buffer address
  96:/home/christoschristoforou/STM32Cube/Repository/STM32Cube_FW_F4_V1.27.0/Drivers/STM32F4xx_HAL_Driver/Src/stm32f4xx_hal_dma_ex.c ****   * @param  SecondMemAddress The second memory Buffer address in case of multi buffer Transfer  
  97:/home/christoschristoforou/STM32Cube/Repository/STM32Cube_FW_F4_V1.27.0/Drivers/STM32F4xx_HAL_Driver/Src/stm32f4xx_hal_dma_ex.c ****   * @param  DataLength The length of data to be transferred from source to destination
  98:/home/christoschristoforou/STM32Cube/Repository/STM32Cube_FW_F4_V1.27.0/Drivers/STM32F4xx_HAL_Driver/Src/stm32f4xx_hal_dma_ex.c ****   * @retval HAL status
  99:/home/christoschristoforou/STM32Cube/Repository/STM32Cube_FW_F4_V1.27.0/Drivers/STM32F4xx_HAL_Driver/Src/stm32f4xx_hal_dma_ex.c ****   */
 100:/home/christoschristoforou/STM32Cube/Repository/STM32Cube_FW_F4_V1.27.0/Drivers/STM32F4xx_HAL_Driver/Src/stm32f4xx_hal_dma_ex.c **** HAL_StatusTypeDef HAL_DMAEx_MultiBufferStart(DMA_HandleTypeDef *hdma, uint32_t SrcAddress, uint32_t
 101:/home/christoschristoforou/STM32Cube/Repository/STM32Cube_FW_F4_V1.27.0/Drivers/STM32F4xx_HAL_Driver/Src/stm32f4xx_hal_dma_ex.c **** {
 102:/home/christoschristoforou/STM32Cube/Repository/STM32Cube_FW_F4_V1.27.0/Drivers/STM32F4xx_HAL_Driver/Src/stm32f4xx_hal_dma_ex.c ****   HAL_StatusTypeDef status = HAL_OK;
 103:/home/christoschristoforou/STM32Cube/Repository/STM32Cube_FW_F4_V1.27.0/Drivers/STM32F4xx_HAL_Driver/Src/stm32f4xx_hal_dma_ex.c ****   
 104:/home/christoschristoforou/STM32Cube/Repository/STM32Cube_FW_F4_V1.27.0/Drivers/STM32F4xx_HAL_Driver/Src/stm32f4xx_hal_dma_ex.c ****   /* Check the parameters */
 105:/home/christoschristoforou/STM32Cube/Repository/STM32Cube_FW_F4_V1.27.0/Drivers/STM32F4xx_HAL_Driver/Src/stm32f4xx_hal_dma_ex.c ****   assert_param(IS_DMA_BUFFER_SIZE(DataLength));
 106:/home/christoschristoforou/STM32Cube/Repository/STM32Cube_FW_F4_V1.27.0/Drivers/STM32F4xx_HAL_Driver/Src/stm32f4xx_hal_dma_ex.c ****   
 107:/home/christoschristoforou/STM32Cube/Repository/STM32Cube_FW_F4_V1.27.0/Drivers/STM32F4xx_HAL_Driver/Src/stm32f4xx_hal_dma_ex.c ****   /* Memory-to-memory transfer not supported in double buffering mode */
 108:/home/christoschristoforou/STM32Cube/Repository/STM32Cube_FW_F4_V1.27.0/Drivers/STM32F4xx_HAL_Driver/Src/stm32f4xx_hal_dma_ex.c ****   if (hdma->Init.Direction == DMA_MEMORY_TO_MEMORY)
 109:/home/christoschristoforou/STM32Cube/Repository/STM32Cube_FW_F4_V1.27.0/Drivers/STM32F4xx_HAL_Driver/Src/stm32f4xx_hal_dma_ex.c ****   {
 110:/home/christoschristoforou/STM32Cube/Repository/STM32Cube_FW_F4_V1.27.0/Drivers/STM32F4xx_HAL_Driver/Src/stm32f4xx_hal_dma_ex.c ****     hdma->ErrorCode = HAL_DMA_ERROR_NOT_SUPPORTED;
 111:/home/christoschristoforou/STM32Cube/Repository/STM32Cube_FW_F4_V1.27.0/Drivers/STM32F4xx_HAL_Driver/Src/stm32f4xx_hal_dma_ex.c ****     status = HAL_ERROR;
 112:/home/christoschristoforou/STM32Cube/Repository/STM32Cube_FW_F4_V1.27.0/Drivers/STM32F4xx_HAL_Driver/Src/stm32f4xx_hal_dma_ex.c ****   }
 113:/home/christoschristoforou/STM32Cube/Repository/STM32Cube_FW_F4_V1.27.0/Drivers/STM32F4xx_HAL_Driver/Src/stm32f4xx_hal_dma_ex.c ****   else
 114:/home/christoschristoforou/STM32Cube/Repository/STM32Cube_FW_F4_V1.27.0/Drivers/STM32F4xx_HAL_Driver/Src/stm32f4xx_hal_dma_ex.c ****   {
 115:/home/christoschristoforou/STM32Cube/Repository/STM32Cube_FW_F4_V1.27.0/Drivers/STM32F4xx_HAL_Driver/Src/stm32f4xx_hal_dma_ex.c ****     /* Process Locked */
 116:/home/christoschristoforou/STM32Cube/Repository/STM32Cube_FW_F4_V1.27.0/Drivers/STM32F4xx_HAL_Driver/Src/stm32f4xx_hal_dma_ex.c ****     __HAL_LOCK(hdma);
 117:/home/christoschristoforou/STM32Cube/Repository/STM32Cube_FW_F4_V1.27.0/Drivers/STM32F4xx_HAL_Driver/Src/stm32f4xx_hal_dma_ex.c ****     
 118:/home/christoschristoforou/STM32Cube/Repository/STM32Cube_FW_F4_V1.27.0/Drivers/STM32F4xx_HAL_Driver/Src/stm32f4xx_hal_dma_ex.c ****     if(HAL_DMA_STATE_READY == hdma->State)
 119:/home/christoschristoforou/STM32Cube/Repository/STM32Cube_FW_F4_V1.27.0/Drivers/STM32F4xx_HAL_Driver/Src/stm32f4xx_hal_dma_ex.c ****     {
 120:/home/christoschristoforou/STM32Cube/Repository/STM32Cube_FW_F4_V1.27.0/Drivers/STM32F4xx_HAL_Driver/Src/stm32f4xx_hal_dma_ex.c ****       /* Change DMA peripheral state */
 121:/home/christoschristoforou/STM32Cube/Repository/STM32Cube_FW_F4_V1.27.0/Drivers/STM32F4xx_HAL_Driver/Src/stm32f4xx_hal_dma_ex.c ****       hdma->State = HAL_DMA_STATE_BUSY; 
 122:/home/christoschristoforou/STM32Cube/Repository/STM32Cube_FW_F4_V1.27.0/Drivers/STM32F4xx_HAL_Driver/Src/stm32f4xx_hal_dma_ex.c ****       
 123:/home/christoschristoforou/STM32Cube/Repository/STM32Cube_FW_F4_V1.27.0/Drivers/STM32F4xx_HAL_Driver/Src/stm32f4xx_hal_dma_ex.c ****       /* Enable the double buffer mode */
 124:/home/christoschristoforou/STM32Cube/Repository/STM32Cube_FW_F4_V1.27.0/Drivers/STM32F4xx_HAL_Driver/Src/stm32f4xx_hal_dma_ex.c ****       hdma->Instance->CR |= (uint32_t)DMA_SxCR_DBM;
 125:/home/christoschristoforou/STM32Cube/Repository/STM32Cube_FW_F4_V1.27.0/Drivers/STM32F4xx_HAL_Driver/Src/stm32f4xx_hal_dma_ex.c ****       
 126:/home/christoschristoforou/STM32Cube/Repository/STM32Cube_FW_F4_V1.27.0/Drivers/STM32F4xx_HAL_Driver/Src/stm32f4xx_hal_dma_ex.c ****       /* Configure DMA Stream destination address */
 127:/home/christoschristoforou/STM32Cube/Repository/STM32Cube_FW_F4_V1.27.0/Drivers/STM32F4xx_HAL_Driver/Src/stm32f4xx_hal_dma_ex.c ****       hdma->Instance->M1AR = SecondMemAddress;
 128:/home/christoschristoforou/STM32Cube/Repository/STM32Cube_FW_F4_V1.27.0/Drivers/STM32F4xx_HAL_Driver/Src/stm32f4xx_hal_dma_ex.c ****       
 129:/home/christoschristoforou/STM32Cube/Repository/STM32Cube_FW_F4_V1.27.0/Drivers/STM32F4xx_HAL_Driver/Src/stm32f4xx_hal_dma_ex.c ****       /* Configure the source, destination address and the data length */
 130:/home/christoschristoforou/STM32Cube/Repository/STM32Cube_FW_F4_V1.27.0/Drivers/STM32F4xx_HAL_Driver/Src/stm32f4xx_hal_dma_ex.c ****       DMA_MultiBufferSetConfig(hdma, SrcAddress, DstAddress, DataLength);
 131:/home/christoschristoforou/STM32Cube/Repository/STM32Cube_FW_F4_V1.27.0/Drivers/STM32F4xx_HAL_Driver/Src/stm32f4xx_hal_dma_ex.c ****       
 132:/home/christoschristoforou/STM32Cube/Repository/STM32Cube_FW_F4_V1.27.0/Drivers/STM32F4xx_HAL_Driver/Src/stm32f4xx_hal_dma_ex.c ****       /* Enable the peripheral */
 133:/home/christoschristoforou/STM32Cube/Repository/STM32Cube_FW_F4_V1.27.0/Drivers/STM32F4xx_HAL_Driver/Src/stm32f4xx_hal_dma_ex.c ****       __HAL_DMA_ENABLE(hdma);
 134:/home/christoschristoforou/STM32Cube/Repository/STM32Cube_FW_F4_V1.27.0/Drivers/STM32F4xx_HAL_Driver/Src/stm32f4xx_hal_dma_ex.c ****     }
 135:/home/christoschristoforou/STM32Cube/Repository/STM32Cube_FW_F4_V1.27.0/Drivers/STM32F4xx_HAL_Driver/Src/stm32f4xx_hal_dma_ex.c ****     else
 136:/home/christoschristoforou/STM32Cube/Repository/STM32Cube_FW_F4_V1.27.0/Drivers/STM32F4xx_HAL_Driver/Src/stm32f4xx_hal_dma_ex.c ****     {
 137:/home/christoschristoforou/STM32Cube/Repository/STM32Cube_FW_F4_V1.27.0/Drivers/STM32F4xx_HAL_Driver/Src/stm32f4xx_hal_dma_ex.c ****       /* Return error status */
 138:/home/christoschristoforou/STM32Cube/Repository/STM32Cube_FW_F4_V1.27.0/Drivers/STM32F4xx_HAL_Driver/Src/stm32f4xx_hal_dma_ex.c ****       status = HAL_BUSY;
 139:/home/christoschristoforou/STM32Cube/Repository/STM32Cube_FW_F4_V1.27.0/Drivers/STM32F4xx_HAL_Driver/Src/stm32f4xx_hal_dma_ex.c ****     }
 140:/home/christoschristoforou/STM32Cube/Repository/STM32Cube_FW_F4_V1.27.0/Drivers/STM32F4xx_HAL_Driver/Src/stm32f4xx_hal_dma_ex.c ****   }
 141:/home/christoschristoforou/STM32Cube/Repository/STM32Cube_FW_F4_V1.27.0/Drivers/STM32F4xx_HAL_Driver/Src/stm32f4xx_hal_dma_ex.c ****   return status;
 142:/home/christoschristoforou/STM32Cube/Repository/STM32Cube_FW_F4_V1.27.0/Drivers/STM32F4xx_HAL_Driver/Src/stm32f4xx_hal_dma_ex.c **** }
 143:/home/christoschristoforou/STM32Cube/Repository/STM32Cube_FW_F4_V1.27.0/Drivers/STM32F4xx_HAL_Driver/Src/stm32f4xx_hal_dma_ex.c **** 
 144:/home/christoschristoforou/STM32Cube/Repository/STM32Cube_FW_F4_V1.27.0/Drivers/STM32F4xx_HAL_Driver/Src/stm32f4xx_hal_dma_ex.c **** /**
ARM GAS  /tmp/cctZJEWc.s 			page 4


 145:/home/christoschristoforou/STM32Cube/Repository/STM32Cube_FW_F4_V1.27.0/Drivers/STM32F4xx_HAL_Driver/Src/stm32f4xx_hal_dma_ex.c ****   * @brief  Starts the multi_buffer DMA Transfer with interrupt enabled.
 146:/home/christoschristoforou/STM32Cube/Repository/STM32Cube_FW_F4_V1.27.0/Drivers/STM32F4xx_HAL_Driver/Src/stm32f4xx_hal_dma_ex.c ****   * @param  hdma       pointer to a DMA_HandleTypeDef structure that contains
 147:/home/christoschristoforou/STM32Cube/Repository/STM32Cube_FW_F4_V1.27.0/Drivers/STM32F4xx_HAL_Driver/Src/stm32f4xx_hal_dma_ex.c ****   *                     the configuration information for the specified DMA Stream.  
 148:/home/christoschristoforou/STM32Cube/Repository/STM32Cube_FW_F4_V1.27.0/Drivers/STM32F4xx_HAL_Driver/Src/stm32f4xx_hal_dma_ex.c ****   * @param  SrcAddress The source memory Buffer address
 149:/home/christoschristoforou/STM32Cube/Repository/STM32Cube_FW_F4_V1.27.0/Drivers/STM32F4xx_HAL_Driver/Src/stm32f4xx_hal_dma_ex.c ****   * @param  DstAddress The destination memory Buffer address
 150:/home/christoschristoforou/STM32Cube/Repository/STM32Cube_FW_F4_V1.27.0/Drivers/STM32F4xx_HAL_Driver/Src/stm32f4xx_hal_dma_ex.c ****   * @param  SecondMemAddress The second memory Buffer address in case of multi buffer Transfer  
 151:/home/christoschristoforou/STM32Cube/Repository/STM32Cube_FW_F4_V1.27.0/Drivers/STM32F4xx_HAL_Driver/Src/stm32f4xx_hal_dma_ex.c ****   * @param  DataLength The length of data to be transferred from source to destination
 152:/home/christoschristoforou/STM32Cube/Repository/STM32Cube_FW_F4_V1.27.0/Drivers/STM32F4xx_HAL_Driver/Src/stm32f4xx_hal_dma_ex.c ****   * @retval HAL status
 153:/home/christoschristoforou/STM32Cube/Repository/STM32Cube_FW_F4_V1.27.0/Drivers/STM32F4xx_HAL_Driver/Src/stm32f4xx_hal_dma_ex.c ****   */
 154:/home/christoschristoforou/STM32Cube/Repository/STM32Cube_FW_F4_V1.27.0/Drivers/STM32F4xx_HAL_Driver/Src/stm32f4xx_hal_dma_ex.c **** HAL_StatusTypeDef HAL_DMAEx_MultiBufferStart_IT(DMA_HandleTypeDef *hdma, uint32_t SrcAddress, uint3
 155:/home/christoschristoforou/STM32Cube/Repository/STM32Cube_FW_F4_V1.27.0/Drivers/STM32F4xx_HAL_Driver/Src/stm32f4xx_hal_dma_ex.c **** {
 156:/home/christoschristoforou/STM32Cube/Repository/STM32Cube_FW_F4_V1.27.0/Drivers/STM32F4xx_HAL_Driver/Src/stm32f4xx_hal_dma_ex.c ****   HAL_StatusTypeDef status = HAL_OK;
 157:/home/christoschristoforou/STM32Cube/Repository/STM32Cube_FW_F4_V1.27.0/Drivers/STM32F4xx_HAL_Driver/Src/stm32f4xx_hal_dma_ex.c ****   
 158:/home/christoschristoforou/STM32Cube/Repository/STM32Cube_FW_F4_V1.27.0/Drivers/STM32F4xx_HAL_Driver/Src/stm32f4xx_hal_dma_ex.c ****   /* Check the parameters */
 159:/home/christoschristoforou/STM32Cube/Repository/STM32Cube_FW_F4_V1.27.0/Drivers/STM32F4xx_HAL_Driver/Src/stm32f4xx_hal_dma_ex.c ****   assert_param(IS_DMA_BUFFER_SIZE(DataLength));
 160:/home/christoschristoforou/STM32Cube/Repository/STM32Cube_FW_F4_V1.27.0/Drivers/STM32F4xx_HAL_Driver/Src/stm32f4xx_hal_dma_ex.c ****   
 161:/home/christoschristoforou/STM32Cube/Repository/STM32Cube_FW_F4_V1.27.0/Drivers/STM32F4xx_HAL_Driver/Src/stm32f4xx_hal_dma_ex.c ****   /* Memory-to-memory transfer not supported in double buffering mode */
 162:/home/christoschristoforou/STM32Cube/Repository/STM32Cube_FW_F4_V1.27.0/Drivers/STM32F4xx_HAL_Driver/Src/stm32f4xx_hal_dma_ex.c ****   if (hdma->Init.Direction == DMA_MEMORY_TO_MEMORY)
 163:/home/christoschristoforou/STM32Cube/Repository/STM32Cube_FW_F4_V1.27.0/Drivers/STM32F4xx_HAL_Driver/Src/stm32f4xx_hal_dma_ex.c ****   {
 164:/home/christoschristoforou/STM32Cube/Repository/STM32Cube_FW_F4_V1.27.0/Drivers/STM32F4xx_HAL_Driver/Src/stm32f4xx_hal_dma_ex.c ****     hdma->ErrorCode = HAL_DMA_ERROR_NOT_SUPPORTED;
 165:/home/christoschristoforou/STM32Cube/Repository/STM32Cube_FW_F4_V1.27.0/Drivers/STM32F4xx_HAL_Driver/Src/stm32f4xx_hal_dma_ex.c ****     return HAL_ERROR;
 166:/home/christoschristoforou/STM32Cube/Repository/STM32Cube_FW_F4_V1.27.0/Drivers/STM32F4xx_HAL_Driver/Src/stm32f4xx_hal_dma_ex.c ****   }
 167:/home/christoschristoforou/STM32Cube/Repository/STM32Cube_FW_F4_V1.27.0/Drivers/STM32F4xx_HAL_Driver/Src/stm32f4xx_hal_dma_ex.c ****   
 168:/home/christoschristoforou/STM32Cube/Repository/STM32Cube_FW_F4_V1.27.0/Drivers/STM32F4xx_HAL_Driver/Src/stm32f4xx_hal_dma_ex.c ****   /* Check callback functions */
 169:/home/christoschristoforou/STM32Cube/Repository/STM32Cube_FW_F4_V1.27.0/Drivers/STM32F4xx_HAL_Driver/Src/stm32f4xx_hal_dma_ex.c ****   if ((NULL == hdma->XferCpltCallback) || (NULL == hdma->XferM1CpltCallback) || (NULL == hdma->Xfer
 170:/home/christoschristoforou/STM32Cube/Repository/STM32Cube_FW_F4_V1.27.0/Drivers/STM32F4xx_HAL_Driver/Src/stm32f4xx_hal_dma_ex.c ****   {
 171:/home/christoschristoforou/STM32Cube/Repository/STM32Cube_FW_F4_V1.27.0/Drivers/STM32F4xx_HAL_Driver/Src/stm32f4xx_hal_dma_ex.c ****     hdma->ErrorCode = HAL_DMA_ERROR_PARAM;
 172:/home/christoschristoforou/STM32Cube/Repository/STM32Cube_FW_F4_V1.27.0/Drivers/STM32F4xx_HAL_Driver/Src/stm32f4xx_hal_dma_ex.c ****     return HAL_ERROR;
 173:/home/christoschristoforou/STM32Cube/Repository/STM32Cube_FW_F4_V1.27.0/Drivers/STM32F4xx_HAL_Driver/Src/stm32f4xx_hal_dma_ex.c ****   }
 174:/home/christoschristoforou/STM32Cube/Repository/STM32Cube_FW_F4_V1.27.0/Drivers/STM32F4xx_HAL_Driver/Src/stm32f4xx_hal_dma_ex.c ****   
 175:/home/christoschristoforou/STM32Cube/Repository/STM32Cube_FW_F4_V1.27.0/Drivers/STM32F4xx_HAL_Driver/Src/stm32f4xx_hal_dma_ex.c ****   /* Process locked */
 176:/home/christoschristoforou/STM32Cube/Repository/STM32Cube_FW_F4_V1.27.0/Drivers/STM32F4xx_HAL_Driver/Src/stm32f4xx_hal_dma_ex.c ****   __HAL_LOCK(hdma);
 177:/home/christoschristoforou/STM32Cube/Repository/STM32Cube_FW_F4_V1.27.0/Drivers/STM32F4xx_HAL_Driver/Src/stm32f4xx_hal_dma_ex.c ****   
 178:/home/christoschristoforou/STM32Cube/Repository/STM32Cube_FW_F4_V1.27.0/Drivers/STM32F4xx_HAL_Driver/Src/stm32f4xx_hal_dma_ex.c ****   if(HAL_DMA_STATE_READY == hdma->State)
 179:/home/christoschristoforou/STM32Cube/Repository/STM32Cube_FW_F4_V1.27.0/Drivers/STM32F4xx_HAL_Driver/Src/stm32f4xx_hal_dma_ex.c ****   {
 180:/home/christoschristoforou/STM32Cube/Repository/STM32Cube_FW_F4_V1.27.0/Drivers/STM32F4xx_HAL_Driver/Src/stm32f4xx_hal_dma_ex.c ****     /* Change DMA peripheral state */
 181:/home/christoschristoforou/STM32Cube/Repository/STM32Cube_FW_F4_V1.27.0/Drivers/STM32F4xx_HAL_Driver/Src/stm32f4xx_hal_dma_ex.c ****     hdma->State = HAL_DMA_STATE_BUSY;
 182:/home/christoschristoforou/STM32Cube/Repository/STM32Cube_FW_F4_V1.27.0/Drivers/STM32F4xx_HAL_Driver/Src/stm32f4xx_hal_dma_ex.c ****     
 183:/home/christoschristoforou/STM32Cube/Repository/STM32Cube_FW_F4_V1.27.0/Drivers/STM32F4xx_HAL_Driver/Src/stm32f4xx_hal_dma_ex.c ****     /* Initialize the error code */
 184:/home/christoschristoforou/STM32Cube/Repository/STM32Cube_FW_F4_V1.27.0/Drivers/STM32F4xx_HAL_Driver/Src/stm32f4xx_hal_dma_ex.c ****     hdma->ErrorCode = HAL_DMA_ERROR_NONE;
 185:/home/christoschristoforou/STM32Cube/Repository/STM32Cube_FW_F4_V1.27.0/Drivers/STM32F4xx_HAL_Driver/Src/stm32f4xx_hal_dma_ex.c ****     
 186:/home/christoschristoforou/STM32Cube/Repository/STM32Cube_FW_F4_V1.27.0/Drivers/STM32F4xx_HAL_Driver/Src/stm32f4xx_hal_dma_ex.c ****     /* Enable the Double buffer mode */
 187:/home/christoschristoforou/STM32Cube/Repository/STM32Cube_FW_F4_V1.27.0/Drivers/STM32F4xx_HAL_Driver/Src/stm32f4xx_hal_dma_ex.c ****     hdma->Instance->CR |= (uint32_t)DMA_SxCR_DBM;
 188:/home/christoschristoforou/STM32Cube/Repository/STM32Cube_FW_F4_V1.27.0/Drivers/STM32F4xx_HAL_Driver/Src/stm32f4xx_hal_dma_ex.c ****     
 189:/home/christoschristoforou/STM32Cube/Repository/STM32Cube_FW_F4_V1.27.0/Drivers/STM32F4xx_HAL_Driver/Src/stm32f4xx_hal_dma_ex.c ****     /* Configure DMA Stream destination address */
 190:/home/christoschristoforou/STM32Cube/Repository/STM32Cube_FW_F4_V1.27.0/Drivers/STM32F4xx_HAL_Driver/Src/stm32f4xx_hal_dma_ex.c ****     hdma->Instance->M1AR = SecondMemAddress;
 191:/home/christoschristoforou/STM32Cube/Repository/STM32Cube_FW_F4_V1.27.0/Drivers/STM32F4xx_HAL_Driver/Src/stm32f4xx_hal_dma_ex.c ****     
 192:/home/christoschristoforou/STM32Cube/Repository/STM32Cube_FW_F4_V1.27.0/Drivers/STM32F4xx_HAL_Driver/Src/stm32f4xx_hal_dma_ex.c ****     /* Configure the source, destination address and the data length */
 193:/home/christoschristoforou/STM32Cube/Repository/STM32Cube_FW_F4_V1.27.0/Drivers/STM32F4xx_HAL_Driver/Src/stm32f4xx_hal_dma_ex.c ****     DMA_MultiBufferSetConfig(hdma, SrcAddress, DstAddress, DataLength); 
 194:/home/christoschristoforou/STM32Cube/Repository/STM32Cube_FW_F4_V1.27.0/Drivers/STM32F4xx_HAL_Driver/Src/stm32f4xx_hal_dma_ex.c ****     
 195:/home/christoschristoforou/STM32Cube/Repository/STM32Cube_FW_F4_V1.27.0/Drivers/STM32F4xx_HAL_Driver/Src/stm32f4xx_hal_dma_ex.c ****     /* Clear all flags */
 196:/home/christoschristoforou/STM32Cube/Repository/STM32Cube_FW_F4_V1.27.0/Drivers/STM32F4xx_HAL_Driver/Src/stm32f4xx_hal_dma_ex.c ****     __HAL_DMA_CLEAR_FLAG (hdma, __HAL_DMA_GET_TC_FLAG_INDEX(hdma));
 197:/home/christoschristoforou/STM32Cube/Repository/STM32Cube_FW_F4_V1.27.0/Drivers/STM32F4xx_HAL_Driver/Src/stm32f4xx_hal_dma_ex.c ****     __HAL_DMA_CLEAR_FLAG (hdma, __HAL_DMA_GET_HT_FLAG_INDEX(hdma));
 198:/home/christoschristoforou/STM32Cube/Repository/STM32Cube_FW_F4_V1.27.0/Drivers/STM32F4xx_HAL_Driver/Src/stm32f4xx_hal_dma_ex.c ****     __HAL_DMA_CLEAR_FLAG (hdma, __HAL_DMA_GET_TE_FLAG_INDEX(hdma));
 199:/home/christoschristoforou/STM32Cube/Repository/STM32Cube_FW_F4_V1.27.0/Drivers/STM32F4xx_HAL_Driver/Src/stm32f4xx_hal_dma_ex.c ****     __HAL_DMA_CLEAR_FLAG (hdma, __HAL_DMA_GET_DME_FLAG_INDEX(hdma));
 200:/home/christoschristoforou/STM32Cube/Repository/STM32Cube_FW_F4_V1.27.0/Drivers/STM32F4xx_HAL_Driver/Src/stm32f4xx_hal_dma_ex.c ****     __HAL_DMA_CLEAR_FLAG (hdma, __HAL_DMA_GET_FE_FLAG_INDEX(hdma));
 201:/home/christoschristoforou/STM32Cube/Repository/STM32Cube_FW_F4_V1.27.0/Drivers/STM32F4xx_HAL_Driver/Src/stm32f4xx_hal_dma_ex.c **** 
ARM GAS  /tmp/cctZJEWc.s 			page 5


 202:/home/christoschristoforou/STM32Cube/Repository/STM32Cube_FW_F4_V1.27.0/Drivers/STM32F4xx_HAL_Driver/Src/stm32f4xx_hal_dma_ex.c ****     /* Enable Common interrupts*/
 203:/home/christoschristoforou/STM32Cube/Repository/STM32Cube_FW_F4_V1.27.0/Drivers/STM32F4xx_HAL_Driver/Src/stm32f4xx_hal_dma_ex.c ****     hdma->Instance->CR  |= DMA_IT_TC | DMA_IT_TE | DMA_IT_DME;
 204:/home/christoschristoforou/STM32Cube/Repository/STM32Cube_FW_F4_V1.27.0/Drivers/STM32F4xx_HAL_Driver/Src/stm32f4xx_hal_dma_ex.c ****     hdma->Instance->FCR |= DMA_IT_FE;
 205:/home/christoschristoforou/STM32Cube/Repository/STM32Cube_FW_F4_V1.27.0/Drivers/STM32F4xx_HAL_Driver/Src/stm32f4xx_hal_dma_ex.c ****     
 206:/home/christoschristoforou/STM32Cube/Repository/STM32Cube_FW_F4_V1.27.0/Drivers/STM32F4xx_HAL_Driver/Src/stm32f4xx_hal_dma_ex.c ****     if((hdma->XferHalfCpltCallback != NULL) || (hdma->XferM1HalfCpltCallback != NULL))
 207:/home/christoschristoforou/STM32Cube/Repository/STM32Cube_FW_F4_V1.27.0/Drivers/STM32F4xx_HAL_Driver/Src/stm32f4xx_hal_dma_ex.c ****     {
 208:/home/christoschristoforou/STM32Cube/Repository/STM32Cube_FW_F4_V1.27.0/Drivers/STM32F4xx_HAL_Driver/Src/stm32f4xx_hal_dma_ex.c ****       hdma->Instance->CR  |= DMA_IT_HT;
 209:/home/christoschristoforou/STM32Cube/Repository/STM32Cube_FW_F4_V1.27.0/Drivers/STM32F4xx_HAL_Driver/Src/stm32f4xx_hal_dma_ex.c ****     }
 210:/home/christoschristoforou/STM32Cube/Repository/STM32Cube_FW_F4_V1.27.0/Drivers/STM32F4xx_HAL_Driver/Src/stm32f4xx_hal_dma_ex.c ****     
 211:/home/christoschristoforou/STM32Cube/Repository/STM32Cube_FW_F4_V1.27.0/Drivers/STM32F4xx_HAL_Driver/Src/stm32f4xx_hal_dma_ex.c ****     /* Enable the peripheral */
 212:/home/christoschristoforou/STM32Cube/Repository/STM32Cube_FW_F4_V1.27.0/Drivers/STM32F4xx_HAL_Driver/Src/stm32f4xx_hal_dma_ex.c ****     __HAL_DMA_ENABLE(hdma); 
 213:/home/christoschristoforou/STM32Cube/Repository/STM32Cube_FW_F4_V1.27.0/Drivers/STM32F4xx_HAL_Driver/Src/stm32f4xx_hal_dma_ex.c ****   }
 214:/home/christoschristoforou/STM32Cube/Repository/STM32Cube_FW_F4_V1.27.0/Drivers/STM32F4xx_HAL_Driver/Src/stm32f4xx_hal_dma_ex.c ****   else
 215:/home/christoschristoforou/STM32Cube/Repository/STM32Cube_FW_F4_V1.27.0/Drivers/STM32F4xx_HAL_Driver/Src/stm32f4xx_hal_dma_ex.c ****   {     
 216:/home/christoschristoforou/STM32Cube/Repository/STM32Cube_FW_F4_V1.27.0/Drivers/STM32F4xx_HAL_Driver/Src/stm32f4xx_hal_dma_ex.c ****     /* Process unlocked */
 217:/home/christoschristoforou/STM32Cube/Repository/STM32Cube_FW_F4_V1.27.0/Drivers/STM32F4xx_HAL_Driver/Src/stm32f4xx_hal_dma_ex.c ****     __HAL_UNLOCK(hdma);	  
 218:/home/christoschristoforou/STM32Cube/Repository/STM32Cube_FW_F4_V1.27.0/Drivers/STM32F4xx_HAL_Driver/Src/stm32f4xx_hal_dma_ex.c ****     
 219:/home/christoschristoforou/STM32Cube/Repository/STM32Cube_FW_F4_V1.27.0/Drivers/STM32F4xx_HAL_Driver/Src/stm32f4xx_hal_dma_ex.c ****     /* Return error status */
 220:/home/christoschristoforou/STM32Cube/Repository/STM32Cube_FW_F4_V1.27.0/Drivers/STM32F4xx_HAL_Driver/Src/stm32f4xx_hal_dma_ex.c ****     status = HAL_BUSY;
 221:/home/christoschristoforou/STM32Cube/Repository/STM32Cube_FW_F4_V1.27.0/Drivers/STM32F4xx_HAL_Driver/Src/stm32f4xx_hal_dma_ex.c ****   }  
 222:/home/christoschristoforou/STM32Cube/Repository/STM32Cube_FW_F4_V1.27.0/Drivers/STM32F4xx_HAL_Driver/Src/stm32f4xx_hal_dma_ex.c ****   return status; 
 223:/home/christoschristoforou/STM32Cube/Repository/STM32Cube_FW_F4_V1.27.0/Drivers/STM32F4xx_HAL_Driver/Src/stm32f4xx_hal_dma_ex.c **** }
 224:/home/christoschristoforou/STM32Cube/Repository/STM32Cube_FW_F4_V1.27.0/Drivers/STM32F4xx_HAL_Driver/Src/stm32f4xx_hal_dma_ex.c **** 
 225:/home/christoschristoforou/STM32Cube/Repository/STM32Cube_FW_F4_V1.27.0/Drivers/STM32F4xx_HAL_Driver/Src/stm32f4xx_hal_dma_ex.c **** /**
 226:/home/christoschristoforou/STM32Cube/Repository/STM32Cube_FW_F4_V1.27.0/Drivers/STM32F4xx_HAL_Driver/Src/stm32f4xx_hal_dma_ex.c ****   * @brief  Change the memory0 or memory1 address on the fly.
 227:/home/christoschristoforou/STM32Cube/Repository/STM32Cube_FW_F4_V1.27.0/Drivers/STM32F4xx_HAL_Driver/Src/stm32f4xx_hal_dma_ex.c ****   * @param  hdma       pointer to a DMA_HandleTypeDef structure that contains
 228:/home/christoschristoforou/STM32Cube/Repository/STM32Cube_FW_F4_V1.27.0/Drivers/STM32F4xx_HAL_Driver/Src/stm32f4xx_hal_dma_ex.c ****   *                     the configuration information for the specified DMA Stream.  
 229:/home/christoschristoforou/STM32Cube/Repository/STM32Cube_FW_F4_V1.27.0/Drivers/STM32F4xx_HAL_Driver/Src/stm32f4xx_hal_dma_ex.c ****   * @param  Address    The new address
 230:/home/christoschristoforou/STM32Cube/Repository/STM32Cube_FW_F4_V1.27.0/Drivers/STM32F4xx_HAL_Driver/Src/stm32f4xx_hal_dma_ex.c ****   * @param  memory     the memory to be changed, This parameter can be one of 
 231:/home/christoschristoforou/STM32Cube/Repository/STM32Cube_FW_F4_V1.27.0/Drivers/STM32F4xx_HAL_Driver/Src/stm32f4xx_hal_dma_ex.c ****   *                     the following values:
 232:/home/christoschristoforou/STM32Cube/Repository/STM32Cube_FW_F4_V1.27.0/Drivers/STM32F4xx_HAL_Driver/Src/stm32f4xx_hal_dma_ex.c ****   *                      MEMORY0 /
 233:/home/christoschristoforou/STM32Cube/Repository/STM32Cube_FW_F4_V1.27.0/Drivers/STM32F4xx_HAL_Driver/Src/stm32f4xx_hal_dma_ex.c ****   *                      MEMORY1
 234:/home/christoschristoforou/STM32Cube/Repository/STM32Cube_FW_F4_V1.27.0/Drivers/STM32F4xx_HAL_Driver/Src/stm32f4xx_hal_dma_ex.c ****   * @note   The MEMORY0 address can be changed only when the current transfer use
 235:/home/christoschristoforou/STM32Cube/Repository/STM32Cube_FW_F4_V1.27.0/Drivers/STM32F4xx_HAL_Driver/Src/stm32f4xx_hal_dma_ex.c ****   *         MEMORY1 and the MEMORY1 address can be changed only when the current 
 236:/home/christoschristoforou/STM32Cube/Repository/STM32Cube_FW_F4_V1.27.0/Drivers/STM32F4xx_HAL_Driver/Src/stm32f4xx_hal_dma_ex.c ****   *         transfer use MEMORY0.
 237:/home/christoschristoforou/STM32Cube/Repository/STM32Cube_FW_F4_V1.27.0/Drivers/STM32F4xx_HAL_Driver/Src/stm32f4xx_hal_dma_ex.c ****   * @retval HAL status
 238:/home/christoschristoforou/STM32Cube/Repository/STM32Cube_FW_F4_V1.27.0/Drivers/STM32F4xx_HAL_Driver/Src/stm32f4xx_hal_dma_ex.c ****   */
 239:/home/christoschristoforou/STM32Cube/Repository/STM32Cube_FW_F4_V1.27.0/Drivers/STM32F4xx_HAL_Driver/Src/stm32f4xx_hal_dma_ex.c **** HAL_StatusTypeDef HAL_DMAEx_ChangeMemory(DMA_HandleTypeDef *hdma, uint32_t Address, HAL_DMA_MemoryT
 240:/home/christoschristoforou/STM32Cube/Repository/STM32Cube_FW_F4_V1.27.0/Drivers/STM32F4xx_HAL_Driver/Src/stm32f4xx_hal_dma_ex.c **** {
 241:/home/christoschristoforou/STM32Cube/Repository/STM32Cube_FW_F4_V1.27.0/Drivers/STM32F4xx_HAL_Driver/Src/stm32f4xx_hal_dma_ex.c ****   if(memory == MEMORY0)
 242:/home/christoschristoforou/STM32Cube/Repository/STM32Cube_FW_F4_V1.27.0/Drivers/STM32F4xx_HAL_Driver/Src/stm32f4xx_hal_dma_ex.c ****   {
 243:/home/christoschristoforou/STM32Cube/Repository/STM32Cube_FW_F4_V1.27.0/Drivers/STM32F4xx_HAL_Driver/Src/stm32f4xx_hal_dma_ex.c ****     /* change the memory0 address */
 244:/home/christoschristoforou/STM32Cube/Repository/STM32Cube_FW_F4_V1.27.0/Drivers/STM32F4xx_HAL_Driver/Src/stm32f4xx_hal_dma_ex.c ****     hdma->Instance->M0AR = Address;
 245:/home/christoschristoforou/STM32Cube/Repository/STM32Cube_FW_F4_V1.27.0/Drivers/STM32F4xx_HAL_Driver/Src/stm32f4xx_hal_dma_ex.c ****   }
 246:/home/christoschristoforou/STM32Cube/Repository/STM32Cube_FW_F4_V1.27.0/Drivers/STM32F4xx_HAL_Driver/Src/stm32f4xx_hal_dma_ex.c ****   else
 247:/home/christoschristoforou/STM32Cube/Repository/STM32Cube_FW_F4_V1.27.0/Drivers/STM32F4xx_HAL_Driver/Src/stm32f4xx_hal_dma_ex.c ****   {
 248:/home/christoschristoforou/STM32Cube/Repository/STM32Cube_FW_F4_V1.27.0/Drivers/STM32F4xx_HAL_Driver/Src/stm32f4xx_hal_dma_ex.c ****     /* change the memory1 address */
 249:/home/christoschristoforou/STM32Cube/Repository/STM32Cube_FW_F4_V1.27.0/Drivers/STM32F4xx_HAL_Driver/Src/stm32f4xx_hal_dma_ex.c ****     hdma->Instance->M1AR = Address;
 250:/home/christoschristoforou/STM32Cube/Repository/STM32Cube_FW_F4_V1.27.0/Drivers/STM32F4xx_HAL_Driver/Src/stm32f4xx_hal_dma_ex.c ****   }
 251:/home/christoschristoforou/STM32Cube/Repository/STM32Cube_FW_F4_V1.27.0/Drivers/STM32F4xx_HAL_Driver/Src/stm32f4xx_hal_dma_ex.c **** 
 252:/home/christoschristoforou/STM32Cube/Repository/STM32Cube_FW_F4_V1.27.0/Drivers/STM32F4xx_HAL_Driver/Src/stm32f4xx_hal_dma_ex.c ****   return HAL_OK;
 253:/home/christoschristoforou/STM32Cube/Repository/STM32Cube_FW_F4_V1.27.0/Drivers/STM32F4xx_HAL_Driver/Src/stm32f4xx_hal_dma_ex.c **** }
 254:/home/christoschristoforou/STM32Cube/Repository/STM32Cube_FW_F4_V1.27.0/Drivers/STM32F4xx_HAL_Driver/Src/stm32f4xx_hal_dma_ex.c **** 
 255:/home/christoschristoforou/STM32Cube/Repository/STM32Cube_FW_F4_V1.27.0/Drivers/STM32F4xx_HAL_Driver/Src/stm32f4xx_hal_dma_ex.c **** /**
 256:/home/christoschristoforou/STM32Cube/Repository/STM32Cube_FW_F4_V1.27.0/Drivers/STM32F4xx_HAL_Driver/Src/stm32f4xx_hal_dma_ex.c ****   * @}
 257:/home/christoschristoforou/STM32Cube/Repository/STM32Cube_FW_F4_V1.27.0/Drivers/STM32F4xx_HAL_Driver/Src/stm32f4xx_hal_dma_ex.c ****   */
 258:/home/christoschristoforou/STM32Cube/Repository/STM32Cube_FW_F4_V1.27.0/Drivers/STM32F4xx_HAL_Driver/Src/stm32f4xx_hal_dma_ex.c **** 
ARM GAS  /tmp/cctZJEWc.s 			page 6


 259:/home/christoschristoforou/STM32Cube/Repository/STM32Cube_FW_F4_V1.27.0/Drivers/STM32F4xx_HAL_Driver/Src/stm32f4xx_hal_dma_ex.c **** /**
 260:/home/christoschristoforou/STM32Cube/Repository/STM32Cube_FW_F4_V1.27.0/Drivers/STM32F4xx_HAL_Driver/Src/stm32f4xx_hal_dma_ex.c ****   * @}
 261:/home/christoschristoforou/STM32Cube/Repository/STM32Cube_FW_F4_V1.27.0/Drivers/STM32F4xx_HAL_Driver/Src/stm32f4xx_hal_dma_ex.c ****   */
 262:/home/christoschristoforou/STM32Cube/Repository/STM32Cube_FW_F4_V1.27.0/Drivers/STM32F4xx_HAL_Driver/Src/stm32f4xx_hal_dma_ex.c **** 
 263:/home/christoschristoforou/STM32Cube/Repository/STM32Cube_FW_F4_V1.27.0/Drivers/STM32F4xx_HAL_Driver/Src/stm32f4xx_hal_dma_ex.c **** /** @addtogroup DMAEx_Private_Functions
 264:/home/christoschristoforou/STM32Cube/Repository/STM32Cube_FW_F4_V1.27.0/Drivers/STM32F4xx_HAL_Driver/Src/stm32f4xx_hal_dma_ex.c ****   * @{
 265:/home/christoschristoforou/STM32Cube/Repository/STM32Cube_FW_F4_V1.27.0/Drivers/STM32F4xx_HAL_Driver/Src/stm32f4xx_hal_dma_ex.c ****   */
 266:/home/christoschristoforou/STM32Cube/Repository/STM32Cube_FW_F4_V1.27.0/Drivers/STM32F4xx_HAL_Driver/Src/stm32f4xx_hal_dma_ex.c **** 
 267:/home/christoschristoforou/STM32Cube/Repository/STM32Cube_FW_F4_V1.27.0/Drivers/STM32F4xx_HAL_Driver/Src/stm32f4xx_hal_dma_ex.c **** /**
 268:/home/christoschristoforou/STM32Cube/Repository/STM32Cube_FW_F4_V1.27.0/Drivers/STM32F4xx_HAL_Driver/Src/stm32f4xx_hal_dma_ex.c ****   * @brief  Set the DMA Transfer parameter.
 269:/home/christoschristoforou/STM32Cube/Repository/STM32Cube_FW_F4_V1.27.0/Drivers/STM32F4xx_HAL_Driver/Src/stm32f4xx_hal_dma_ex.c ****   * @param  hdma       pointer to a DMA_HandleTypeDef structure that contains
 270:/home/christoschristoforou/STM32Cube/Repository/STM32Cube_FW_F4_V1.27.0/Drivers/STM32F4xx_HAL_Driver/Src/stm32f4xx_hal_dma_ex.c ****   *                     the configuration information for the specified DMA Stream.  
 271:/home/christoschristoforou/STM32Cube/Repository/STM32Cube_FW_F4_V1.27.0/Drivers/STM32F4xx_HAL_Driver/Src/stm32f4xx_hal_dma_ex.c ****   * @param  SrcAddress The source memory Buffer address
 272:/home/christoschristoforou/STM32Cube/Repository/STM32Cube_FW_F4_V1.27.0/Drivers/STM32F4xx_HAL_Driver/Src/stm32f4xx_hal_dma_ex.c ****   * @param  DstAddress The destination memory Buffer address
 273:/home/christoschristoforou/STM32Cube/Repository/STM32Cube_FW_F4_V1.27.0/Drivers/STM32F4xx_HAL_Driver/Src/stm32f4xx_hal_dma_ex.c ****   * @param  DataLength The length of data to be transferred from source to destination
 274:/home/christoschristoforou/STM32Cube/Repository/STM32Cube_FW_F4_V1.27.0/Drivers/STM32F4xx_HAL_Driver/Src/stm32f4xx_hal_dma_ex.c ****   * @retval HAL status
 275:/home/christoschristoforou/STM32Cube/Repository/STM32Cube_FW_F4_V1.27.0/Drivers/STM32F4xx_HAL_Driver/Src/stm32f4xx_hal_dma_ex.c ****   */
 276:/home/christoschristoforou/STM32Cube/Repository/STM32Cube_FW_F4_V1.27.0/Drivers/STM32F4xx_HAL_Driver/Src/stm32f4xx_hal_dma_ex.c **** static void DMA_MultiBufferSetConfig(DMA_HandleTypeDef *hdma, uint32_t SrcAddress, uint32_t DstAddr
 277:/home/christoschristoforou/STM32Cube/Repository/STM32Cube_FW_F4_V1.27.0/Drivers/STM32F4xx_HAL_Driver/Src/stm32f4xx_hal_dma_ex.c **** {  
  29              		.loc 1 277 1 view -0
  30              		.cfi_startproc
  31              		@ args = 0, pretend = 0, frame = 0
  32              		@ frame_needed = 0, uses_anonymous_args = 0
  33              		@ link register save eliminated.
  34              		.loc 1 277 1 is_stmt 0 view .LVU1
  35 0000 10B4     		push	{r4}
  36              	.LCFI0:
  37              		.cfi_def_cfa_offset 4
  38              		.cfi_offset 4, -4
 278:/home/christoschristoforou/STM32Cube/Repository/STM32Cube_FW_F4_V1.27.0/Drivers/STM32F4xx_HAL_Driver/Src/stm32f4xx_hal_dma_ex.c ****   /* Configure DMA Stream data length */
 279:/home/christoschristoforou/STM32Cube/Repository/STM32Cube_FW_F4_V1.27.0/Drivers/STM32F4xx_HAL_Driver/Src/stm32f4xx_hal_dma_ex.c ****   hdma->Instance->NDTR = DataLength;
  39              		.loc 1 279 3 is_stmt 1 view .LVU2
  40              		.loc 1 279 7 is_stmt 0 view .LVU3
  41 0002 0468     		ldr	r4, [r0]
  42              		.loc 1 279 24 view .LVU4
  43 0004 6360     		str	r3, [r4, #4]
 280:/home/christoschristoforou/STM32Cube/Repository/STM32Cube_FW_F4_V1.27.0/Drivers/STM32F4xx_HAL_Driver/Src/stm32f4xx_hal_dma_ex.c ****   
 281:/home/christoschristoforou/STM32Cube/Repository/STM32Cube_FW_F4_V1.27.0/Drivers/STM32F4xx_HAL_Driver/Src/stm32f4xx_hal_dma_ex.c ****   /* Peripheral to Memory */
 282:/home/christoschristoforou/STM32Cube/Repository/STM32Cube_FW_F4_V1.27.0/Drivers/STM32F4xx_HAL_Driver/Src/stm32f4xx_hal_dma_ex.c ****   if((hdma->Init.Direction) == DMA_MEMORY_TO_PERIPH)
  44              		.loc 1 282 3 is_stmt 1 view .LVU5
  45              		.loc 1 282 17 is_stmt 0 view .LVU6
  46 0006 8368     		ldr	r3, [r0, #8]
  47              	.LVL1:
  48              		.loc 1 282 5 view .LVU7
  49 0008 402B     		cmp	r3, #64
  50 000a 06D0     		beq	.L5
 283:/home/christoschristoforou/STM32Cube/Repository/STM32Cube_FW_F4_V1.27.0/Drivers/STM32F4xx_HAL_Driver/Src/stm32f4xx_hal_dma_ex.c ****   {   
 284:/home/christoschristoforou/STM32Cube/Repository/STM32Cube_FW_F4_V1.27.0/Drivers/STM32F4xx_HAL_Driver/Src/stm32f4xx_hal_dma_ex.c ****     /* Configure DMA Stream destination address */
 285:/home/christoschristoforou/STM32Cube/Repository/STM32Cube_FW_F4_V1.27.0/Drivers/STM32F4xx_HAL_Driver/Src/stm32f4xx_hal_dma_ex.c ****     hdma->Instance->PAR = DstAddress;
 286:/home/christoschristoforou/STM32Cube/Repository/STM32Cube_FW_F4_V1.27.0/Drivers/STM32F4xx_HAL_Driver/Src/stm32f4xx_hal_dma_ex.c ****     
 287:/home/christoschristoforou/STM32Cube/Repository/STM32Cube_FW_F4_V1.27.0/Drivers/STM32F4xx_HAL_Driver/Src/stm32f4xx_hal_dma_ex.c ****     /* Configure DMA Stream source address */
 288:/home/christoschristoforou/STM32Cube/Repository/STM32Cube_FW_F4_V1.27.0/Drivers/STM32F4xx_HAL_Driver/Src/stm32f4xx_hal_dma_ex.c ****     hdma->Instance->M0AR = SrcAddress;
 289:/home/christoschristoforou/STM32Cube/Repository/STM32Cube_FW_F4_V1.27.0/Drivers/STM32F4xx_HAL_Driver/Src/stm32f4xx_hal_dma_ex.c ****   }
 290:/home/christoschristoforou/STM32Cube/Repository/STM32Cube_FW_F4_V1.27.0/Drivers/STM32F4xx_HAL_Driver/Src/stm32f4xx_hal_dma_ex.c ****   /* Memory to Peripheral */
 291:/home/christoschristoforou/STM32Cube/Repository/STM32Cube_FW_F4_V1.27.0/Drivers/STM32F4xx_HAL_Driver/Src/stm32f4xx_hal_dma_ex.c ****   else
 292:/home/christoschristoforou/STM32Cube/Repository/STM32Cube_FW_F4_V1.27.0/Drivers/STM32F4xx_HAL_Driver/Src/stm32f4xx_hal_dma_ex.c ****   {
 293:/home/christoschristoforou/STM32Cube/Repository/STM32Cube_FW_F4_V1.27.0/Drivers/STM32F4xx_HAL_Driver/Src/stm32f4xx_hal_dma_ex.c ****     /* Configure DMA Stream source address */
ARM GAS  /tmp/cctZJEWc.s 			page 7


 294:/home/christoschristoforou/STM32Cube/Repository/STM32Cube_FW_F4_V1.27.0/Drivers/STM32F4xx_HAL_Driver/Src/stm32f4xx_hal_dma_ex.c ****     hdma->Instance->PAR = SrcAddress;
  51              		.loc 1 294 5 is_stmt 1 view .LVU8
  52              		.loc 1 294 9 is_stmt 0 view .LVU9
  53 000c 0368     		ldr	r3, [r0]
  54              		.loc 1 294 25 view .LVU10
  55 000e 9960     		str	r1, [r3, #8]
  56              	.LVL2:
 295:/home/christoschristoforou/STM32Cube/Repository/STM32Cube_FW_F4_V1.27.0/Drivers/STM32F4xx_HAL_Driver/Src/stm32f4xx_hal_dma_ex.c ****     
 296:/home/christoschristoforou/STM32Cube/Repository/STM32Cube_FW_F4_V1.27.0/Drivers/STM32F4xx_HAL_Driver/Src/stm32f4xx_hal_dma_ex.c ****     /* Configure DMA Stream destination address */
 297:/home/christoschristoforou/STM32Cube/Repository/STM32Cube_FW_F4_V1.27.0/Drivers/STM32F4xx_HAL_Driver/Src/stm32f4xx_hal_dma_ex.c ****     hdma->Instance->M0AR = DstAddress;
  57              		.loc 1 297 5 is_stmt 1 view .LVU11
  58              		.loc 1 297 9 is_stmt 0 view .LVU12
  59 0010 0368     		ldr	r3, [r0]
  60              		.loc 1 297 26 view .LVU13
  61 0012 DA60     		str	r2, [r3, #12]
  62              	.L1:
 298:/home/christoschristoforou/STM32Cube/Repository/STM32Cube_FW_F4_V1.27.0/Drivers/STM32F4xx_HAL_Driver/Src/stm32f4xx_hal_dma_ex.c ****   }
 299:/home/christoschristoforou/STM32Cube/Repository/STM32Cube_FW_F4_V1.27.0/Drivers/STM32F4xx_HAL_Driver/Src/stm32f4xx_hal_dma_ex.c **** }
  63              		.loc 1 299 1 view .LVU14
  64 0014 5DF8044B 		ldr	r4, [sp], #4
  65              	.LCFI1:
  66              		.cfi_remember_state
  67              		.cfi_restore 4
  68              		.cfi_def_cfa_offset 0
  69 0018 7047     		bx	lr
  70              	.LVL3:
  71              	.L5:
  72              	.LCFI2:
  73              		.cfi_restore_state
 285:/home/christoschristoforou/STM32Cube/Repository/STM32Cube_FW_F4_V1.27.0/Drivers/STM32F4xx_HAL_Driver/Src/stm32f4xx_hal_dma_ex.c ****     
  74              		.loc 1 285 5 is_stmt 1 view .LVU15
 285:/home/christoschristoforou/STM32Cube/Repository/STM32Cube_FW_F4_V1.27.0/Drivers/STM32F4xx_HAL_Driver/Src/stm32f4xx_hal_dma_ex.c ****     
  75              		.loc 1 285 9 is_stmt 0 view .LVU16
  76 001a 0368     		ldr	r3, [r0]
 285:/home/christoschristoforou/STM32Cube/Repository/STM32Cube_FW_F4_V1.27.0/Drivers/STM32F4xx_HAL_Driver/Src/stm32f4xx_hal_dma_ex.c ****     
  77              		.loc 1 285 25 view .LVU17
  78 001c 9A60     		str	r2, [r3, #8]
  79              	.LVL4:
 288:/home/christoschristoforou/STM32Cube/Repository/STM32Cube_FW_F4_V1.27.0/Drivers/STM32F4xx_HAL_Driver/Src/stm32f4xx_hal_dma_ex.c ****   }
  80              		.loc 1 288 5 is_stmt 1 view .LVU18
 288:/home/christoschristoforou/STM32Cube/Repository/STM32Cube_FW_F4_V1.27.0/Drivers/STM32F4xx_HAL_Driver/Src/stm32f4xx_hal_dma_ex.c ****   }
  81              		.loc 1 288 9 is_stmt 0 view .LVU19
  82 001e 0368     		ldr	r3, [r0]
 288:/home/christoschristoforou/STM32Cube/Repository/STM32Cube_FW_F4_V1.27.0/Drivers/STM32F4xx_HAL_Driver/Src/stm32f4xx_hal_dma_ex.c ****   }
  83              		.loc 1 288 26 view .LVU20
  84 0020 D960     		str	r1, [r3, #12]
  85 0022 F7E7     		b	.L1
  86              		.cfi_endproc
  87              	.LFE133:
  89              		.section	.rodata.HAL_DMAEx_MultiBufferStart.str1.4,"aMS",%progbits,1
  90              		.align	2
  91              	.LC0:
  92 0000 2F686F6D 		.ascii	"/home/christoschristoforou/STM32Cube/Repository/STM"
  92      652F6368 
  92      72697374 
  92      6F736368 
  92      72697374 
ARM GAS  /tmp/cctZJEWc.s 			page 8


  93 0033 33324375 		.ascii	"32Cube_FW_F4_V1.27.0/Drivers/STM32F4xx_HAL_Driver/S"
  93      62655F46 
  93      575F4634 
  93      5F56312E 
  93      32372E30 
  94 0066 72632F73 		.ascii	"rc/stm32f4xx_hal_dma_ex.c\000"
  94      746D3332 
  94      66347878 
  94      5F68616C 
  94      5F646D61 
  95              		.section	.text.HAL_DMAEx_MultiBufferStart,"ax",%progbits
  96              		.align	1
  97              		.global	HAL_DMAEx_MultiBufferStart
  98              		.syntax unified
  99              		.thumb
 100              		.thumb_func
 101              		.fpu fpv4-sp-d16
 103              	HAL_DMAEx_MultiBufferStart:
 104              	.LVL5:
 105              	.LFB130:
 101:/home/christoschristoforou/STM32Cube/Repository/STM32Cube_FW_F4_V1.27.0/Drivers/STM32F4xx_HAL_Driver/Src/stm32f4xx_hal_dma_ex.c ****   HAL_StatusTypeDef status = HAL_OK;
 106              		.loc 1 101 1 is_stmt 1 view -0
 107              		.cfi_startproc
 108              		@ args = 4, pretend = 0, frame = 0
 109              		@ frame_needed = 0, uses_anonymous_args = 0
 101:/home/christoschristoforou/STM32Cube/Repository/STM32Cube_FW_F4_V1.27.0/Drivers/STM32F4xx_HAL_Driver/Src/stm32f4xx_hal_dma_ex.c ****   HAL_StatusTypeDef status = HAL_OK;
 110              		.loc 1 101 1 is_stmt 0 view .LVU22
 111 0000 2DE9F041 		push	{r4, r5, r6, r7, r8, lr}
 112              	.LCFI3:
 113              		.cfi_def_cfa_offset 24
 114              		.cfi_offset 4, -24
 115              		.cfi_offset 5, -20
 116              		.cfi_offset 6, -16
 117              		.cfi_offset 7, -12
 118              		.cfi_offset 8, -8
 119              		.cfi_offset 14, -4
 120 0004 0446     		mov	r4, r0
 121 0006 0D46     		mov	r5, r1
 122 0008 1646     		mov	r6, r2
 123 000a 9846     		mov	r8, r3
 124 000c 069F     		ldr	r7, [sp, #24]
 102:/home/christoschristoforou/STM32Cube/Repository/STM32Cube_FW_F4_V1.27.0/Drivers/STM32F4xx_HAL_Driver/Src/stm32f4xx_hal_dma_ex.c ****   
 125              		.loc 1 102 3 is_stmt 1 view .LVU23
 126              	.LVL6:
 105:/home/christoschristoforou/STM32Cube/Repository/STM32Cube_FW_F4_V1.27.0/Drivers/STM32F4xx_HAL_Driver/Src/stm32f4xx_hal_dma_ex.c ****   
 127              		.loc 1 105 3 view .LVU24
 128 000e 7A1E     		subs	r2, r7, #1
 129              	.LVL7:
 105:/home/christoschristoforou/STM32Cube/Repository/STM32Cube_FW_F4_V1.27.0/Drivers/STM32F4xx_HAL_Driver/Src/stm32f4xx_hal_dma_ex.c ****   
 130              		.loc 1 105 3 is_stmt 0 view .LVU25
 131 0010 4FF6FE73 		movw	r3, #65534
 132              	.LVL8:
 105:/home/christoschristoforou/STM32Cube/Repository/STM32Cube_FW_F4_V1.27.0/Drivers/STM32F4xx_HAL_Driver/Src/stm32f4xx_hal_dma_ex.c ****   
 133              		.loc 1 105 3 view .LVU26
 134 0014 9A42     		cmp	r2, r3
 135 0016 11D8     		bhi	.L13
 136              	.LVL9:
ARM GAS  /tmp/cctZJEWc.s 			page 9


 137              	.L7:
 108:/home/christoschristoforou/STM32Cube/Repository/STM32Cube_FW_F4_V1.27.0/Drivers/STM32F4xx_HAL_Driver/Src/stm32f4xx_hal_dma_ex.c ****   {
 138              		.loc 1 108 3 is_stmt 1 view .LVU27
 108:/home/christoschristoforou/STM32Cube/Repository/STM32Cube_FW_F4_V1.27.0/Drivers/STM32F4xx_HAL_Driver/Src/stm32f4xx_hal_dma_ex.c ****   {
 139              		.loc 1 108 17 is_stmt 0 view .LVU28
 140 0018 A368     		ldr	r3, [r4, #8]
 108:/home/christoschristoforou/STM32Cube/Repository/STM32Cube_FW_F4_V1.27.0/Drivers/STM32F4xx_HAL_Driver/Src/stm32f4xx_hal_dma_ex.c ****   {
 141              		.loc 1 108 6 view .LVU29
 142 001a 802B     		cmp	r3, #128
 143 001c 13D0     		beq	.L14
 116:/home/christoschristoforou/STM32Cube/Repository/STM32Cube_FW_F4_V1.27.0/Drivers/STM32F4xx_HAL_Driver/Src/stm32f4xx_hal_dma_ex.c ****     
 144              		.loc 1 116 5 is_stmt 1 view .LVU30
 116:/home/christoschristoforou/STM32Cube/Repository/STM32Cube_FW_F4_V1.27.0/Drivers/STM32F4xx_HAL_Driver/Src/stm32f4xx_hal_dma_ex.c ****     
 145              		.loc 1 116 5 view .LVU31
 146 001e 94F83430 		ldrb	r3, [r4, #52]	@ zero_extendqisi2
 147 0022 012B     		cmp	r3, #1
 148 0024 2CD0     		beq	.L10
 116:/home/christoschristoforou/STM32Cube/Repository/STM32Cube_FW_F4_V1.27.0/Drivers/STM32F4xx_HAL_Driver/Src/stm32f4xx_hal_dma_ex.c ****     
 149              		.loc 1 116 5 discriminator 2 view .LVU32
 150 0026 0123     		movs	r3, #1
 151 0028 84F83430 		strb	r3, [r4, #52]
 116:/home/christoschristoforou/STM32Cube/Repository/STM32Cube_FW_F4_V1.27.0/Drivers/STM32F4xx_HAL_Driver/Src/stm32f4xx_hal_dma_ex.c ****     
 152              		.loc 1 116 5 discriminator 2 view .LVU33
 118:/home/christoschristoforou/STM32Cube/Repository/STM32Cube_FW_F4_V1.27.0/Drivers/STM32F4xx_HAL_Driver/Src/stm32f4xx_hal_dma_ex.c ****     {
 153              		.loc 1 118 5 discriminator 2 view .LVU34
 118:/home/christoschristoforou/STM32Cube/Repository/STM32Cube_FW_F4_V1.27.0/Drivers/STM32F4xx_HAL_Driver/Src/stm32f4xx_hal_dma_ex.c ****     {
 154              		.loc 1 118 35 is_stmt 0 discriminator 2 view .LVU35
 155 002c 94F83530 		ldrb	r3, [r4, #53]	@ zero_extendqisi2
 156 0030 DBB2     		uxtb	r3, r3
 118:/home/christoschristoforou/STM32Cube/Repository/STM32Cube_FW_F4_V1.27.0/Drivers/STM32F4xx_HAL_Driver/Src/stm32f4xx_hal_dma_ex.c ****     {
 157              		.loc 1 118 7 discriminator 2 view .LVU36
 158 0032 012B     		cmp	r3, #1
 159 0034 0CD0     		beq	.L15
 138:/home/christoschristoforou/STM32Cube/Repository/STM32Cube_FW_F4_V1.27.0/Drivers/STM32F4xx_HAL_Driver/Src/stm32f4xx_hal_dma_ex.c ****     }
 160              		.loc 1 138 14 view .LVU37
 161 0036 0220     		movs	r0, #2
 162              	.LVL10:
 163              	.L9:
 142:/home/christoschristoforou/STM32Cube/Repository/STM32Cube_FW_F4_V1.27.0/Drivers/STM32F4xx_HAL_Driver/Src/stm32f4xx_hal_dma_ex.c **** 
 164              		.loc 1 142 1 view .LVU38
 165 0038 BDE8F081 		pop	{r4, r5, r6, r7, r8, pc}
 166              	.LVL11:
 167              	.L13:
 105:/home/christoschristoforou/STM32Cube/Repository/STM32Cube_FW_F4_V1.27.0/Drivers/STM32F4xx_HAL_Driver/Src/stm32f4xx_hal_dma_ex.c ****   
 168              		.loc 1 105 3 discriminator 1 view .LVU39
 169 003c 6921     		movs	r1, #105
 170              	.LVL12:
 105:/home/christoschristoforou/STM32Cube/Repository/STM32Cube_FW_F4_V1.27.0/Drivers/STM32F4xx_HAL_Driver/Src/stm32f4xx_hal_dma_ex.c ****   
 171              		.loc 1 105 3 discriminator 1 view .LVU40
 172 003e 1148     		ldr	r0, .L16
 173              	.LVL13:
 105:/home/christoschristoforou/STM32Cube/Repository/STM32Cube_FW_F4_V1.27.0/Drivers/STM32F4xx_HAL_Driver/Src/stm32f4xx_hal_dma_ex.c ****   
 174              		.loc 1 105 3 discriminator 1 view .LVU41
 175 0040 FFF7FEFF 		bl	assert_failed
 176              	.LVL14:
 177 0044 E8E7     		b	.L7
 178              	.L14:
ARM GAS  /tmp/cctZJEWc.s 			page 10


 110:/home/christoschristoforou/STM32Cube/Repository/STM32Cube_FW_F4_V1.27.0/Drivers/STM32F4xx_HAL_Driver/Src/stm32f4xx_hal_dma_ex.c ****     status = HAL_ERROR;
 179              		.loc 1 110 5 is_stmt 1 view .LVU42
 110:/home/christoschristoforou/STM32Cube/Repository/STM32Cube_FW_F4_V1.27.0/Drivers/STM32F4xx_HAL_Driver/Src/stm32f4xx_hal_dma_ex.c ****     status = HAL_ERROR;
 180              		.loc 1 110 21 is_stmt 0 view .LVU43
 181 0046 4FF48073 		mov	r3, #256
 182 004a 6365     		str	r3, [r4, #84]
 111:/home/christoschristoforou/STM32Cube/Repository/STM32Cube_FW_F4_V1.27.0/Drivers/STM32F4xx_HAL_Driver/Src/stm32f4xx_hal_dma_ex.c ****   }
 183              		.loc 1 111 5 is_stmt 1 view .LVU44
 184              	.LVL15:
 111:/home/christoschristoforou/STM32Cube/Repository/STM32Cube_FW_F4_V1.27.0/Drivers/STM32F4xx_HAL_Driver/Src/stm32f4xx_hal_dma_ex.c ****   }
 185              		.loc 1 111 12 is_stmt 0 view .LVU45
 186 004c 0120     		movs	r0, #1
 187 004e F3E7     		b	.L9
 188              	.LVL16:
 189              	.L15:
 121:/home/christoschristoforou/STM32Cube/Repository/STM32Cube_FW_F4_V1.27.0/Drivers/STM32F4xx_HAL_Driver/Src/stm32f4xx_hal_dma_ex.c ****       
 190              		.loc 1 121 7 is_stmt 1 view .LVU46
 121:/home/christoschristoforou/STM32Cube/Repository/STM32Cube_FW_F4_V1.27.0/Drivers/STM32F4xx_HAL_Driver/Src/stm32f4xx_hal_dma_ex.c ****       
 191              		.loc 1 121 19 is_stmt 0 view .LVU47
 192 0050 0223     		movs	r3, #2
 193 0052 84F83530 		strb	r3, [r4, #53]
 124:/home/christoschristoforou/STM32Cube/Repository/STM32Cube_FW_F4_V1.27.0/Drivers/STM32F4xx_HAL_Driver/Src/stm32f4xx_hal_dma_ex.c ****       
 194              		.loc 1 124 7 is_stmt 1 view .LVU48
 124:/home/christoschristoforou/STM32Cube/Repository/STM32Cube_FW_F4_V1.27.0/Drivers/STM32F4xx_HAL_Driver/Src/stm32f4xx_hal_dma_ex.c ****       
 195              		.loc 1 124 11 is_stmt 0 view .LVU49
 196 0056 2268     		ldr	r2, [r4]
 124:/home/christoschristoforou/STM32Cube/Repository/STM32Cube_FW_F4_V1.27.0/Drivers/STM32F4xx_HAL_Driver/Src/stm32f4xx_hal_dma_ex.c ****       
 197              		.loc 1 124 26 view .LVU50
 198 0058 1368     		ldr	r3, [r2]
 199 005a 43F48023 		orr	r3, r3, #262144
 200 005e 1360     		str	r3, [r2]
 127:/home/christoschristoforou/STM32Cube/Repository/STM32Cube_FW_F4_V1.27.0/Drivers/STM32F4xx_HAL_Driver/Src/stm32f4xx_hal_dma_ex.c ****       
 201              		.loc 1 127 7 is_stmt 1 view .LVU51
 127:/home/christoschristoforou/STM32Cube/Repository/STM32Cube_FW_F4_V1.27.0/Drivers/STM32F4xx_HAL_Driver/Src/stm32f4xx_hal_dma_ex.c ****       
 202              		.loc 1 127 11 is_stmt 0 view .LVU52
 203 0060 2368     		ldr	r3, [r4]
 127:/home/christoschristoforou/STM32Cube/Repository/STM32Cube_FW_F4_V1.27.0/Drivers/STM32F4xx_HAL_Driver/Src/stm32f4xx_hal_dma_ex.c ****       
 204              		.loc 1 127 28 view .LVU53
 205 0062 C3F81080 		str	r8, [r3, #16]
 130:/home/christoschristoforou/STM32Cube/Repository/STM32Cube_FW_F4_V1.27.0/Drivers/STM32F4xx_HAL_Driver/Src/stm32f4xx_hal_dma_ex.c ****       
 206              		.loc 1 130 7 is_stmt 1 view .LVU54
 207 0066 3B46     		mov	r3, r7
 208 0068 3246     		mov	r2, r6
 209 006a 2946     		mov	r1, r5
 210 006c 2046     		mov	r0, r4
 211 006e FFF7FEFF 		bl	DMA_MultiBufferSetConfig
 212              	.LVL17:
 133:/home/christoschristoforou/STM32Cube/Repository/STM32Cube_FW_F4_V1.27.0/Drivers/STM32F4xx_HAL_Driver/Src/stm32f4xx_hal_dma_ex.c ****     }
 213              		.loc 1 133 7 view .LVU55
 214 0072 2268     		ldr	r2, [r4]
 215 0074 1368     		ldr	r3, [r2]
 216 0076 43F00103 		orr	r3, r3, #1
 217 007a 1360     		str	r3, [r2]
 102:/home/christoschristoforou/STM32Cube/Repository/STM32Cube_FW_F4_V1.27.0/Drivers/STM32F4xx_HAL_Driver/Src/stm32f4xx_hal_dma_ex.c ****   
 218              		.loc 1 102 21 is_stmt 0 view .LVU56
 219 007c 0020     		movs	r0, #0
 220 007e DBE7     		b	.L9
ARM GAS  /tmp/cctZJEWc.s 			page 11


 221              	.L10:
 116:/home/christoschristoforou/STM32Cube/Repository/STM32Cube_FW_F4_V1.27.0/Drivers/STM32F4xx_HAL_Driver/Src/stm32f4xx_hal_dma_ex.c ****     
 222              		.loc 1 116 5 view .LVU57
 223 0080 0220     		movs	r0, #2
 224 0082 D9E7     		b	.L9
 225              	.L17:
 226              		.align	2
 227              	.L16:
 228 0084 00000000 		.word	.LC0
 229              		.cfi_endproc
 230              	.LFE130:
 232              		.section	.text.HAL_DMAEx_MultiBufferStart_IT,"ax",%progbits
 233              		.align	1
 234              		.global	HAL_DMAEx_MultiBufferStart_IT
 235              		.syntax unified
 236              		.thumb
 237              		.thumb_func
 238              		.fpu fpv4-sp-d16
 240              	HAL_DMAEx_MultiBufferStart_IT:
 241              	.LVL18:
 242              	.LFB131:
 155:/home/christoschristoforou/STM32Cube/Repository/STM32Cube_FW_F4_V1.27.0/Drivers/STM32F4xx_HAL_Driver/Src/stm32f4xx_hal_dma_ex.c ****   HAL_StatusTypeDef status = HAL_OK;
 243              		.loc 1 155 1 is_stmt 1 view -0
 244              		.cfi_startproc
 245              		@ args = 4, pretend = 0, frame = 0
 246              		@ frame_needed = 0, uses_anonymous_args = 0
 155:/home/christoschristoforou/STM32Cube/Repository/STM32Cube_FW_F4_V1.27.0/Drivers/STM32F4xx_HAL_Driver/Src/stm32f4xx_hal_dma_ex.c ****   HAL_StatusTypeDef status = HAL_OK;
 247              		.loc 1 155 1 is_stmt 0 view .LVU59
 248 0000 2DE9F041 		push	{r4, r5, r6, r7, r8, lr}
 249              	.LCFI4:
 250              		.cfi_def_cfa_offset 24
 251              		.cfi_offset 4, -24
 252              		.cfi_offset 5, -20
 253              		.cfi_offset 6, -16
 254              		.cfi_offset 7, -12
 255              		.cfi_offset 8, -8
 256              		.cfi_offset 14, -4
 257 0004 0446     		mov	r4, r0
 258 0006 0D46     		mov	r5, r1
 259 0008 1646     		mov	r6, r2
 260 000a 9846     		mov	r8, r3
 261 000c 069F     		ldr	r7, [sp, #24]
 156:/home/christoschristoforou/STM32Cube/Repository/STM32Cube_FW_F4_V1.27.0/Drivers/STM32F4xx_HAL_Driver/Src/stm32f4xx_hal_dma_ex.c ****   
 262              		.loc 1 156 3 is_stmt 1 view .LVU60
 263              	.LVL19:
 159:/home/christoschristoforou/STM32Cube/Repository/STM32Cube_FW_F4_V1.27.0/Drivers/STM32F4xx_HAL_Driver/Src/stm32f4xx_hal_dma_ex.c ****   
 264              		.loc 1 159 3 view .LVU61
 265 000e 791E     		subs	r1, r7, #1
 266              	.LVL20:
 159:/home/christoschristoforou/STM32Cube/Repository/STM32Cube_FW_F4_V1.27.0/Drivers/STM32F4xx_HAL_Driver/Src/stm32f4xx_hal_dma_ex.c ****   
 267              		.loc 1 159 3 is_stmt 0 view .LVU62
 268 0010 4FF6FE72 		movw	r2, #65534
 269              	.LVL21:
 159:/home/christoschristoforou/STM32Cube/Repository/STM32Cube_FW_F4_V1.27.0/Drivers/STM32F4xx_HAL_Driver/Src/stm32f4xx_hal_dma_ex.c ****   
 270              		.loc 1 159 3 view .LVU63
 271 0014 9142     		cmp	r1, r2
 272 0016 1AD8     		bhi	.L309
ARM GAS  /tmp/cctZJEWc.s 			page 12


 273              	.LVL22:
 274              	.L19:
 162:/home/christoschristoforou/STM32Cube/Repository/STM32Cube_FW_F4_V1.27.0/Drivers/STM32F4xx_HAL_Driver/Src/stm32f4xx_hal_dma_ex.c ****   {
 275              		.loc 1 162 3 is_stmt 1 view .LVU64
 162:/home/christoschristoforou/STM32Cube/Repository/STM32Cube_FW_F4_V1.27.0/Drivers/STM32F4xx_HAL_Driver/Src/stm32f4xx_hal_dma_ex.c ****   {
 276              		.loc 1 162 17 is_stmt 0 view .LVU65
 277 0018 A268     		ldr	r2, [r4, #8]
 162:/home/christoschristoforou/STM32Cube/Repository/STM32Cube_FW_F4_V1.27.0/Drivers/STM32F4xx_HAL_Driver/Src/stm32f4xx_hal_dma_ex.c ****   {
 278              		.loc 1 162 6 view .LVU66
 279 001a 802A     		cmp	r2, #128
 280 001c 1CD0     		beq	.L310
 169:/home/christoschristoforou/STM32Cube/Repository/STM32Cube_FW_F4_V1.27.0/Drivers/STM32F4xx_HAL_Driver/Src/stm32f4xx_hal_dma_ex.c ****   {
 281              		.loc 1 169 3 is_stmt 1 view .LVU67
 169:/home/christoschristoforou/STM32Cube/Repository/STM32Cube_FW_F4_V1.27.0/Drivers/STM32F4xx_HAL_Driver/Src/stm32f4xx_hal_dma_ex.c ****   {
 282              		.loc 1 169 20 is_stmt 0 view .LVU68
 283 001e E36B     		ldr	r3, [r4, #60]
 169:/home/christoschristoforou/STM32Cube/Repository/STM32Cube_FW_F4_V1.27.0/Drivers/STM32F4xx_HAL_Driver/Src/stm32f4xx_hal_dma_ex.c ****   {
 284              		.loc 1 169 6 view .LVU69
 285 0020 FBB1     		cbz	r3, .L22
 169:/home/christoschristoforou/STM32Cube/Repository/STM32Cube_FW_F4_V1.27.0/Drivers/STM32F4xx_HAL_Driver/Src/stm32f4xx_hal_dma_ex.c ****   {
 286              		.loc 1 169 56 discriminator 1 view .LVU70
 287 0022 636C     		ldr	r3, [r4, #68]
 169:/home/christoschristoforou/STM32Cube/Repository/STM32Cube_FW_F4_V1.27.0/Drivers/STM32F4xx_HAL_Driver/Src/stm32f4xx_hal_dma_ex.c ****   {
 288              		.loc 1 169 40 discriminator 1 view .LVU71
 289 0024 EBB1     		cbz	r3, .L22
 169:/home/christoschristoforou/STM32Cube/Repository/STM32Cube_FW_F4_V1.27.0/Drivers/STM32F4xx_HAL_Driver/Src/stm32f4xx_hal_dma_ex.c ****   {
 290              		.loc 1 169 94 discriminator 2 view .LVU72
 291 0026 E36C     		ldr	r3, [r4, #76]
 169:/home/christoschristoforou/STM32Cube/Repository/STM32Cube_FW_F4_V1.27.0/Drivers/STM32F4xx_HAL_Driver/Src/stm32f4xx_hal_dma_ex.c ****   {
 292              		.loc 1 169 78 discriminator 2 view .LVU73
 293 0028 DBB1     		cbz	r3, .L22
 176:/home/christoschristoforou/STM32Cube/Repository/STM32Cube_FW_F4_V1.27.0/Drivers/STM32F4xx_HAL_Driver/Src/stm32f4xx_hal_dma_ex.c ****   
 294              		.loc 1 176 3 is_stmt 1 view .LVU74
 176:/home/christoschristoforou/STM32Cube/Repository/STM32Cube_FW_F4_V1.27.0/Drivers/STM32F4xx_HAL_Driver/Src/stm32f4xx_hal_dma_ex.c ****   
 295              		.loc 1 176 3 view .LVU75
 296 002a 94F83430 		ldrb	r3, [r4, #52]	@ zero_extendqisi2
 297 002e 012B     		cmp	r3, #1
 298 0030 00F07487 		beq	.L67
 176:/home/christoschristoforou/STM32Cube/Repository/STM32Cube_FW_F4_V1.27.0/Drivers/STM32F4xx_HAL_Driver/Src/stm32f4xx_hal_dma_ex.c ****   
 299              		.loc 1 176 3 discriminator 2 view .LVU76
 300 0034 0123     		movs	r3, #1
 301 0036 84F83430 		strb	r3, [r4, #52]
 176:/home/christoschristoforou/STM32Cube/Repository/STM32Cube_FW_F4_V1.27.0/Drivers/STM32F4xx_HAL_Driver/Src/stm32f4xx_hal_dma_ex.c ****   
 302              		.loc 1 176 3 discriminator 2 view .LVU77
 178:/home/christoschristoforou/STM32Cube/Repository/STM32Cube_FW_F4_V1.27.0/Drivers/STM32F4xx_HAL_Driver/Src/stm32f4xx_hal_dma_ex.c ****   {
 303              		.loc 1 178 3 discriminator 2 view .LVU78
 178:/home/christoschristoforou/STM32Cube/Repository/STM32Cube_FW_F4_V1.27.0/Drivers/STM32F4xx_HAL_Driver/Src/stm32f4xx_hal_dma_ex.c ****   {
 304              		.loc 1 178 33 is_stmt 0 discriminator 2 view .LVU79
 305 003a 94F83530 		ldrb	r3, [r4, #53]	@ zero_extendqisi2
 306 003e DBB2     		uxtb	r3, r3
 178:/home/christoschristoforou/STM32Cube/Repository/STM32Cube_FW_F4_V1.27.0/Drivers/STM32F4xx_HAL_Driver/Src/stm32f4xx_hal_dma_ex.c ****   {
 307              		.loc 1 178 5 discriminator 2 view .LVU80
 308 0040 012B     		cmp	r3, #1
 309 0042 13D0     		beq	.L311
 217:/home/christoschristoforou/STM32Cube/Repository/STM32Cube_FW_F4_V1.27.0/Drivers/STM32F4xx_HAL_Driver/Src/stm32f4xx_hal_dma_ex.c ****     
 310              		.loc 1 217 5 is_stmt 1 view .LVU81
 217:/home/christoschristoforou/STM32Cube/Repository/STM32Cube_FW_F4_V1.27.0/Drivers/STM32F4xx_HAL_Driver/Src/stm32f4xx_hal_dma_ex.c ****     
ARM GAS  /tmp/cctZJEWc.s 			page 13


 311              		.loc 1 217 5 view .LVU82
 312 0044 0023     		movs	r3, #0
 313 0046 84F83430 		strb	r3, [r4, #52]
 217:/home/christoschristoforou/STM32Cube/Repository/STM32Cube_FW_F4_V1.27.0/Drivers/STM32F4xx_HAL_Driver/Src/stm32f4xx_hal_dma_ex.c ****     
 314              		.loc 1 217 5 view .LVU83
 220:/home/christoschristoforou/STM32Cube/Repository/STM32Cube_FW_F4_V1.27.0/Drivers/STM32F4xx_HAL_Driver/Src/stm32f4xx_hal_dma_ex.c ****   }  
 315              		.loc 1 220 5 view .LVU84
 316              	.LVL23:
 220:/home/christoschristoforou/STM32Cube/Repository/STM32Cube_FW_F4_V1.27.0/Drivers/STM32F4xx_HAL_Driver/Src/stm32f4xx_hal_dma_ex.c ****   }  
 317              		.loc 1 220 12 is_stmt 0 view .LVU85
 318 004a 0220     		movs	r0, #2
 319 004c 0CE0     		b	.L21
 320              	.LVL24:
 321              	.L309:
 159:/home/christoschristoforou/STM32Cube/Repository/STM32Cube_FW_F4_V1.27.0/Drivers/STM32F4xx_HAL_Driver/Src/stm32f4xx_hal_dma_ex.c ****   
 322              		.loc 1 159 3 discriminator 1 view .LVU86
 323 004e 9F21     		movs	r1, #159
 324 0050 B548     		ldr	r0, .L333
 325              	.LVL25:
 159:/home/christoschristoforou/STM32Cube/Repository/STM32Cube_FW_F4_V1.27.0/Drivers/STM32F4xx_HAL_Driver/Src/stm32f4xx_hal_dma_ex.c ****   
 326              		.loc 1 159 3 discriminator 1 view .LVU87
 327 0052 FFF7FEFF 		bl	assert_failed
 328              	.LVL26:
 159:/home/christoschristoforou/STM32Cube/Repository/STM32Cube_FW_F4_V1.27.0/Drivers/STM32F4xx_HAL_Driver/Src/stm32f4xx_hal_dma_ex.c ****   
 329              		.loc 1 159 3 discriminator 1 view .LVU88
 330 0056 DFE7     		b	.L19
 331              	.L310:
 164:/home/christoschristoforou/STM32Cube/Repository/STM32Cube_FW_F4_V1.27.0/Drivers/STM32F4xx_HAL_Driver/Src/stm32f4xx_hal_dma_ex.c ****     return HAL_ERROR;
 332              		.loc 1 164 5 is_stmt 1 view .LVU89
 164:/home/christoschristoforou/STM32Cube/Repository/STM32Cube_FW_F4_V1.27.0/Drivers/STM32F4xx_HAL_Driver/Src/stm32f4xx_hal_dma_ex.c ****     return HAL_ERROR;
 333              		.loc 1 164 21 is_stmt 0 view .LVU90
 334 0058 4FF48073 		mov	r3, #256
 335 005c 6365     		str	r3, [r4, #84]
 165:/home/christoschristoforou/STM32Cube/Repository/STM32Cube_FW_F4_V1.27.0/Drivers/STM32F4xx_HAL_Driver/Src/stm32f4xx_hal_dma_ex.c ****   }
 336              		.loc 1 165 5 is_stmt 1 view .LVU91
 165:/home/christoschristoforou/STM32Cube/Repository/STM32Cube_FW_F4_V1.27.0/Drivers/STM32F4xx_HAL_Driver/Src/stm32f4xx_hal_dma_ex.c ****   }
 337              		.loc 1 165 12 is_stmt 0 view .LVU92
 338 005e 0120     		movs	r0, #1
 339 0060 02E0     		b	.L21
 340              	.L22:
 171:/home/christoschristoforou/STM32Cube/Repository/STM32Cube_FW_F4_V1.27.0/Drivers/STM32F4xx_HAL_Driver/Src/stm32f4xx_hal_dma_ex.c ****     return HAL_ERROR;
 341              		.loc 1 171 5 is_stmt 1 view .LVU93
 171:/home/christoschristoforou/STM32Cube/Repository/STM32Cube_FW_F4_V1.27.0/Drivers/STM32F4xx_HAL_Driver/Src/stm32f4xx_hal_dma_ex.c ****     return HAL_ERROR;
 342              		.loc 1 171 21 is_stmt 0 view .LVU94
 343 0062 4023     		movs	r3, #64
 344 0064 6365     		str	r3, [r4, #84]
 172:/home/christoschristoforou/STM32Cube/Repository/STM32Cube_FW_F4_V1.27.0/Drivers/STM32F4xx_HAL_Driver/Src/stm32f4xx_hal_dma_ex.c ****   }
 345              		.loc 1 172 5 is_stmt 1 view .LVU95
 172:/home/christoschristoforou/STM32Cube/Repository/STM32Cube_FW_F4_V1.27.0/Drivers/STM32F4xx_HAL_Driver/Src/stm32f4xx_hal_dma_ex.c ****   }
 346              		.loc 1 172 12 is_stmt 0 view .LVU96
 347 0066 0120     		movs	r0, #1
 348              	.LVL27:
 349              	.L21:
 223:/home/christoschristoforou/STM32Cube/Repository/STM32Cube_FW_F4_V1.27.0/Drivers/STM32F4xx_HAL_Driver/Src/stm32f4xx_hal_dma_ex.c **** 
 350              		.loc 1 223 1 view .LVU97
 351 0068 BDE8F081 		pop	{r4, r5, r6, r7, r8, pc}
 352              	.LVL28:
ARM GAS  /tmp/cctZJEWc.s 			page 14


 353              	.L311:
 181:/home/christoschristoforou/STM32Cube/Repository/STM32Cube_FW_F4_V1.27.0/Drivers/STM32F4xx_HAL_Driver/Src/stm32f4xx_hal_dma_ex.c ****     
 354              		.loc 1 181 5 is_stmt 1 view .LVU98
 181:/home/christoschristoforou/STM32Cube/Repository/STM32Cube_FW_F4_V1.27.0/Drivers/STM32F4xx_HAL_Driver/Src/stm32f4xx_hal_dma_ex.c ****     
 355              		.loc 1 181 17 is_stmt 0 view .LVU99
 356 006c 0223     		movs	r3, #2
 357 006e 84F83530 		strb	r3, [r4, #53]
 184:/home/christoschristoforou/STM32Cube/Repository/STM32Cube_FW_F4_V1.27.0/Drivers/STM32F4xx_HAL_Driver/Src/stm32f4xx_hal_dma_ex.c ****     
 358              		.loc 1 184 5 is_stmt 1 view .LVU100
 184:/home/christoschristoforou/STM32Cube/Repository/STM32Cube_FW_F4_V1.27.0/Drivers/STM32F4xx_HAL_Driver/Src/stm32f4xx_hal_dma_ex.c ****     
 359              		.loc 1 184 21 is_stmt 0 view .LVU101
 360 0072 0023     		movs	r3, #0
 361 0074 6365     		str	r3, [r4, #84]
 187:/home/christoschristoforou/STM32Cube/Repository/STM32Cube_FW_F4_V1.27.0/Drivers/STM32F4xx_HAL_Driver/Src/stm32f4xx_hal_dma_ex.c ****     
 362              		.loc 1 187 5 is_stmt 1 view .LVU102
 187:/home/christoschristoforou/STM32Cube/Repository/STM32Cube_FW_F4_V1.27.0/Drivers/STM32F4xx_HAL_Driver/Src/stm32f4xx_hal_dma_ex.c ****     
 363              		.loc 1 187 9 is_stmt 0 view .LVU103
 364 0076 2268     		ldr	r2, [r4]
 187:/home/christoschristoforou/STM32Cube/Repository/STM32Cube_FW_F4_V1.27.0/Drivers/STM32F4xx_HAL_Driver/Src/stm32f4xx_hal_dma_ex.c ****     
 365              		.loc 1 187 24 view .LVU104
 366 0078 1368     		ldr	r3, [r2]
 367 007a 43F48023 		orr	r3, r3, #262144
 368 007e 1360     		str	r3, [r2]
 190:/home/christoschristoforou/STM32Cube/Repository/STM32Cube_FW_F4_V1.27.0/Drivers/STM32F4xx_HAL_Driver/Src/stm32f4xx_hal_dma_ex.c ****     
 369              		.loc 1 190 5 is_stmt 1 view .LVU105
 190:/home/christoschristoforou/STM32Cube/Repository/STM32Cube_FW_F4_V1.27.0/Drivers/STM32F4xx_HAL_Driver/Src/stm32f4xx_hal_dma_ex.c ****     
 370              		.loc 1 190 9 is_stmt 0 view .LVU106
 371 0080 2368     		ldr	r3, [r4]
 190:/home/christoschristoforou/STM32Cube/Repository/STM32Cube_FW_F4_V1.27.0/Drivers/STM32F4xx_HAL_Driver/Src/stm32f4xx_hal_dma_ex.c ****     
 372              		.loc 1 190 26 view .LVU107
 373 0082 C3F81080 		str	r8, [r3, #16]
 193:/home/christoschristoforou/STM32Cube/Repository/STM32Cube_FW_F4_V1.27.0/Drivers/STM32F4xx_HAL_Driver/Src/stm32f4xx_hal_dma_ex.c ****     
 374              		.loc 1 193 5 is_stmt 1 view .LVU108
 375 0086 3B46     		mov	r3, r7
 376 0088 3246     		mov	r2, r6
 377 008a 2946     		mov	r1, r5
 378 008c 2046     		mov	r0, r4
 379 008e FFF7FEFF 		bl	DMA_MultiBufferSetConfig
 380              	.LVL29:
 196:/home/christoschristoforou/STM32Cube/Repository/STM32Cube_FW_F4_V1.27.0/Drivers/STM32F4xx_HAL_Driver/Src/stm32f4xx_hal_dma_ex.c ****     __HAL_DMA_CLEAR_FLAG (hdma, __HAL_DMA_GET_HT_FLAG_INDEX(hdma));
 381              		.loc 1 196 5 view .LVU109
 382 0092 2368     		ldr	r3, [r4]
 383 0094 A54A     		ldr	r2, .L333+4
 384 0096 9342     		cmp	r3, r2
 385 0098 40F29880 		bls	.L25
 196:/home/christoschristoforou/STM32Cube/Repository/STM32Cube_FW_F4_V1.27.0/Drivers/STM32F4xx_HAL_Driver/Src/stm32f4xx_hal_dma_ex.c ****     __HAL_DMA_CLEAR_FLAG (hdma, __HAL_DMA_GET_HT_FLAG_INDEX(hdma));
 386              		.loc 1 196 5 is_stmt 0 discriminator 1 view .LVU110
 387 009c A2F58962 		sub	r2, r2, #1096
 388 00a0 9342     		cmp	r3, r2
 389 00a2 31D0     		beq	.L68
 196:/home/christoschristoforou/STM32Cube/Repository/STM32Cube_FW_F4_V1.27.0/Drivers/STM32F4xx_HAL_Driver/Src/stm32f4xx_hal_dma_ex.c ****     __HAL_DMA_CLEAR_FLAG (hdma, __HAL_DMA_GET_HT_FLAG_INDEX(hdma));
 390              		.loc 1 196 5 discriminator 3 view .LVU111
 391 00a4 02F58062 		add	r2, r2, #1024
 392 00a8 9342     		cmp	r3, r2
 393 00aa 74D0     		beq	.L69
 196:/home/christoschristoforou/STM32Cube/Repository/STM32Cube_FW_F4_V1.27.0/Drivers/STM32F4xx_HAL_Driver/Src/stm32f4xx_hal_dma_ex.c ****     __HAL_DMA_CLEAR_FLAG (hdma, __HAL_DMA_GET_HT_FLAG_INDEX(hdma));
 394              		.loc 1 196 5 discriminator 5 view .LVU112
ARM GAS  /tmp/cctZJEWc.s 			page 15


 395 00ac A2F56872 		sub	r2, r2, #928
 396 00b0 9342     		cmp	r3, r2
 397 00b2 72D0     		beq	.L70
 196:/home/christoschristoforou/STM32Cube/Repository/STM32Cube_FW_F4_V1.27.0/Drivers/STM32F4xx_HAL_Driver/Src/stm32f4xx_hal_dma_ex.c ****     __HAL_DMA_CLEAR_FLAG (hdma, __HAL_DMA_GET_HT_FLAG_INDEX(hdma));
 398              		.loc 1 196 5 discriminator 7 view .LVU113
 399 00b4 02F58062 		add	r2, r2, #1024
 400 00b8 9342     		cmp	r3, r2
 401 00ba 70D0     		beq	.L71
 196:/home/christoschristoforou/STM32Cube/Repository/STM32Cube_FW_F4_V1.27.0/Drivers/STM32F4xx_HAL_Driver/Src/stm32f4xx_hal_dma_ex.c ****     __HAL_DMA_CLEAR_FLAG (hdma, __HAL_DMA_GET_HT_FLAG_INDEX(hdma));
 402              		.loc 1 196 5 discriminator 9 view .LVU114
 403 00bc A2F58962 		sub	r2, r2, #1096
 404 00c0 9342     		cmp	r3, r2
 405 00c2 6ED0     		beq	.L72
 196:/home/christoschristoforou/STM32Cube/Repository/STM32Cube_FW_F4_V1.27.0/Drivers/STM32F4xx_HAL_Driver/Src/stm32f4xx_hal_dma_ex.c ****     __HAL_DMA_CLEAR_FLAG (hdma, __HAL_DMA_GET_HT_FLAG_INDEX(hdma));
 406              		.loc 1 196 5 discriminator 11 view .LVU115
 407 00c4 02F58062 		add	r2, r2, #1024
 408 00c8 9342     		cmp	r3, r2
 409 00ca 6DD0     		beq	.L73
 196:/home/christoschristoforou/STM32Cube/Repository/STM32Cube_FW_F4_V1.27.0/Drivers/STM32F4xx_HAL_Driver/Src/stm32f4xx_hal_dma_ex.c ****     __HAL_DMA_CLEAR_FLAG (hdma, __HAL_DMA_GET_HT_FLAG_INDEX(hdma));
 410              		.loc 1 196 5 discriminator 13 view .LVU116
 411 00cc A2F56872 		sub	r2, r2, #928
 412 00d0 9342     		cmp	r3, r2
 413 00d2 6CD0     		beq	.L74
 196:/home/christoschristoforou/STM32Cube/Repository/STM32Cube_FW_F4_V1.27.0/Drivers/STM32F4xx_HAL_Driver/Src/stm32f4xx_hal_dma_ex.c ****     __HAL_DMA_CLEAR_FLAG (hdma, __HAL_DMA_GET_HT_FLAG_INDEX(hdma));
 414              		.loc 1 196 5 discriminator 15 view .LVU117
 415 00d4 02F58062 		add	r2, r2, #1024
 416 00d8 9342     		cmp	r3, r2
 417 00da 6BD0     		beq	.L75
 196:/home/christoschristoforou/STM32Cube/Repository/STM32Cube_FW_F4_V1.27.0/Drivers/STM32F4xx_HAL_Driver/Src/stm32f4xx_hal_dma_ex.c ****     __HAL_DMA_CLEAR_FLAG (hdma, __HAL_DMA_GET_HT_FLAG_INDEX(hdma));
 418              		.loc 1 196 5 discriminator 17 view .LVU118
 419 00dc A2F58962 		sub	r2, r2, #1096
 420 00e0 9342     		cmp	r3, r2
 421 00e2 6AD0     		beq	.L76
 196:/home/christoschristoforou/STM32Cube/Repository/STM32Cube_FW_F4_V1.27.0/Drivers/STM32F4xx_HAL_Driver/Src/stm32f4xx_hal_dma_ex.c ****     __HAL_DMA_CLEAR_FLAG (hdma, __HAL_DMA_GET_HT_FLAG_INDEX(hdma));
 422              		.loc 1 196 5 discriminator 19 view .LVU119
 423 00e4 02F58062 		add	r2, r2, #1024
 424 00e8 9342     		cmp	r3, r2
 425 00ea 69D0     		beq	.L77
 196:/home/christoschristoforou/STM32Cube/Repository/STM32Cube_FW_F4_V1.27.0/Drivers/STM32F4xx_HAL_Driver/Src/stm32f4xx_hal_dma_ex.c ****     __HAL_DMA_CLEAR_FLAG (hdma, __HAL_DMA_GET_HT_FLAG_INDEX(hdma));
 426              		.loc 1 196 5 discriminator 21 view .LVU120
 427 00ec A2F56872 		sub	r2, r2, #928
 428 00f0 9342     		cmp	r3, r2
 429 00f2 68D0     		beq	.L78
 196:/home/christoschristoforou/STM32Cube/Repository/STM32Cube_FW_F4_V1.27.0/Drivers/STM32F4xx_HAL_Driver/Src/stm32f4xx_hal_dma_ex.c ****     __HAL_DMA_CLEAR_FLAG (hdma, __HAL_DMA_GET_HT_FLAG_INDEX(hdma));
 430              		.loc 1 196 5 discriminator 23 view .LVU121
 431 00f4 02F58062 		add	r2, r2, #1024
 432 00f8 9342     		cmp	r3, r2
 433 00fa 02D0     		beq	.L312
 196:/home/christoschristoforou/STM32Cube/Repository/STM32Cube_FW_F4_V1.27.0/Drivers/STM32F4xx_HAL_Driver/Src/stm32f4xx_hal_dma_ex.c ****     __HAL_DMA_CLEAR_FLAG (hdma, __HAL_DMA_GET_HT_FLAG_INDEX(hdma));
 434              		.loc 1 196 5 view .LVU122
 435 00fc 4FF00062 		mov	r2, #134217728
 436 0100 03E0     		b	.L26
 437              	.L312:
 438 0102 4FF40012 		mov	r2, #2097152
 439 0106 00E0     		b	.L26
 440              	.L68:
 441 0108 2022     		movs	r2, #32
ARM GAS  /tmp/cctZJEWc.s 			page 16


 442              	.L26:
 196:/home/christoschristoforou/STM32Cube/Repository/STM32Cube_FW_F4_V1.27.0/Drivers/STM32F4xx_HAL_Driver/Src/stm32f4xx_hal_dma_ex.c ****     __HAL_DMA_CLEAR_FLAG (hdma, __HAL_DMA_GET_HT_FLAG_INDEX(hdma));
 443              		.loc 1 196 5 discriminator 50 view .LVU123
 444 010a 894B     		ldr	r3, .L333+8
 445 010c DA60     		str	r2, [r3, #12]
 446              	.LVL30:
 447              	.L27:
 197:/home/christoschristoforou/STM32Cube/Repository/STM32Cube_FW_F4_V1.27.0/Drivers/STM32F4xx_HAL_Driver/Src/stm32f4xx_hal_dma_ex.c ****     __HAL_DMA_CLEAR_FLAG (hdma, __HAL_DMA_GET_TE_FLAG_INDEX(hdma));
 448              		.loc 1 197 5 is_stmt 1 view .LVU124
 449 010e 2368     		ldr	r3, [r4]
 450 0110 864A     		ldr	r2, .L333+4
 451 0112 9342     		cmp	r3, r2
 452 0114 40F2CD81 		bls	.L33
 197:/home/christoschristoforou/STM32Cube/Repository/STM32Cube_FW_F4_V1.27.0/Drivers/STM32F4xx_HAL_Driver/Src/stm32f4xx_hal_dma_ex.c ****     __HAL_DMA_CLEAR_FLAG (hdma, __HAL_DMA_GET_TE_FLAG_INDEX(hdma));
 453              		.loc 1 197 5 is_stmt 0 discriminator 1 view .LVU125
 454 0118 A2F58962 		sub	r2, r2, #1096
 455 011c 9342     		cmp	r3, r2
 456 011e 00F06681 		beq	.L116
 197:/home/christoschristoforou/STM32Cube/Repository/STM32Cube_FW_F4_V1.27.0/Drivers/STM32F4xx_HAL_Driver/Src/stm32f4xx_hal_dma_ex.c ****     __HAL_DMA_CLEAR_FLAG (hdma, __HAL_DMA_GET_TE_FLAG_INDEX(hdma));
 457              		.loc 1 197 5 discriminator 3 view .LVU126
 458 0122 02F58062 		add	r2, r2, #1024
 459 0126 9342     		cmp	r3, r2
 460 0128 00F0A881 		beq	.L117
 197:/home/christoschristoforou/STM32Cube/Repository/STM32Cube_FW_F4_V1.27.0/Drivers/STM32F4xx_HAL_Driver/Src/stm32f4xx_hal_dma_ex.c ****     __HAL_DMA_CLEAR_FLAG (hdma, __HAL_DMA_GET_TE_FLAG_INDEX(hdma));
 461              		.loc 1 197 5 discriminator 5 view .LVU127
 462 012c A2F56872 		sub	r2, r2, #928
 463 0130 9342     		cmp	r3, r2
 464 0132 00F0A581 		beq	.L118
 197:/home/christoschristoforou/STM32Cube/Repository/STM32Cube_FW_F4_V1.27.0/Drivers/STM32F4xx_HAL_Driver/Src/stm32f4xx_hal_dma_ex.c ****     __HAL_DMA_CLEAR_FLAG (hdma, __HAL_DMA_GET_TE_FLAG_INDEX(hdma));
 465              		.loc 1 197 5 discriminator 7 view .LVU128
 466 0136 02F58062 		add	r2, r2, #1024
 467 013a 9342     		cmp	r3, r2
 468 013c 00F0A281 		beq	.L119
 197:/home/christoschristoforou/STM32Cube/Repository/STM32Cube_FW_F4_V1.27.0/Drivers/STM32F4xx_HAL_Driver/Src/stm32f4xx_hal_dma_ex.c ****     __HAL_DMA_CLEAR_FLAG (hdma, __HAL_DMA_GET_TE_FLAG_INDEX(hdma));
 469              		.loc 1 197 5 discriminator 9 view .LVU129
 470 0140 A2F58962 		sub	r2, r2, #1096
 471 0144 9342     		cmp	r3, r2
 472 0146 00F09F81 		beq	.L120
 197:/home/christoschristoforou/STM32Cube/Repository/STM32Cube_FW_F4_V1.27.0/Drivers/STM32F4xx_HAL_Driver/Src/stm32f4xx_hal_dma_ex.c ****     __HAL_DMA_CLEAR_FLAG (hdma, __HAL_DMA_GET_TE_FLAG_INDEX(hdma));
 473              		.loc 1 197 5 discriminator 11 view .LVU130
 474 014a 02F58062 		add	r2, r2, #1024
 475 014e 9342     		cmp	r3, r2
 476 0150 00F09D81 		beq	.L121
 197:/home/christoschristoforou/STM32Cube/Repository/STM32Cube_FW_F4_V1.27.0/Drivers/STM32F4xx_HAL_Driver/Src/stm32f4xx_hal_dma_ex.c ****     __HAL_DMA_CLEAR_FLAG (hdma, __HAL_DMA_GET_TE_FLAG_INDEX(hdma));
 477              		.loc 1 197 5 discriminator 13 view .LVU131
 478 0154 A2F56872 		sub	r2, r2, #928
 479 0158 9342     		cmp	r3, r2
 480 015a 00F09B81 		beq	.L122
 197:/home/christoschristoforou/STM32Cube/Repository/STM32Cube_FW_F4_V1.27.0/Drivers/STM32F4xx_HAL_Driver/Src/stm32f4xx_hal_dma_ex.c ****     __HAL_DMA_CLEAR_FLAG (hdma, __HAL_DMA_GET_TE_FLAG_INDEX(hdma));
 481              		.loc 1 197 5 discriminator 15 view .LVU132
 482 015e 02F58062 		add	r2, r2, #1024
 483 0162 9342     		cmp	r3, r2
 484 0164 00F09981 		beq	.L123
 197:/home/christoschristoforou/STM32Cube/Repository/STM32Cube_FW_F4_V1.27.0/Drivers/STM32F4xx_HAL_Driver/Src/stm32f4xx_hal_dma_ex.c ****     __HAL_DMA_CLEAR_FLAG (hdma, __HAL_DMA_GET_TE_FLAG_INDEX(hdma));
 485              		.loc 1 197 5 discriminator 17 view .LVU133
 486 0168 A2F58962 		sub	r2, r2, #1096
 487 016c 9342     		cmp	r3, r2
ARM GAS  /tmp/cctZJEWc.s 			page 17


 488 016e 00F09781 		beq	.L124
 197:/home/christoschristoforou/STM32Cube/Repository/STM32Cube_FW_F4_V1.27.0/Drivers/STM32F4xx_HAL_Driver/Src/stm32f4xx_hal_dma_ex.c ****     __HAL_DMA_CLEAR_FLAG (hdma, __HAL_DMA_GET_TE_FLAG_INDEX(hdma));
 489              		.loc 1 197 5 discriminator 19 view .LVU134
 490 0172 02F58062 		add	r2, r2, #1024
 491 0176 9342     		cmp	r3, r2
 492 0178 00F09581 		beq	.L125
 197:/home/christoschristoforou/STM32Cube/Repository/STM32Cube_FW_F4_V1.27.0/Drivers/STM32F4xx_HAL_Driver/Src/stm32f4xx_hal_dma_ex.c ****     __HAL_DMA_CLEAR_FLAG (hdma, __HAL_DMA_GET_TE_FLAG_INDEX(hdma));
 493              		.loc 1 197 5 discriminator 21 view .LVU135
 494 017c A2F56872 		sub	r2, r2, #928
 495 0180 9342     		cmp	r3, r2
 496 0182 00F09381 		beq	.L126
 197:/home/christoschristoforou/STM32Cube/Repository/STM32Cube_FW_F4_V1.27.0/Drivers/STM32F4xx_HAL_Driver/Src/stm32f4xx_hal_dma_ex.c ****     __HAL_DMA_CLEAR_FLAG (hdma, __HAL_DMA_GET_TE_FLAG_INDEX(hdma));
 497              		.loc 1 197 5 discriminator 23 view .LVU136
 498 0186 02F58062 		add	r2, r2, #1024
 499 018a 9342     		cmp	r3, r2
 500 018c 00F02C81 		beq	.L313
 197:/home/christoschristoforou/STM32Cube/Repository/STM32Cube_FW_F4_V1.27.0/Drivers/STM32F4xx_HAL_Driver/Src/stm32f4xx_hal_dma_ex.c ****     __HAL_DMA_CLEAR_FLAG (hdma, __HAL_DMA_GET_TE_FLAG_INDEX(hdma));
 501              		.loc 1 197 5 view .LVU137
 502 0190 4FF08062 		mov	r2, #67108864
 503 0194 2CE1     		b	.L34
 504              	.LVL31:
 505              	.L69:
 196:/home/christoschristoforou/STM32Cube/Repository/STM32Cube_FW_F4_V1.27.0/Drivers/STM32F4xx_HAL_Driver/Src/stm32f4xx_hal_dma_ex.c ****     __HAL_DMA_CLEAR_FLAG (hdma, __HAL_DMA_GET_HT_FLAG_INDEX(hdma));
 506              		.loc 1 196 5 view .LVU138
 507 0196 2022     		movs	r2, #32
 508 0198 B7E7     		b	.L26
 509              	.L70:
 510 019a 2022     		movs	r2, #32
 511 019c B5E7     		b	.L26
 512              	.L71:
 513 019e 2022     		movs	r2, #32
 514 01a0 B3E7     		b	.L26
 515              	.L72:
 516 01a2 4FF40062 		mov	r2, #2048
 517 01a6 B0E7     		b	.L26
 518              	.L73:
 519 01a8 4FF40062 		mov	r2, #2048
 520 01ac ADE7     		b	.L26
 521              	.L74:
 522 01ae 4FF40062 		mov	r2, #2048
 523 01b2 AAE7     		b	.L26
 524              	.L75:
 525 01b4 4FF40062 		mov	r2, #2048
 526 01b8 A7E7     		b	.L26
 527              	.L76:
 528 01ba 4FF40012 		mov	r2, #2097152
 529 01be A4E7     		b	.L26
 530              	.L77:
 531 01c0 4FF40012 		mov	r2, #2097152
 532 01c4 A1E7     		b	.L26
 533              	.L78:
 534 01c6 4FF40012 		mov	r2, #2097152
 535 01ca 9EE7     		b	.L26
 536              	.L25:
 196:/home/christoschristoforou/STM32Cube/Repository/STM32Cube_FW_F4_V1.27.0/Drivers/STM32F4xx_HAL_Driver/Src/stm32f4xx_hal_dma_ex.c ****     __HAL_DMA_CLEAR_FLAG (hdma, __HAL_DMA_GET_HT_FLAG_INDEX(hdma));
 537              		.loc 1 196 5 discriminator 2 view .LVU139
 538 01cc 594A     		ldr	r2, .L333+12
ARM GAS  /tmp/cctZJEWc.s 			page 18


 539 01ce 9342     		cmp	r3, r2
 540 01d0 53D9     		bls	.L28
 196:/home/christoschristoforou/STM32Cube/Repository/STM32Cube_FW_F4_V1.27.0/Drivers/STM32F4xx_HAL_Driver/Src/stm32f4xx_hal_dma_ex.c ****     __HAL_DMA_CLEAR_FLAG (hdma, __HAL_DMA_GET_HT_FLAG_INDEX(hdma));
 541              		.loc 1 196 5 discriminator 51 view .LVU140
 542 01d2 A83A     		subs	r2, r2, #168
 543 01d4 9342     		cmp	r3, r2
 544 01d6 31D0     		beq	.L80
 196:/home/christoschristoforou/STM32Cube/Repository/STM32Cube_FW_F4_V1.27.0/Drivers/STM32F4xx_HAL_Driver/Src/stm32f4xx_hal_dma_ex.c ****     __HAL_DMA_CLEAR_FLAG (hdma, __HAL_DMA_GET_HT_FLAG_INDEX(hdma));
 545              		.loc 1 196 5 discriminator 53 view .LVU141
 546 01d8 02F58062 		add	r2, r2, #1024
 547 01dc 9342     		cmp	r3, r2
 548 01de 31D0     		beq	.L81
 196:/home/christoschristoforou/STM32Cube/Repository/STM32Cube_FW_F4_V1.27.0/Drivers/STM32F4xx_HAL_Driver/Src/stm32f4xx_hal_dma_ex.c ****     __HAL_DMA_CLEAR_FLAG (hdma, __HAL_DMA_GET_HT_FLAG_INDEX(hdma));
 549              		.loc 1 196 5 discriminator 55 view .LVU142
 550 01e0 A2F56872 		sub	r2, r2, #928
 551 01e4 9342     		cmp	r3, r2
 552 01e6 2FD0     		beq	.L82
 196:/home/christoschristoforou/STM32Cube/Repository/STM32Cube_FW_F4_V1.27.0/Drivers/STM32F4xx_HAL_Driver/Src/stm32f4xx_hal_dma_ex.c ****     __HAL_DMA_CLEAR_FLAG (hdma, __HAL_DMA_GET_HT_FLAG_INDEX(hdma));
 553              		.loc 1 196 5 discriminator 57 view .LVU143
 554 01e8 02F58062 		add	r2, r2, #1024
 555 01ec 9342     		cmp	r3, r2
 556 01ee 2DD0     		beq	.L83
 196:/home/christoschristoforou/STM32Cube/Repository/STM32Cube_FW_F4_V1.27.0/Drivers/STM32F4xx_HAL_Driver/Src/stm32f4xx_hal_dma_ex.c ****     __HAL_DMA_CLEAR_FLAG (hdma, __HAL_DMA_GET_HT_FLAG_INDEX(hdma));
 557              		.loc 1 196 5 discriminator 59 view .LVU144
 558 01f0 A2F58962 		sub	r2, r2, #1096
 559 01f4 9342     		cmp	r3, r2
 560 01f6 2BD0     		beq	.L84
 196:/home/christoschristoforou/STM32Cube/Repository/STM32Cube_FW_F4_V1.27.0/Drivers/STM32F4xx_HAL_Driver/Src/stm32f4xx_hal_dma_ex.c ****     __HAL_DMA_CLEAR_FLAG (hdma, __HAL_DMA_GET_HT_FLAG_INDEX(hdma));
 561              		.loc 1 196 5 discriminator 61 view .LVU145
 562 01f8 02F58062 		add	r2, r2, #1024
 563 01fc 9342     		cmp	r3, r2
 564 01fe 2AD0     		beq	.L85
 196:/home/christoschristoforou/STM32Cube/Repository/STM32Cube_FW_F4_V1.27.0/Drivers/STM32F4xx_HAL_Driver/Src/stm32f4xx_hal_dma_ex.c ****     __HAL_DMA_CLEAR_FLAG (hdma, __HAL_DMA_GET_HT_FLAG_INDEX(hdma));
 565              		.loc 1 196 5 discriminator 63 view .LVU146
 566 0200 A2F56872 		sub	r2, r2, #928
 567 0204 9342     		cmp	r3, r2
 568 0206 29D0     		beq	.L86
 196:/home/christoschristoforou/STM32Cube/Repository/STM32Cube_FW_F4_V1.27.0/Drivers/STM32F4xx_HAL_Driver/Src/stm32f4xx_hal_dma_ex.c ****     __HAL_DMA_CLEAR_FLAG (hdma, __HAL_DMA_GET_HT_FLAG_INDEX(hdma));
 569              		.loc 1 196 5 discriminator 65 view .LVU147
 570 0208 02F58062 		add	r2, r2, #1024
 571 020c 9342     		cmp	r3, r2
 572 020e 28D0     		beq	.L87
 196:/home/christoschristoforou/STM32Cube/Repository/STM32Cube_FW_F4_V1.27.0/Drivers/STM32F4xx_HAL_Driver/Src/stm32f4xx_hal_dma_ex.c ****     __HAL_DMA_CLEAR_FLAG (hdma, __HAL_DMA_GET_HT_FLAG_INDEX(hdma));
 573              		.loc 1 196 5 discriminator 67 view .LVU148
 574 0210 A2F58962 		sub	r2, r2, #1096
 575 0214 9342     		cmp	r3, r2
 576 0216 27D0     		beq	.L88
 196:/home/christoschristoforou/STM32Cube/Repository/STM32Cube_FW_F4_V1.27.0/Drivers/STM32F4xx_HAL_Driver/Src/stm32f4xx_hal_dma_ex.c ****     __HAL_DMA_CLEAR_FLAG (hdma, __HAL_DMA_GET_HT_FLAG_INDEX(hdma));
 577              		.loc 1 196 5 discriminator 69 view .LVU149
 578 0218 02F58062 		add	r2, r2, #1024
 579 021c 9342     		cmp	r3, r2
 580 021e 26D0     		beq	.L89
 196:/home/christoschristoforou/STM32Cube/Repository/STM32Cube_FW_F4_V1.27.0/Drivers/STM32F4xx_HAL_Driver/Src/stm32f4xx_hal_dma_ex.c ****     __HAL_DMA_CLEAR_FLAG (hdma, __HAL_DMA_GET_HT_FLAG_INDEX(hdma));
 581              		.loc 1 196 5 discriminator 71 view .LVU150
 582 0220 A2F56872 		sub	r2, r2, #928
 583 0224 9342     		cmp	r3, r2
 584 0226 25D0     		beq	.L90
ARM GAS  /tmp/cctZJEWc.s 			page 19


 196:/home/christoschristoforou/STM32Cube/Repository/STM32Cube_FW_F4_V1.27.0/Drivers/STM32F4xx_HAL_Driver/Src/stm32f4xx_hal_dma_ex.c ****     __HAL_DMA_CLEAR_FLAG (hdma, __HAL_DMA_GET_HT_FLAG_INDEX(hdma));
 585              		.loc 1 196 5 discriminator 73 view .LVU151
 586 0228 02F58062 		add	r2, r2, #1024
 587 022c 9342     		cmp	r3, r2
 588 022e 02D0     		beq	.L314
 196:/home/christoschristoforou/STM32Cube/Repository/STM32Cube_FW_F4_V1.27.0/Drivers/STM32F4xx_HAL_Driver/Src/stm32f4xx_hal_dma_ex.c ****     __HAL_DMA_CLEAR_FLAG (hdma, __HAL_DMA_GET_HT_FLAG_INDEX(hdma));
 589              		.loc 1 196 5 view .LVU152
 590 0230 4FF00063 		mov	r3, #134217728
 591 0234 03E0     		b	.L29
 592              	.L314:
 593 0236 4FF40013 		mov	r3, #2097152
 594 023a 00E0     		b	.L29
 595              	.L80:
 596 023c 2023     		movs	r3, #32
 597              	.L29:
 196:/home/christoschristoforou/STM32Cube/Repository/STM32Cube_FW_F4_V1.27.0/Drivers/STM32F4xx_HAL_Driver/Src/stm32f4xx_hal_dma_ex.c ****     __HAL_DMA_CLEAR_FLAG (hdma, __HAL_DMA_GET_HT_FLAG_INDEX(hdma));
 598              		.loc 1 196 5 discriminator 100 view .LVU153
 599 023e 3C4A     		ldr	r2, .L333+8
 600 0240 9360     		str	r3, [r2, #8]
 601              	.LVL32:
 196:/home/christoschristoforou/STM32Cube/Repository/STM32Cube_FW_F4_V1.27.0/Drivers/STM32F4xx_HAL_Driver/Src/stm32f4xx_hal_dma_ex.c ****     __HAL_DMA_CLEAR_FLAG (hdma, __HAL_DMA_GET_HT_FLAG_INDEX(hdma));
 602              		.loc 1 196 5 discriminator 100 view .LVU154
 603 0242 64E7     		b	.L27
 604              	.LVL33:
 605              	.L81:
 196:/home/christoschristoforou/STM32Cube/Repository/STM32Cube_FW_F4_V1.27.0/Drivers/STM32F4xx_HAL_Driver/Src/stm32f4xx_hal_dma_ex.c ****     __HAL_DMA_CLEAR_FLAG (hdma, __HAL_DMA_GET_HT_FLAG_INDEX(hdma));
 606              		.loc 1 196 5 view .LVU155
 607 0244 2023     		movs	r3, #32
 608 0246 FAE7     		b	.L29
 609              	.L82:
 610 0248 2023     		movs	r3, #32
 611 024a F8E7     		b	.L29
 612              	.L83:
 613 024c 2023     		movs	r3, #32
 614 024e F6E7     		b	.L29
 615              	.L84:
 616 0250 4FF40063 		mov	r3, #2048
 617 0254 F3E7     		b	.L29
 618              	.L85:
 619 0256 4FF40063 		mov	r3, #2048
 620 025a F0E7     		b	.L29
 621              	.L86:
 622 025c 4FF40063 		mov	r3, #2048
 623 0260 EDE7     		b	.L29
 624              	.L87:
 625 0262 4FF40063 		mov	r3, #2048
 626 0266 EAE7     		b	.L29
 627              	.L88:
 628 0268 4FF40013 		mov	r3, #2097152
 629 026c E7E7     		b	.L29
 630              	.L89:
 631 026e 4FF40013 		mov	r3, #2097152
 632 0272 E4E7     		b	.L29
 633              	.L90:
 634 0274 4FF40013 		mov	r3, #2097152
 635 0278 E1E7     		b	.L29
 636              	.L28:
ARM GAS  /tmp/cctZJEWc.s 			page 20


 196:/home/christoschristoforou/STM32Cube/Repository/STM32Cube_FW_F4_V1.27.0/Drivers/STM32F4xx_HAL_Driver/Src/stm32f4xx_hal_dma_ex.c ****     __HAL_DMA_CLEAR_FLAG (hdma, __HAL_DMA_GET_HT_FLAG_INDEX(hdma));
 637              		.loc 1 196 5 discriminator 52 view .LVU156
 638 027a 2F4A     		ldr	r2, .L333+16
 639 027c 9342     		cmp	r3, r2
 640 027e 5FD9     		bls	.L30
 196:/home/christoschristoforou/STM32Cube/Repository/STM32Cube_FW_F4_V1.27.0/Drivers/STM32F4xx_HAL_Driver/Src/stm32f4xx_hal_dma_ex.c ****     __HAL_DMA_CLEAR_FLAG (hdma, __HAL_DMA_GET_HT_FLAG_INDEX(hdma));
 641              		.loc 1 196 5 discriminator 102 view .LVU157
 642 0280 483A     		subs	r2, r2, #72
 643 0282 9342     		cmp	r3, r2
 644 0284 31D0     		beq	.L92
 196:/home/christoschristoforou/STM32Cube/Repository/STM32Cube_FW_F4_V1.27.0/Drivers/STM32F4xx_HAL_Driver/Src/stm32f4xx_hal_dma_ex.c ****     __HAL_DMA_CLEAR_FLAG (hdma, __HAL_DMA_GET_HT_FLAG_INDEX(hdma));
 645              		.loc 1 196 5 discriminator 104 view .LVU158
 646 0286 02F58062 		add	r2, r2, #1024
 647 028a 9342     		cmp	r3, r2
 648 028c 31D0     		beq	.L93
 196:/home/christoschristoforou/STM32Cube/Repository/STM32Cube_FW_F4_V1.27.0/Drivers/STM32F4xx_HAL_Driver/Src/stm32f4xx_hal_dma_ex.c ****     __HAL_DMA_CLEAR_FLAG (hdma, __HAL_DMA_GET_HT_FLAG_INDEX(hdma));
 649              		.loc 1 196 5 discriminator 106 view .LVU159
 650 028e A2F56872 		sub	r2, r2, #928
 651 0292 9342     		cmp	r3, r2
 652 0294 2FD0     		beq	.L94
 196:/home/christoschristoforou/STM32Cube/Repository/STM32Cube_FW_F4_V1.27.0/Drivers/STM32F4xx_HAL_Driver/Src/stm32f4xx_hal_dma_ex.c ****     __HAL_DMA_CLEAR_FLAG (hdma, __HAL_DMA_GET_HT_FLAG_INDEX(hdma));
 653              		.loc 1 196 5 discriminator 108 view .LVU160
 654 0296 02F58062 		add	r2, r2, #1024
 655 029a 9342     		cmp	r3, r2
 656 029c 2DD0     		beq	.L95
 196:/home/christoschristoforou/STM32Cube/Repository/STM32Cube_FW_F4_V1.27.0/Drivers/STM32F4xx_HAL_Driver/Src/stm32f4xx_hal_dma_ex.c ****     __HAL_DMA_CLEAR_FLAG (hdma, __HAL_DMA_GET_HT_FLAG_INDEX(hdma));
 657              		.loc 1 196 5 discriminator 110 view .LVU161
 658 029e A2F58962 		sub	r2, r2, #1096
 659 02a2 9342     		cmp	r3, r2
 660 02a4 2BD0     		beq	.L96
 196:/home/christoschristoforou/STM32Cube/Repository/STM32Cube_FW_F4_V1.27.0/Drivers/STM32F4xx_HAL_Driver/Src/stm32f4xx_hal_dma_ex.c ****     __HAL_DMA_CLEAR_FLAG (hdma, __HAL_DMA_GET_HT_FLAG_INDEX(hdma));
 661              		.loc 1 196 5 discriminator 112 view .LVU162
 662 02a6 02F58062 		add	r2, r2, #1024
 663 02aa 9342     		cmp	r3, r2
 664 02ac 2AD0     		beq	.L97
 196:/home/christoschristoforou/STM32Cube/Repository/STM32Cube_FW_F4_V1.27.0/Drivers/STM32F4xx_HAL_Driver/Src/stm32f4xx_hal_dma_ex.c ****     __HAL_DMA_CLEAR_FLAG (hdma, __HAL_DMA_GET_HT_FLAG_INDEX(hdma));
 665              		.loc 1 196 5 discriminator 114 view .LVU163
 666 02ae A2F56872 		sub	r2, r2, #928
 667 02b2 9342     		cmp	r3, r2
 668 02b4 29D0     		beq	.L98
 196:/home/christoschristoforou/STM32Cube/Repository/STM32Cube_FW_F4_V1.27.0/Drivers/STM32F4xx_HAL_Driver/Src/stm32f4xx_hal_dma_ex.c ****     __HAL_DMA_CLEAR_FLAG (hdma, __HAL_DMA_GET_HT_FLAG_INDEX(hdma));
 669              		.loc 1 196 5 discriminator 116 view .LVU164
 670 02b6 02F58062 		add	r2, r2, #1024
 671 02ba 9342     		cmp	r3, r2
 672 02bc 28D0     		beq	.L99
 196:/home/christoschristoforou/STM32Cube/Repository/STM32Cube_FW_F4_V1.27.0/Drivers/STM32F4xx_HAL_Driver/Src/stm32f4xx_hal_dma_ex.c ****     __HAL_DMA_CLEAR_FLAG (hdma, __HAL_DMA_GET_HT_FLAG_INDEX(hdma));
 673              		.loc 1 196 5 discriminator 118 view .LVU165
 674 02be A2F58962 		sub	r2, r2, #1096
 675 02c2 9342     		cmp	r3, r2
 676 02c4 27D0     		beq	.L100
 196:/home/christoschristoforou/STM32Cube/Repository/STM32Cube_FW_F4_V1.27.0/Drivers/STM32F4xx_HAL_Driver/Src/stm32f4xx_hal_dma_ex.c ****     __HAL_DMA_CLEAR_FLAG (hdma, __HAL_DMA_GET_HT_FLAG_INDEX(hdma));
 677              		.loc 1 196 5 discriminator 120 view .LVU166
 678 02c6 02F58062 		add	r2, r2, #1024
 679 02ca 9342     		cmp	r3, r2
 680 02cc 26D0     		beq	.L101
 196:/home/christoschristoforou/STM32Cube/Repository/STM32Cube_FW_F4_V1.27.0/Drivers/STM32F4xx_HAL_Driver/Src/stm32f4xx_hal_dma_ex.c ****     __HAL_DMA_CLEAR_FLAG (hdma, __HAL_DMA_GET_HT_FLAG_INDEX(hdma));
 681              		.loc 1 196 5 discriminator 122 view .LVU167
ARM GAS  /tmp/cctZJEWc.s 			page 21


 682 02ce A2F56872 		sub	r2, r2, #928
 683 02d2 9342     		cmp	r3, r2
 684 02d4 25D0     		beq	.L102
 196:/home/christoschristoforou/STM32Cube/Repository/STM32Cube_FW_F4_V1.27.0/Drivers/STM32F4xx_HAL_Driver/Src/stm32f4xx_hal_dma_ex.c ****     __HAL_DMA_CLEAR_FLAG (hdma, __HAL_DMA_GET_HT_FLAG_INDEX(hdma));
 685              		.loc 1 196 5 discriminator 124 view .LVU168
 686 02d6 02F58062 		add	r2, r2, #1024
 687 02da 9342     		cmp	r3, r2
 688 02dc 02D0     		beq	.L315
 196:/home/christoschristoforou/STM32Cube/Repository/STM32Cube_FW_F4_V1.27.0/Drivers/STM32F4xx_HAL_Driver/Src/stm32f4xx_hal_dma_ex.c ****     __HAL_DMA_CLEAR_FLAG (hdma, __HAL_DMA_GET_HT_FLAG_INDEX(hdma));
 689              		.loc 1 196 5 view .LVU169
 690 02de 4FF00063 		mov	r3, #134217728
 691 02e2 03E0     		b	.L31
 692              	.L315:
 693 02e4 4FF40013 		mov	r3, #2097152
 694 02e8 00E0     		b	.L31
 695              	.L92:
 696 02ea 2023     		movs	r3, #32
 697              	.L31:
 196:/home/christoschristoforou/STM32Cube/Repository/STM32Cube_FW_F4_V1.27.0/Drivers/STM32F4xx_HAL_Driver/Src/stm32f4xx_hal_dma_ex.c ****     __HAL_DMA_CLEAR_FLAG (hdma, __HAL_DMA_GET_HT_FLAG_INDEX(hdma));
 698              		.loc 1 196 5 discriminator 151 view .LVU170
 699 02ec 134A     		ldr	r2, .L333+20
 700 02ee D360     		str	r3, [r2, #12]
 701              	.LVL34:
 196:/home/christoschristoforou/STM32Cube/Repository/STM32Cube_FW_F4_V1.27.0/Drivers/STM32F4xx_HAL_Driver/Src/stm32f4xx_hal_dma_ex.c ****     __HAL_DMA_CLEAR_FLAG (hdma, __HAL_DMA_GET_HT_FLAG_INDEX(hdma));
 702              		.loc 1 196 5 discriminator 151 view .LVU171
 703 02f0 0DE7     		b	.L27
 704              	.LVL35:
 705              	.L93:
 196:/home/christoschristoforou/STM32Cube/Repository/STM32Cube_FW_F4_V1.27.0/Drivers/STM32F4xx_HAL_Driver/Src/stm32f4xx_hal_dma_ex.c ****     __HAL_DMA_CLEAR_FLAG (hdma, __HAL_DMA_GET_HT_FLAG_INDEX(hdma));
 706              		.loc 1 196 5 view .LVU172
 707 02f2 2023     		movs	r3, #32
 708 02f4 FAE7     		b	.L31
 709              	.L94:
 710 02f6 2023     		movs	r3, #32
 711 02f8 F8E7     		b	.L31
 712              	.L95:
 713 02fa 2023     		movs	r3, #32
 714 02fc F6E7     		b	.L31
 715              	.L96:
 716 02fe 4FF40063 		mov	r3, #2048
 717 0302 F3E7     		b	.L31
 718              	.L97:
 719 0304 4FF40063 		mov	r3, #2048
 720 0308 F0E7     		b	.L31
 721              	.L98:
 722 030a 4FF40063 		mov	r3, #2048
 723 030e EDE7     		b	.L31
 724              	.L99:
 725 0310 4FF40063 		mov	r3, #2048
 726 0314 EAE7     		b	.L31
 727              	.L100:
 728 0316 4FF40013 		mov	r3, #2097152
 729 031a E7E7     		b	.L31
 730              	.L101:
 731 031c 4FF40013 		mov	r3, #2097152
 732 0320 E4E7     		b	.L31
 733              	.L102:
ARM GAS  /tmp/cctZJEWc.s 			page 22


 734 0322 4FF40013 		mov	r3, #2097152
 735 0326 E1E7     		b	.L31
 736              	.L334:
 737              		.align	2
 738              	.L333:
 739 0328 00000000 		.word	.LC0
 740 032c 58640240 		.word	1073898584
 741 0330 00640240 		.word	1073898496
 742 0334 B8600240 		.word	1073897656
 743 0338 58600240 		.word	1073897560
 744 033c 00600240 		.word	1073897472
 745              	.L30:
 196:/home/christoschristoforou/STM32Cube/Repository/STM32Cube_FW_F4_V1.27.0/Drivers/STM32F4xx_HAL_Driver/Src/stm32f4xx_hal_dma_ex.c ****     __HAL_DMA_CLEAR_FLAG (hdma, __HAL_DMA_GET_HT_FLAG_INDEX(hdma));
 746              		.loc 1 196 5 discriminator 103 view .LVU173
 747 0340 B34A     		ldr	r2, .L335
 748 0342 9342     		cmp	r3, r2
 749 0344 31D0     		beq	.L104
 196:/home/christoschristoforou/STM32Cube/Repository/STM32Cube_FW_F4_V1.27.0/Drivers/STM32F4xx_HAL_Driver/Src/stm32f4xx_hal_dma_ex.c ****     __HAL_DMA_CLEAR_FLAG (hdma, __HAL_DMA_GET_HT_FLAG_INDEX(hdma));
 750              		.loc 1 196 5 discriminator 153 view .LVU174
 751 0346 02F58062 		add	r2, r2, #1024
 752 034a 9342     		cmp	r3, r2
 753 034c 31D0     		beq	.L105
 196:/home/christoschristoforou/STM32Cube/Repository/STM32Cube_FW_F4_V1.27.0/Drivers/STM32F4xx_HAL_Driver/Src/stm32f4xx_hal_dma_ex.c ****     __HAL_DMA_CLEAR_FLAG (hdma, __HAL_DMA_GET_HT_FLAG_INDEX(hdma));
 754              		.loc 1 196 5 discriminator 155 view .LVU175
 755 034e A2F56872 		sub	r2, r2, #928
 756 0352 9342     		cmp	r3, r2
 757 0354 2FD0     		beq	.L106
 196:/home/christoschristoforou/STM32Cube/Repository/STM32Cube_FW_F4_V1.27.0/Drivers/STM32F4xx_HAL_Driver/Src/stm32f4xx_hal_dma_ex.c ****     __HAL_DMA_CLEAR_FLAG (hdma, __HAL_DMA_GET_HT_FLAG_INDEX(hdma));
 758              		.loc 1 196 5 discriminator 157 view .LVU176
 759 0356 02F58062 		add	r2, r2, #1024
 760 035a 9342     		cmp	r3, r2
 761 035c 2DD0     		beq	.L107
 196:/home/christoschristoforou/STM32Cube/Repository/STM32Cube_FW_F4_V1.27.0/Drivers/STM32F4xx_HAL_Driver/Src/stm32f4xx_hal_dma_ex.c ****     __HAL_DMA_CLEAR_FLAG (hdma, __HAL_DMA_GET_HT_FLAG_INDEX(hdma));
 762              		.loc 1 196 5 discriminator 159 view .LVU177
 763 035e A2F58962 		sub	r2, r2, #1096
 764 0362 9342     		cmp	r3, r2
 765 0364 2BD0     		beq	.L108
 196:/home/christoschristoforou/STM32Cube/Repository/STM32Cube_FW_F4_V1.27.0/Drivers/STM32F4xx_HAL_Driver/Src/stm32f4xx_hal_dma_ex.c ****     __HAL_DMA_CLEAR_FLAG (hdma, __HAL_DMA_GET_HT_FLAG_INDEX(hdma));
 766              		.loc 1 196 5 discriminator 161 view .LVU178
 767 0366 02F58062 		add	r2, r2, #1024
 768 036a 9342     		cmp	r3, r2
 769 036c 2AD0     		beq	.L109
 196:/home/christoschristoforou/STM32Cube/Repository/STM32Cube_FW_F4_V1.27.0/Drivers/STM32F4xx_HAL_Driver/Src/stm32f4xx_hal_dma_ex.c ****     __HAL_DMA_CLEAR_FLAG (hdma, __HAL_DMA_GET_HT_FLAG_INDEX(hdma));
 770              		.loc 1 196 5 discriminator 163 view .LVU179
 771 036e A2F56872 		sub	r2, r2, #928
 772 0372 9342     		cmp	r3, r2
 773 0374 29D0     		beq	.L110
 196:/home/christoschristoforou/STM32Cube/Repository/STM32Cube_FW_F4_V1.27.0/Drivers/STM32F4xx_HAL_Driver/Src/stm32f4xx_hal_dma_ex.c ****     __HAL_DMA_CLEAR_FLAG (hdma, __HAL_DMA_GET_HT_FLAG_INDEX(hdma));
 774              		.loc 1 196 5 discriminator 165 view .LVU180
 775 0376 02F58062 		add	r2, r2, #1024
 776 037a 9342     		cmp	r3, r2
 777 037c 28D0     		beq	.L111
 196:/home/christoschristoforou/STM32Cube/Repository/STM32Cube_FW_F4_V1.27.0/Drivers/STM32F4xx_HAL_Driver/Src/stm32f4xx_hal_dma_ex.c ****     __HAL_DMA_CLEAR_FLAG (hdma, __HAL_DMA_GET_HT_FLAG_INDEX(hdma));
 778              		.loc 1 196 5 discriminator 167 view .LVU181
 779 037e A2F58962 		sub	r2, r2, #1096
 780 0382 9342     		cmp	r3, r2
 781 0384 27D0     		beq	.L112
ARM GAS  /tmp/cctZJEWc.s 			page 23


 196:/home/christoschristoforou/STM32Cube/Repository/STM32Cube_FW_F4_V1.27.0/Drivers/STM32F4xx_HAL_Driver/Src/stm32f4xx_hal_dma_ex.c ****     __HAL_DMA_CLEAR_FLAG (hdma, __HAL_DMA_GET_HT_FLAG_INDEX(hdma));
 782              		.loc 1 196 5 discriminator 169 view .LVU182
 783 0386 02F58062 		add	r2, r2, #1024
 784 038a 9342     		cmp	r3, r2
 785 038c 26D0     		beq	.L113
 196:/home/christoschristoforou/STM32Cube/Repository/STM32Cube_FW_F4_V1.27.0/Drivers/STM32F4xx_HAL_Driver/Src/stm32f4xx_hal_dma_ex.c ****     __HAL_DMA_CLEAR_FLAG (hdma, __HAL_DMA_GET_HT_FLAG_INDEX(hdma));
 786              		.loc 1 196 5 discriminator 171 view .LVU183
 787 038e A2F56872 		sub	r2, r2, #928
 788 0392 9342     		cmp	r3, r2
 789 0394 25D0     		beq	.L114
 196:/home/christoschristoforou/STM32Cube/Repository/STM32Cube_FW_F4_V1.27.0/Drivers/STM32F4xx_HAL_Driver/Src/stm32f4xx_hal_dma_ex.c ****     __HAL_DMA_CLEAR_FLAG (hdma, __HAL_DMA_GET_HT_FLAG_INDEX(hdma));
 790              		.loc 1 196 5 discriminator 173 view .LVU184
 791 0396 02F58062 		add	r2, r2, #1024
 792 039a 9342     		cmp	r3, r2
 793 039c 02D0     		beq	.L316
 196:/home/christoschristoforou/STM32Cube/Repository/STM32Cube_FW_F4_V1.27.0/Drivers/STM32F4xx_HAL_Driver/Src/stm32f4xx_hal_dma_ex.c ****     __HAL_DMA_CLEAR_FLAG (hdma, __HAL_DMA_GET_HT_FLAG_INDEX(hdma));
 794              		.loc 1 196 5 view .LVU185
 795 039e 4FF00063 		mov	r3, #134217728
 796 03a2 03E0     		b	.L32
 797              	.L316:
 798 03a4 4FF40013 		mov	r3, #2097152
 799 03a8 00E0     		b	.L32
 800              	.L104:
 801 03aa 2023     		movs	r3, #32
 802              	.L32:
 196:/home/christoschristoforou/STM32Cube/Repository/STM32Cube_FW_F4_V1.27.0/Drivers/STM32F4xx_HAL_Driver/Src/stm32f4xx_hal_dma_ex.c ****     __HAL_DMA_CLEAR_FLAG (hdma, __HAL_DMA_GET_HT_FLAG_INDEX(hdma));
 803              		.loc 1 196 5 discriminator 200 view .LVU186
 804 03ac 994A     		ldr	r2, .L335+4
 805 03ae 9360     		str	r3, [r2, #8]
 806              	.LVL36:
 196:/home/christoschristoforou/STM32Cube/Repository/STM32Cube_FW_F4_V1.27.0/Drivers/STM32F4xx_HAL_Driver/Src/stm32f4xx_hal_dma_ex.c ****     __HAL_DMA_CLEAR_FLAG (hdma, __HAL_DMA_GET_HT_FLAG_INDEX(hdma));
 807              		.loc 1 196 5 discriminator 200 view .LVU187
 808 03b0 ADE6     		b	.L27
 809              	.LVL37:
 810              	.L105:
 196:/home/christoschristoforou/STM32Cube/Repository/STM32Cube_FW_F4_V1.27.0/Drivers/STM32F4xx_HAL_Driver/Src/stm32f4xx_hal_dma_ex.c ****     __HAL_DMA_CLEAR_FLAG (hdma, __HAL_DMA_GET_HT_FLAG_INDEX(hdma));
 811              		.loc 1 196 5 view .LVU188
 812 03b2 2023     		movs	r3, #32
 813 03b4 FAE7     		b	.L32
 814              	.L106:
 815 03b6 2023     		movs	r3, #32
 816 03b8 F8E7     		b	.L32
 817              	.L107:
 818 03ba 2023     		movs	r3, #32
 819 03bc F6E7     		b	.L32
 820              	.L108:
 821 03be 4FF40063 		mov	r3, #2048
 822 03c2 F3E7     		b	.L32
 823              	.L109:
 824 03c4 4FF40063 		mov	r3, #2048
 825 03c8 F0E7     		b	.L32
 826              	.L110:
 827 03ca 4FF40063 		mov	r3, #2048
 828 03ce EDE7     		b	.L32
 829              	.L111:
 830 03d0 4FF40063 		mov	r3, #2048
 831 03d4 EAE7     		b	.L32
ARM GAS  /tmp/cctZJEWc.s 			page 24


 832              	.L112:
 833 03d6 4FF40013 		mov	r3, #2097152
 834 03da E7E7     		b	.L32
 835              	.L113:
 836 03dc 4FF40013 		mov	r3, #2097152
 837 03e0 E4E7     		b	.L32
 838              	.L114:
 839 03e2 4FF40013 		mov	r3, #2097152
 840 03e6 E1E7     		b	.L32
 841              	.LVL38:
 842              	.L313:
 197:/home/christoschristoforou/STM32Cube/Repository/STM32Cube_FW_F4_V1.27.0/Drivers/STM32F4xx_HAL_Driver/Src/stm32f4xx_hal_dma_ex.c ****     __HAL_DMA_CLEAR_FLAG (hdma, __HAL_DMA_GET_TE_FLAG_INDEX(hdma));
 843              		.loc 1 197 5 view .LVU189
 844 03e8 4FF48012 		mov	r2, #1048576
 845 03ec 00E0     		b	.L34
 846              	.L116:
 847 03ee 1022     		movs	r2, #16
 848              	.L34:
 197:/home/christoschristoforou/STM32Cube/Repository/STM32Cube_FW_F4_V1.27.0/Drivers/STM32F4xx_HAL_Driver/Src/stm32f4xx_hal_dma_ex.c ****     __HAL_DMA_CLEAR_FLAG (hdma, __HAL_DMA_GET_TE_FLAG_INDEX(hdma));
 849              		.loc 1 197 5 discriminator 50 view .LVU190
 850 03f0 894B     		ldr	r3, .L335+8
 851 03f2 DA60     		str	r2, [r3, #12]
 852              	.L35:
 198:/home/christoschristoforou/STM32Cube/Repository/STM32Cube_FW_F4_V1.27.0/Drivers/STM32F4xx_HAL_Driver/Src/stm32f4xx_hal_dma_ex.c ****     __HAL_DMA_CLEAR_FLAG (hdma, __HAL_DMA_GET_DME_FLAG_INDEX(hdma));
 853              		.loc 1 198 5 is_stmt 1 view .LVU191
 854 03f4 2368     		ldr	r3, [r4]
 855 03f6 894A     		ldr	r2, .L335+12
 856 03f8 9342     		cmp	r3, r2
 857 03fa 40F2CE81 		bls	.L41
 198:/home/christoschristoforou/STM32Cube/Repository/STM32Cube_FW_F4_V1.27.0/Drivers/STM32F4xx_HAL_Driver/Src/stm32f4xx_hal_dma_ex.c ****     __HAL_DMA_CLEAR_FLAG (hdma, __HAL_DMA_GET_DME_FLAG_INDEX(hdma));
 858              		.loc 1 198 5 is_stmt 0 discriminator 1 view .LVU192
 859 03fe A2F58962 		sub	r2, r2, #1096
 860 0402 9342     		cmp	r3, r2
 861 0404 00F06781 		beq	.L164
 198:/home/christoschristoforou/STM32Cube/Repository/STM32Cube_FW_F4_V1.27.0/Drivers/STM32F4xx_HAL_Driver/Src/stm32f4xx_hal_dma_ex.c ****     __HAL_DMA_CLEAR_FLAG (hdma, __HAL_DMA_GET_DME_FLAG_INDEX(hdma));
 862              		.loc 1 198 5 discriminator 3 view .LVU193
 863 0408 02F58062 		add	r2, r2, #1024
 864 040c 9342     		cmp	r3, r2
 865 040e 00F0A981 		beq	.L165
 198:/home/christoschristoforou/STM32Cube/Repository/STM32Cube_FW_F4_V1.27.0/Drivers/STM32F4xx_HAL_Driver/Src/stm32f4xx_hal_dma_ex.c ****     __HAL_DMA_CLEAR_FLAG (hdma, __HAL_DMA_GET_DME_FLAG_INDEX(hdma));
 866              		.loc 1 198 5 discriminator 5 view .LVU194
 867 0412 A2F56872 		sub	r2, r2, #928
 868 0416 9342     		cmp	r3, r2
 869 0418 00F0A681 		beq	.L166
 198:/home/christoschristoforou/STM32Cube/Repository/STM32Cube_FW_F4_V1.27.0/Drivers/STM32F4xx_HAL_Driver/Src/stm32f4xx_hal_dma_ex.c ****     __HAL_DMA_CLEAR_FLAG (hdma, __HAL_DMA_GET_DME_FLAG_INDEX(hdma));
 870              		.loc 1 198 5 discriminator 7 view .LVU195
 871 041c 02F58062 		add	r2, r2, #1024
 872 0420 9342     		cmp	r3, r2
 873 0422 00F0A381 		beq	.L167
 198:/home/christoschristoforou/STM32Cube/Repository/STM32Cube_FW_F4_V1.27.0/Drivers/STM32F4xx_HAL_Driver/Src/stm32f4xx_hal_dma_ex.c ****     __HAL_DMA_CLEAR_FLAG (hdma, __HAL_DMA_GET_DME_FLAG_INDEX(hdma));
 874              		.loc 1 198 5 discriminator 9 view .LVU196
 875 0426 A2F58962 		sub	r2, r2, #1096
 876 042a 9342     		cmp	r3, r2
 877 042c 00F0A081 		beq	.L168
 198:/home/christoschristoforou/STM32Cube/Repository/STM32Cube_FW_F4_V1.27.0/Drivers/STM32F4xx_HAL_Driver/Src/stm32f4xx_hal_dma_ex.c ****     __HAL_DMA_CLEAR_FLAG (hdma, __HAL_DMA_GET_DME_FLAG_INDEX(hdma));
 878              		.loc 1 198 5 discriminator 11 view .LVU197
 879 0430 02F58062 		add	r2, r2, #1024
ARM GAS  /tmp/cctZJEWc.s 			page 25


 880 0434 9342     		cmp	r3, r2
 881 0436 00F09E81 		beq	.L169
 198:/home/christoschristoforou/STM32Cube/Repository/STM32Cube_FW_F4_V1.27.0/Drivers/STM32F4xx_HAL_Driver/Src/stm32f4xx_hal_dma_ex.c ****     __HAL_DMA_CLEAR_FLAG (hdma, __HAL_DMA_GET_DME_FLAG_INDEX(hdma));
 882              		.loc 1 198 5 discriminator 13 view .LVU198
 883 043a A2F56872 		sub	r2, r2, #928
 884 043e 9342     		cmp	r3, r2
 885 0440 00F09C81 		beq	.L170
 198:/home/christoschristoforou/STM32Cube/Repository/STM32Cube_FW_F4_V1.27.0/Drivers/STM32F4xx_HAL_Driver/Src/stm32f4xx_hal_dma_ex.c ****     __HAL_DMA_CLEAR_FLAG (hdma, __HAL_DMA_GET_DME_FLAG_INDEX(hdma));
 886              		.loc 1 198 5 discriminator 15 view .LVU199
 887 0444 02F58062 		add	r2, r2, #1024
 888 0448 9342     		cmp	r3, r2
 889 044a 00F09A81 		beq	.L171
 198:/home/christoschristoforou/STM32Cube/Repository/STM32Cube_FW_F4_V1.27.0/Drivers/STM32F4xx_HAL_Driver/Src/stm32f4xx_hal_dma_ex.c ****     __HAL_DMA_CLEAR_FLAG (hdma, __HAL_DMA_GET_DME_FLAG_INDEX(hdma));
 890              		.loc 1 198 5 discriminator 17 view .LVU200
 891 044e A2F58962 		sub	r2, r2, #1096
 892 0452 9342     		cmp	r3, r2
 893 0454 00F09881 		beq	.L172
 198:/home/christoschristoforou/STM32Cube/Repository/STM32Cube_FW_F4_V1.27.0/Drivers/STM32F4xx_HAL_Driver/Src/stm32f4xx_hal_dma_ex.c ****     __HAL_DMA_CLEAR_FLAG (hdma, __HAL_DMA_GET_DME_FLAG_INDEX(hdma));
 894              		.loc 1 198 5 discriminator 19 view .LVU201
 895 0458 02F58062 		add	r2, r2, #1024
 896 045c 9342     		cmp	r3, r2
 897 045e 00F09681 		beq	.L173
 198:/home/christoschristoforou/STM32Cube/Repository/STM32Cube_FW_F4_V1.27.0/Drivers/STM32F4xx_HAL_Driver/Src/stm32f4xx_hal_dma_ex.c ****     __HAL_DMA_CLEAR_FLAG (hdma, __HAL_DMA_GET_DME_FLAG_INDEX(hdma));
 898              		.loc 1 198 5 discriminator 21 view .LVU202
 899 0462 A2F56872 		sub	r2, r2, #928
 900 0466 9342     		cmp	r3, r2
 901 0468 00F09481 		beq	.L174
 198:/home/christoschristoforou/STM32Cube/Repository/STM32Cube_FW_F4_V1.27.0/Drivers/STM32F4xx_HAL_Driver/Src/stm32f4xx_hal_dma_ex.c ****     __HAL_DMA_CLEAR_FLAG (hdma, __HAL_DMA_GET_DME_FLAG_INDEX(hdma));
 902              		.loc 1 198 5 discriminator 23 view .LVU203
 903 046c 02F58062 		add	r2, r2, #1024
 904 0470 9342     		cmp	r3, r2
 905 0472 00F02D81 		beq	.L317
 198:/home/christoschristoforou/STM32Cube/Repository/STM32Cube_FW_F4_V1.27.0/Drivers/STM32F4xx_HAL_Driver/Src/stm32f4xx_hal_dma_ex.c ****     __HAL_DMA_CLEAR_FLAG (hdma, __HAL_DMA_GET_DME_FLAG_INDEX(hdma));
 906              		.loc 1 198 5 view .LVU204
 907 0476 4FF00072 		mov	r2, #33554432
 908 047a 2DE1     		b	.L42
 909              	.L117:
 197:/home/christoschristoforou/STM32Cube/Repository/STM32Cube_FW_F4_V1.27.0/Drivers/STM32F4xx_HAL_Driver/Src/stm32f4xx_hal_dma_ex.c ****     __HAL_DMA_CLEAR_FLAG (hdma, __HAL_DMA_GET_TE_FLAG_INDEX(hdma));
 910              		.loc 1 197 5 view .LVU205
 911 047c 1022     		movs	r2, #16
 912 047e B7E7     		b	.L34
 913              	.L118:
 914 0480 1022     		movs	r2, #16
 915 0482 B5E7     		b	.L34
 916              	.L119:
 917 0484 1022     		movs	r2, #16
 918 0486 B3E7     		b	.L34
 919              	.L120:
 920 0488 4FF48062 		mov	r2, #1024
 921 048c B0E7     		b	.L34
 922              	.L121:
 923 048e 4FF48062 		mov	r2, #1024
 924 0492 ADE7     		b	.L34
 925              	.L122:
 926 0494 4FF48062 		mov	r2, #1024
 927 0498 AAE7     		b	.L34
 928              	.L123:
ARM GAS  /tmp/cctZJEWc.s 			page 26


 929 049a 4FF48062 		mov	r2, #1024
 930 049e A7E7     		b	.L34
 931              	.L124:
 932 04a0 4FF48012 		mov	r2, #1048576
 933 04a4 A4E7     		b	.L34
 934              	.L125:
 935 04a6 4FF48012 		mov	r2, #1048576
 936 04aa A1E7     		b	.L34
 937              	.L126:
 938 04ac 4FF48012 		mov	r2, #1048576
 939 04b0 9EE7     		b	.L34
 940              	.L33:
 197:/home/christoschristoforou/STM32Cube/Repository/STM32Cube_FW_F4_V1.27.0/Drivers/STM32F4xx_HAL_Driver/Src/stm32f4xx_hal_dma_ex.c ****     __HAL_DMA_CLEAR_FLAG (hdma, __HAL_DMA_GET_TE_FLAG_INDEX(hdma));
 941              		.loc 1 197 5 discriminator 2 view .LVU206
 942 04b2 5B4A     		ldr	r2, .L335+16
 943 04b4 9342     		cmp	r3, r2
 944 04b6 53D9     		bls	.L36
 197:/home/christoschristoforou/STM32Cube/Repository/STM32Cube_FW_F4_V1.27.0/Drivers/STM32F4xx_HAL_Driver/Src/stm32f4xx_hal_dma_ex.c ****     __HAL_DMA_CLEAR_FLAG (hdma, __HAL_DMA_GET_TE_FLAG_INDEX(hdma));
 945              		.loc 1 197 5 discriminator 51 view .LVU207
 946 04b8 A83A     		subs	r2, r2, #168
 947 04ba 9342     		cmp	r3, r2
 948 04bc 31D0     		beq	.L128
 197:/home/christoschristoforou/STM32Cube/Repository/STM32Cube_FW_F4_V1.27.0/Drivers/STM32F4xx_HAL_Driver/Src/stm32f4xx_hal_dma_ex.c ****     __HAL_DMA_CLEAR_FLAG (hdma, __HAL_DMA_GET_TE_FLAG_INDEX(hdma));
 949              		.loc 1 197 5 discriminator 53 view .LVU208
 950 04be 02F58062 		add	r2, r2, #1024
 951 04c2 9342     		cmp	r3, r2
 952 04c4 31D0     		beq	.L129
 197:/home/christoschristoforou/STM32Cube/Repository/STM32Cube_FW_F4_V1.27.0/Drivers/STM32F4xx_HAL_Driver/Src/stm32f4xx_hal_dma_ex.c ****     __HAL_DMA_CLEAR_FLAG (hdma, __HAL_DMA_GET_TE_FLAG_INDEX(hdma));
 953              		.loc 1 197 5 discriminator 55 view .LVU209
 954 04c6 A2F56872 		sub	r2, r2, #928
 955 04ca 9342     		cmp	r3, r2
 956 04cc 2FD0     		beq	.L130
 197:/home/christoschristoforou/STM32Cube/Repository/STM32Cube_FW_F4_V1.27.0/Drivers/STM32F4xx_HAL_Driver/Src/stm32f4xx_hal_dma_ex.c ****     __HAL_DMA_CLEAR_FLAG (hdma, __HAL_DMA_GET_TE_FLAG_INDEX(hdma));
 957              		.loc 1 197 5 discriminator 57 view .LVU210
 958 04ce 02F58062 		add	r2, r2, #1024
 959 04d2 9342     		cmp	r3, r2
 960 04d4 2DD0     		beq	.L131
 197:/home/christoschristoforou/STM32Cube/Repository/STM32Cube_FW_F4_V1.27.0/Drivers/STM32F4xx_HAL_Driver/Src/stm32f4xx_hal_dma_ex.c ****     __HAL_DMA_CLEAR_FLAG (hdma, __HAL_DMA_GET_TE_FLAG_INDEX(hdma));
 961              		.loc 1 197 5 discriminator 59 view .LVU211
 962 04d6 A2F58962 		sub	r2, r2, #1096
 963 04da 9342     		cmp	r3, r2
 964 04dc 2BD0     		beq	.L132
 197:/home/christoschristoforou/STM32Cube/Repository/STM32Cube_FW_F4_V1.27.0/Drivers/STM32F4xx_HAL_Driver/Src/stm32f4xx_hal_dma_ex.c ****     __HAL_DMA_CLEAR_FLAG (hdma, __HAL_DMA_GET_TE_FLAG_INDEX(hdma));
 965              		.loc 1 197 5 discriminator 61 view .LVU212
 966 04de 02F58062 		add	r2, r2, #1024
 967 04e2 9342     		cmp	r3, r2
 968 04e4 2AD0     		beq	.L133
 197:/home/christoschristoforou/STM32Cube/Repository/STM32Cube_FW_F4_V1.27.0/Drivers/STM32F4xx_HAL_Driver/Src/stm32f4xx_hal_dma_ex.c ****     __HAL_DMA_CLEAR_FLAG (hdma, __HAL_DMA_GET_TE_FLAG_INDEX(hdma));
 969              		.loc 1 197 5 discriminator 63 view .LVU213
 970 04e6 A2F56872 		sub	r2, r2, #928
 971 04ea 9342     		cmp	r3, r2
 972 04ec 29D0     		beq	.L134
 197:/home/christoschristoforou/STM32Cube/Repository/STM32Cube_FW_F4_V1.27.0/Drivers/STM32F4xx_HAL_Driver/Src/stm32f4xx_hal_dma_ex.c ****     __HAL_DMA_CLEAR_FLAG (hdma, __HAL_DMA_GET_TE_FLAG_INDEX(hdma));
 973              		.loc 1 197 5 discriminator 65 view .LVU214
 974 04ee 02F58062 		add	r2, r2, #1024
 975 04f2 9342     		cmp	r3, r2
 976 04f4 28D0     		beq	.L135
ARM GAS  /tmp/cctZJEWc.s 			page 27


 197:/home/christoschristoforou/STM32Cube/Repository/STM32Cube_FW_F4_V1.27.0/Drivers/STM32F4xx_HAL_Driver/Src/stm32f4xx_hal_dma_ex.c ****     __HAL_DMA_CLEAR_FLAG (hdma, __HAL_DMA_GET_TE_FLAG_INDEX(hdma));
 977              		.loc 1 197 5 discriminator 67 view .LVU215
 978 04f6 A2F58962 		sub	r2, r2, #1096
 979 04fa 9342     		cmp	r3, r2
 980 04fc 27D0     		beq	.L136
 197:/home/christoschristoforou/STM32Cube/Repository/STM32Cube_FW_F4_V1.27.0/Drivers/STM32F4xx_HAL_Driver/Src/stm32f4xx_hal_dma_ex.c ****     __HAL_DMA_CLEAR_FLAG (hdma, __HAL_DMA_GET_TE_FLAG_INDEX(hdma));
 981              		.loc 1 197 5 discriminator 69 view .LVU216
 982 04fe 02F58062 		add	r2, r2, #1024
 983 0502 9342     		cmp	r3, r2
 984 0504 26D0     		beq	.L137
 197:/home/christoschristoforou/STM32Cube/Repository/STM32Cube_FW_F4_V1.27.0/Drivers/STM32F4xx_HAL_Driver/Src/stm32f4xx_hal_dma_ex.c ****     __HAL_DMA_CLEAR_FLAG (hdma, __HAL_DMA_GET_TE_FLAG_INDEX(hdma));
 985              		.loc 1 197 5 discriminator 71 view .LVU217
 986 0506 A2F56872 		sub	r2, r2, #928
 987 050a 9342     		cmp	r3, r2
 988 050c 25D0     		beq	.L138
 197:/home/christoschristoforou/STM32Cube/Repository/STM32Cube_FW_F4_V1.27.0/Drivers/STM32F4xx_HAL_Driver/Src/stm32f4xx_hal_dma_ex.c ****     __HAL_DMA_CLEAR_FLAG (hdma, __HAL_DMA_GET_TE_FLAG_INDEX(hdma));
 989              		.loc 1 197 5 discriminator 73 view .LVU218
 990 050e 02F58062 		add	r2, r2, #1024
 991 0512 9342     		cmp	r3, r2
 992 0514 02D0     		beq	.L318
 197:/home/christoschristoforou/STM32Cube/Repository/STM32Cube_FW_F4_V1.27.0/Drivers/STM32F4xx_HAL_Driver/Src/stm32f4xx_hal_dma_ex.c ****     __HAL_DMA_CLEAR_FLAG (hdma, __HAL_DMA_GET_TE_FLAG_INDEX(hdma));
 993              		.loc 1 197 5 view .LVU219
 994 0516 4FF08063 		mov	r3, #67108864
 995 051a 03E0     		b	.L37
 996              	.L318:
 997 051c 4FF48013 		mov	r3, #1048576
 998 0520 00E0     		b	.L37
 999              	.L128:
 1000 0522 1023     		movs	r3, #16
 1001              	.L37:
 197:/home/christoschristoforou/STM32Cube/Repository/STM32Cube_FW_F4_V1.27.0/Drivers/STM32F4xx_HAL_Driver/Src/stm32f4xx_hal_dma_ex.c ****     __HAL_DMA_CLEAR_FLAG (hdma, __HAL_DMA_GET_TE_FLAG_INDEX(hdma));
 1002              		.loc 1 197 5 discriminator 100 view .LVU220
 1003 0524 3C4A     		ldr	r2, .L335+8
 1004 0526 9360     		str	r3, [r2, #8]
 1005 0528 64E7     		b	.L35
 1006              	.L129:
 197:/home/christoschristoforou/STM32Cube/Repository/STM32Cube_FW_F4_V1.27.0/Drivers/STM32F4xx_HAL_Driver/Src/stm32f4xx_hal_dma_ex.c ****     __HAL_DMA_CLEAR_FLAG (hdma, __HAL_DMA_GET_TE_FLAG_INDEX(hdma));
 1007              		.loc 1 197 5 view .LVU221
 1008 052a 1023     		movs	r3, #16
 1009 052c FAE7     		b	.L37
 1010              	.L130:
 1011 052e 1023     		movs	r3, #16
 1012 0530 F8E7     		b	.L37
 1013              	.L131:
 1014 0532 1023     		movs	r3, #16
 1015 0534 F6E7     		b	.L37
 1016              	.L132:
 1017 0536 4FF48063 		mov	r3, #1024
 1018 053a F3E7     		b	.L37
 1019              	.L133:
 1020 053c 4FF48063 		mov	r3, #1024
 1021 0540 F0E7     		b	.L37
 1022              	.L134:
 1023 0542 4FF48063 		mov	r3, #1024
 1024 0546 EDE7     		b	.L37
 1025              	.L135:
 1026 0548 4FF48063 		mov	r3, #1024
ARM GAS  /tmp/cctZJEWc.s 			page 28


 1027 054c EAE7     		b	.L37
 1028              	.L136:
 1029 054e 4FF48013 		mov	r3, #1048576
 1030 0552 E7E7     		b	.L37
 1031              	.L137:
 1032 0554 4FF48013 		mov	r3, #1048576
 1033 0558 E4E7     		b	.L37
 1034              	.L138:
 1035 055a 4FF48013 		mov	r3, #1048576
 1036 055e E1E7     		b	.L37
 1037              	.L36:
 197:/home/christoschristoforou/STM32Cube/Repository/STM32Cube_FW_F4_V1.27.0/Drivers/STM32F4xx_HAL_Driver/Src/stm32f4xx_hal_dma_ex.c ****     __HAL_DMA_CLEAR_FLAG (hdma, __HAL_DMA_GET_TE_FLAG_INDEX(hdma));
 1038              		.loc 1 197 5 discriminator 52 view .LVU222
 1039 0560 304A     		ldr	r2, .L335+20
 1040 0562 9342     		cmp	r3, r2
 1041 0564 60D9     		bls	.L38
 197:/home/christoschristoforou/STM32Cube/Repository/STM32Cube_FW_F4_V1.27.0/Drivers/STM32F4xx_HAL_Driver/Src/stm32f4xx_hal_dma_ex.c ****     __HAL_DMA_CLEAR_FLAG (hdma, __HAL_DMA_GET_TE_FLAG_INDEX(hdma));
 1042              		.loc 1 197 5 discriminator 102 view .LVU223
 1043 0566 483A     		subs	r2, r2, #72
 1044 0568 9342     		cmp	r3, r2
 1045 056a 31D0     		beq	.L140
 197:/home/christoschristoforou/STM32Cube/Repository/STM32Cube_FW_F4_V1.27.0/Drivers/STM32F4xx_HAL_Driver/Src/stm32f4xx_hal_dma_ex.c ****     __HAL_DMA_CLEAR_FLAG (hdma, __HAL_DMA_GET_TE_FLAG_INDEX(hdma));
 1046              		.loc 1 197 5 discriminator 104 view .LVU224
 1047 056c 02F58062 		add	r2, r2, #1024
 1048 0570 9342     		cmp	r3, r2
 1049 0572 31D0     		beq	.L141
 197:/home/christoschristoforou/STM32Cube/Repository/STM32Cube_FW_F4_V1.27.0/Drivers/STM32F4xx_HAL_Driver/Src/stm32f4xx_hal_dma_ex.c ****     __HAL_DMA_CLEAR_FLAG (hdma, __HAL_DMA_GET_TE_FLAG_INDEX(hdma));
 1050              		.loc 1 197 5 discriminator 106 view .LVU225
 1051 0574 A2F56872 		sub	r2, r2, #928
 1052 0578 9342     		cmp	r3, r2
 1053 057a 2FD0     		beq	.L142
 197:/home/christoschristoforou/STM32Cube/Repository/STM32Cube_FW_F4_V1.27.0/Drivers/STM32F4xx_HAL_Driver/Src/stm32f4xx_hal_dma_ex.c ****     __HAL_DMA_CLEAR_FLAG (hdma, __HAL_DMA_GET_TE_FLAG_INDEX(hdma));
 1054              		.loc 1 197 5 discriminator 108 view .LVU226
 1055 057c 02F58062 		add	r2, r2, #1024
 1056 0580 9342     		cmp	r3, r2
 1057 0582 2DD0     		beq	.L143
 197:/home/christoschristoforou/STM32Cube/Repository/STM32Cube_FW_F4_V1.27.0/Drivers/STM32F4xx_HAL_Driver/Src/stm32f4xx_hal_dma_ex.c ****     __HAL_DMA_CLEAR_FLAG (hdma, __HAL_DMA_GET_TE_FLAG_INDEX(hdma));
 1058              		.loc 1 197 5 discriminator 110 view .LVU227
 1059 0584 A2F58962 		sub	r2, r2, #1096
 1060 0588 9342     		cmp	r3, r2
 1061 058a 2BD0     		beq	.L144
 197:/home/christoschristoforou/STM32Cube/Repository/STM32Cube_FW_F4_V1.27.0/Drivers/STM32F4xx_HAL_Driver/Src/stm32f4xx_hal_dma_ex.c ****     __HAL_DMA_CLEAR_FLAG (hdma, __HAL_DMA_GET_TE_FLAG_INDEX(hdma));
 1062              		.loc 1 197 5 discriminator 112 view .LVU228
 1063 058c 02F58062 		add	r2, r2, #1024
 1064 0590 9342     		cmp	r3, r2
 1065 0592 2AD0     		beq	.L145
 197:/home/christoschristoforou/STM32Cube/Repository/STM32Cube_FW_F4_V1.27.0/Drivers/STM32F4xx_HAL_Driver/Src/stm32f4xx_hal_dma_ex.c ****     __HAL_DMA_CLEAR_FLAG (hdma, __HAL_DMA_GET_TE_FLAG_INDEX(hdma));
 1066              		.loc 1 197 5 discriminator 114 view .LVU229
 1067 0594 A2F56872 		sub	r2, r2, #928
 1068 0598 9342     		cmp	r3, r2
 1069 059a 29D0     		beq	.L146
 197:/home/christoschristoforou/STM32Cube/Repository/STM32Cube_FW_F4_V1.27.0/Drivers/STM32F4xx_HAL_Driver/Src/stm32f4xx_hal_dma_ex.c ****     __HAL_DMA_CLEAR_FLAG (hdma, __HAL_DMA_GET_TE_FLAG_INDEX(hdma));
 1070              		.loc 1 197 5 discriminator 116 view .LVU230
 1071 059c 02F58062 		add	r2, r2, #1024
 1072 05a0 9342     		cmp	r3, r2
 1073 05a2 28D0     		beq	.L147
 197:/home/christoschristoforou/STM32Cube/Repository/STM32Cube_FW_F4_V1.27.0/Drivers/STM32F4xx_HAL_Driver/Src/stm32f4xx_hal_dma_ex.c ****     __HAL_DMA_CLEAR_FLAG (hdma, __HAL_DMA_GET_TE_FLAG_INDEX(hdma));
ARM GAS  /tmp/cctZJEWc.s 			page 29


 1074              		.loc 1 197 5 discriminator 118 view .LVU231
 1075 05a4 A2F58962 		sub	r2, r2, #1096
 1076 05a8 9342     		cmp	r3, r2
 1077 05aa 27D0     		beq	.L148
 197:/home/christoschristoforou/STM32Cube/Repository/STM32Cube_FW_F4_V1.27.0/Drivers/STM32F4xx_HAL_Driver/Src/stm32f4xx_hal_dma_ex.c ****     __HAL_DMA_CLEAR_FLAG (hdma, __HAL_DMA_GET_TE_FLAG_INDEX(hdma));
 1078              		.loc 1 197 5 discriminator 120 view .LVU232
 1079 05ac 02F58062 		add	r2, r2, #1024
 1080 05b0 9342     		cmp	r3, r2
 1081 05b2 26D0     		beq	.L149
 197:/home/christoschristoforou/STM32Cube/Repository/STM32Cube_FW_F4_V1.27.0/Drivers/STM32F4xx_HAL_Driver/Src/stm32f4xx_hal_dma_ex.c ****     __HAL_DMA_CLEAR_FLAG (hdma, __HAL_DMA_GET_TE_FLAG_INDEX(hdma));
 1082              		.loc 1 197 5 discriminator 122 view .LVU233
 1083 05b4 A2F56872 		sub	r2, r2, #928
 1084 05b8 9342     		cmp	r3, r2
 1085 05ba 25D0     		beq	.L150
 197:/home/christoschristoforou/STM32Cube/Repository/STM32Cube_FW_F4_V1.27.0/Drivers/STM32F4xx_HAL_Driver/Src/stm32f4xx_hal_dma_ex.c ****     __HAL_DMA_CLEAR_FLAG (hdma, __HAL_DMA_GET_TE_FLAG_INDEX(hdma));
 1086              		.loc 1 197 5 discriminator 124 view .LVU234
 1087 05bc 02F58062 		add	r2, r2, #1024
 1088 05c0 9342     		cmp	r3, r2
 1089 05c2 02D0     		beq	.L319
 197:/home/christoschristoforou/STM32Cube/Repository/STM32Cube_FW_F4_V1.27.0/Drivers/STM32F4xx_HAL_Driver/Src/stm32f4xx_hal_dma_ex.c ****     __HAL_DMA_CLEAR_FLAG (hdma, __HAL_DMA_GET_TE_FLAG_INDEX(hdma));
 1090              		.loc 1 197 5 view .LVU235
 1091 05c4 4FF08063 		mov	r3, #67108864
 1092 05c8 03E0     		b	.L39
 1093              	.L319:
 1094 05ca 4FF48013 		mov	r3, #1048576
 1095 05ce 00E0     		b	.L39
 1096              	.L140:
 1097 05d0 1023     		movs	r3, #16
 1098              	.L39:
 197:/home/christoschristoforou/STM32Cube/Repository/STM32Cube_FW_F4_V1.27.0/Drivers/STM32F4xx_HAL_Driver/Src/stm32f4xx_hal_dma_ex.c ****     __HAL_DMA_CLEAR_FLAG (hdma, __HAL_DMA_GET_TE_FLAG_INDEX(hdma));
 1099              		.loc 1 197 5 discriminator 151 view .LVU236
 1100 05d2 104A     		ldr	r2, .L335+4
 1101 05d4 D360     		str	r3, [r2, #12]
 1102 05d6 0DE7     		b	.L35
 1103              	.L141:
 197:/home/christoschristoforou/STM32Cube/Repository/STM32Cube_FW_F4_V1.27.0/Drivers/STM32F4xx_HAL_Driver/Src/stm32f4xx_hal_dma_ex.c ****     __HAL_DMA_CLEAR_FLAG (hdma, __HAL_DMA_GET_TE_FLAG_INDEX(hdma));
 1104              		.loc 1 197 5 view .LVU237
 1105 05d8 1023     		movs	r3, #16
 1106 05da FAE7     		b	.L39
 1107              	.L142:
 1108 05dc 1023     		movs	r3, #16
 1109 05de F8E7     		b	.L39
 1110              	.L143:
 1111 05e0 1023     		movs	r3, #16
 1112 05e2 F6E7     		b	.L39
 1113              	.L144:
 1114 05e4 4FF48063 		mov	r3, #1024
 1115 05e8 F3E7     		b	.L39
 1116              	.L145:
 1117 05ea 4FF48063 		mov	r3, #1024
 1118 05ee F0E7     		b	.L39
 1119              	.L146:
 1120 05f0 4FF48063 		mov	r3, #1024
 1121 05f4 EDE7     		b	.L39
 1122              	.L147:
 1123 05f6 4FF48063 		mov	r3, #1024
 1124 05fa EAE7     		b	.L39
ARM GAS  /tmp/cctZJEWc.s 			page 30


 1125              	.L148:
 1126 05fc 4FF48013 		mov	r3, #1048576
 1127 0600 E7E7     		b	.L39
 1128              	.L149:
 1129 0602 4FF48013 		mov	r3, #1048576
 1130 0606 E4E7     		b	.L39
 1131              	.L150:
 1132 0608 4FF48013 		mov	r3, #1048576
 1133 060c E1E7     		b	.L39
 1134              	.L336:
 1135 060e 00BF     		.align	2
 1136              	.L335:
 1137 0610 10600240 		.word	1073897488
 1138 0614 00600240 		.word	1073897472
 1139 0618 00640240 		.word	1073898496
 1140 061c 58640240 		.word	1073898584
 1141 0620 B8600240 		.word	1073897656
 1142 0624 58600240 		.word	1073897560
 1143              	.L38:
 197:/home/christoschristoforou/STM32Cube/Repository/STM32Cube_FW_F4_V1.27.0/Drivers/STM32F4xx_HAL_Driver/Src/stm32f4xx_hal_dma_ex.c ****     __HAL_DMA_CLEAR_FLAG (hdma, __HAL_DMA_GET_TE_FLAG_INDEX(hdma));
 1144              		.loc 1 197 5 discriminator 103 view .LVU238
 1145 0628 B34A     		ldr	r2, .L337
 1146 062a 9342     		cmp	r3, r2
 1147 062c 31D0     		beq	.L152
 197:/home/christoschristoforou/STM32Cube/Repository/STM32Cube_FW_F4_V1.27.0/Drivers/STM32F4xx_HAL_Driver/Src/stm32f4xx_hal_dma_ex.c ****     __HAL_DMA_CLEAR_FLAG (hdma, __HAL_DMA_GET_TE_FLAG_INDEX(hdma));
 1148              		.loc 1 197 5 discriminator 153 view .LVU239
 1149 062e 02F58062 		add	r2, r2, #1024
 1150 0632 9342     		cmp	r3, r2
 1151 0634 31D0     		beq	.L153
 197:/home/christoschristoforou/STM32Cube/Repository/STM32Cube_FW_F4_V1.27.0/Drivers/STM32F4xx_HAL_Driver/Src/stm32f4xx_hal_dma_ex.c ****     __HAL_DMA_CLEAR_FLAG (hdma, __HAL_DMA_GET_TE_FLAG_INDEX(hdma));
 1152              		.loc 1 197 5 discriminator 155 view .LVU240
 1153 0636 A2F56872 		sub	r2, r2, #928
 1154 063a 9342     		cmp	r3, r2
 1155 063c 2FD0     		beq	.L154
 197:/home/christoschristoforou/STM32Cube/Repository/STM32Cube_FW_F4_V1.27.0/Drivers/STM32F4xx_HAL_Driver/Src/stm32f4xx_hal_dma_ex.c ****     __HAL_DMA_CLEAR_FLAG (hdma, __HAL_DMA_GET_TE_FLAG_INDEX(hdma));
 1156              		.loc 1 197 5 discriminator 157 view .LVU241
 1157 063e 02F58062 		add	r2, r2, #1024
 1158 0642 9342     		cmp	r3, r2
 1159 0644 2DD0     		beq	.L155
 197:/home/christoschristoforou/STM32Cube/Repository/STM32Cube_FW_F4_V1.27.0/Drivers/STM32F4xx_HAL_Driver/Src/stm32f4xx_hal_dma_ex.c ****     __HAL_DMA_CLEAR_FLAG (hdma, __HAL_DMA_GET_TE_FLAG_INDEX(hdma));
 1160              		.loc 1 197 5 discriminator 159 view .LVU242
 1161 0646 A2F58962 		sub	r2, r2, #1096
 1162 064a 9342     		cmp	r3, r2
 1163 064c 2BD0     		beq	.L156
 197:/home/christoschristoforou/STM32Cube/Repository/STM32Cube_FW_F4_V1.27.0/Drivers/STM32F4xx_HAL_Driver/Src/stm32f4xx_hal_dma_ex.c ****     __HAL_DMA_CLEAR_FLAG (hdma, __HAL_DMA_GET_TE_FLAG_INDEX(hdma));
 1164              		.loc 1 197 5 discriminator 161 view .LVU243
 1165 064e 02F58062 		add	r2, r2, #1024
 1166 0652 9342     		cmp	r3, r2
 1167 0654 2AD0     		beq	.L157
 197:/home/christoschristoforou/STM32Cube/Repository/STM32Cube_FW_F4_V1.27.0/Drivers/STM32F4xx_HAL_Driver/Src/stm32f4xx_hal_dma_ex.c ****     __HAL_DMA_CLEAR_FLAG (hdma, __HAL_DMA_GET_TE_FLAG_INDEX(hdma));
 1168              		.loc 1 197 5 discriminator 163 view .LVU244
 1169 0656 A2F56872 		sub	r2, r2, #928
 1170 065a 9342     		cmp	r3, r2
 1171 065c 29D0     		beq	.L158
 197:/home/christoschristoforou/STM32Cube/Repository/STM32Cube_FW_F4_V1.27.0/Drivers/STM32F4xx_HAL_Driver/Src/stm32f4xx_hal_dma_ex.c ****     __HAL_DMA_CLEAR_FLAG (hdma, __HAL_DMA_GET_TE_FLAG_INDEX(hdma));
 1172              		.loc 1 197 5 discriminator 165 view .LVU245
 1173 065e 02F58062 		add	r2, r2, #1024
ARM GAS  /tmp/cctZJEWc.s 			page 31


 1174 0662 9342     		cmp	r3, r2
 1175 0664 28D0     		beq	.L159
 197:/home/christoschristoforou/STM32Cube/Repository/STM32Cube_FW_F4_V1.27.0/Drivers/STM32F4xx_HAL_Driver/Src/stm32f4xx_hal_dma_ex.c ****     __HAL_DMA_CLEAR_FLAG (hdma, __HAL_DMA_GET_TE_FLAG_INDEX(hdma));
 1176              		.loc 1 197 5 discriminator 167 view .LVU246
 1177 0666 A2F58962 		sub	r2, r2, #1096
 1178 066a 9342     		cmp	r3, r2
 1179 066c 27D0     		beq	.L160
 197:/home/christoschristoforou/STM32Cube/Repository/STM32Cube_FW_F4_V1.27.0/Drivers/STM32F4xx_HAL_Driver/Src/stm32f4xx_hal_dma_ex.c ****     __HAL_DMA_CLEAR_FLAG (hdma, __HAL_DMA_GET_TE_FLAG_INDEX(hdma));
 1180              		.loc 1 197 5 discriminator 169 view .LVU247
 1181 066e 02F58062 		add	r2, r2, #1024
 1182 0672 9342     		cmp	r3, r2
 1183 0674 26D0     		beq	.L161
 197:/home/christoschristoforou/STM32Cube/Repository/STM32Cube_FW_F4_V1.27.0/Drivers/STM32F4xx_HAL_Driver/Src/stm32f4xx_hal_dma_ex.c ****     __HAL_DMA_CLEAR_FLAG (hdma, __HAL_DMA_GET_TE_FLAG_INDEX(hdma));
 1184              		.loc 1 197 5 discriminator 171 view .LVU248
 1185 0676 A2F56872 		sub	r2, r2, #928
 1186 067a 9342     		cmp	r3, r2
 1187 067c 25D0     		beq	.L162
 197:/home/christoschristoforou/STM32Cube/Repository/STM32Cube_FW_F4_V1.27.0/Drivers/STM32F4xx_HAL_Driver/Src/stm32f4xx_hal_dma_ex.c ****     __HAL_DMA_CLEAR_FLAG (hdma, __HAL_DMA_GET_TE_FLAG_INDEX(hdma));
 1188              		.loc 1 197 5 discriminator 173 view .LVU249
 1189 067e 02F58062 		add	r2, r2, #1024
 1190 0682 9342     		cmp	r3, r2
 1191 0684 02D0     		beq	.L320
 197:/home/christoschristoforou/STM32Cube/Repository/STM32Cube_FW_F4_V1.27.0/Drivers/STM32F4xx_HAL_Driver/Src/stm32f4xx_hal_dma_ex.c ****     __HAL_DMA_CLEAR_FLAG (hdma, __HAL_DMA_GET_TE_FLAG_INDEX(hdma));
 1192              		.loc 1 197 5 view .LVU250
 1193 0686 4FF08063 		mov	r3, #67108864
 1194 068a 03E0     		b	.L40
 1195              	.L320:
 1196 068c 4FF48013 		mov	r3, #1048576
 1197 0690 00E0     		b	.L40
 1198              	.L152:
 1199 0692 1023     		movs	r3, #16
 1200              	.L40:
 197:/home/christoschristoforou/STM32Cube/Repository/STM32Cube_FW_F4_V1.27.0/Drivers/STM32F4xx_HAL_Driver/Src/stm32f4xx_hal_dma_ex.c ****     __HAL_DMA_CLEAR_FLAG (hdma, __HAL_DMA_GET_TE_FLAG_INDEX(hdma));
 1201              		.loc 1 197 5 discriminator 200 view .LVU251
 1202 0694 994A     		ldr	r2, .L337+4
 1203 0696 9360     		str	r3, [r2, #8]
 1204 0698 ACE6     		b	.L35
 1205              	.L153:
 197:/home/christoschristoforou/STM32Cube/Repository/STM32Cube_FW_F4_V1.27.0/Drivers/STM32F4xx_HAL_Driver/Src/stm32f4xx_hal_dma_ex.c ****     __HAL_DMA_CLEAR_FLAG (hdma, __HAL_DMA_GET_TE_FLAG_INDEX(hdma));
 1206              		.loc 1 197 5 view .LVU252
 1207 069a 1023     		movs	r3, #16
 1208 069c FAE7     		b	.L40
 1209              	.L154:
 1210 069e 1023     		movs	r3, #16
 1211 06a0 F8E7     		b	.L40
 1212              	.L155:
 1213 06a2 1023     		movs	r3, #16
 1214 06a4 F6E7     		b	.L40
 1215              	.L156:
 1216 06a6 4FF48063 		mov	r3, #1024
 1217 06aa F3E7     		b	.L40
 1218              	.L157:
 1219 06ac 4FF48063 		mov	r3, #1024
 1220 06b0 F0E7     		b	.L40
 1221              	.L158:
 1222 06b2 4FF48063 		mov	r3, #1024
 1223 06b6 EDE7     		b	.L40
ARM GAS  /tmp/cctZJEWc.s 			page 32


 1224              	.L159:
 1225 06b8 4FF48063 		mov	r3, #1024
 1226 06bc EAE7     		b	.L40
 1227              	.L160:
 1228 06be 4FF48013 		mov	r3, #1048576
 1229 06c2 E7E7     		b	.L40
 1230              	.L161:
 1231 06c4 4FF48013 		mov	r3, #1048576
 1232 06c8 E4E7     		b	.L40
 1233              	.L162:
 1234 06ca 4FF48013 		mov	r3, #1048576
 1235 06ce E1E7     		b	.L40
 1236              	.L317:
 198:/home/christoschristoforou/STM32Cube/Repository/STM32Cube_FW_F4_V1.27.0/Drivers/STM32F4xx_HAL_Driver/Src/stm32f4xx_hal_dma_ex.c ****     __HAL_DMA_CLEAR_FLAG (hdma, __HAL_DMA_GET_DME_FLAG_INDEX(hdma));
 1237              		.loc 1 198 5 view .LVU253
 1238 06d0 4FF40022 		mov	r2, #524288
 1239 06d4 00E0     		b	.L42
 1240              	.L164:
 1241 06d6 0822     		movs	r2, #8
 1242              	.L42:
 198:/home/christoschristoforou/STM32Cube/Repository/STM32Cube_FW_F4_V1.27.0/Drivers/STM32F4xx_HAL_Driver/Src/stm32f4xx_hal_dma_ex.c ****     __HAL_DMA_CLEAR_FLAG (hdma, __HAL_DMA_GET_DME_FLAG_INDEX(hdma));
 1243              		.loc 1 198 5 discriminator 50 view .LVU254
 1244 06d8 894B     		ldr	r3, .L337+8
 1245 06da DA60     		str	r2, [r3, #12]
 1246              	.L43:
 199:/home/christoschristoforou/STM32Cube/Repository/STM32Cube_FW_F4_V1.27.0/Drivers/STM32F4xx_HAL_Driver/Src/stm32f4xx_hal_dma_ex.c ****     __HAL_DMA_CLEAR_FLAG (hdma, __HAL_DMA_GET_FE_FLAG_INDEX(hdma));
 1247              		.loc 1 199 5 is_stmt 1 view .LVU255
 1248 06dc 2368     		ldr	r3, [r4]
 1249 06de 894A     		ldr	r2, .L337+12
 1250 06e0 9342     		cmp	r3, r2
 1251 06e2 40F2CE81 		bls	.L49
 199:/home/christoschristoforou/STM32Cube/Repository/STM32Cube_FW_F4_V1.27.0/Drivers/STM32F4xx_HAL_Driver/Src/stm32f4xx_hal_dma_ex.c ****     __HAL_DMA_CLEAR_FLAG (hdma, __HAL_DMA_GET_FE_FLAG_INDEX(hdma));
 1252              		.loc 1 199 5 is_stmt 0 discriminator 1 view .LVU256
 1253 06e6 A2F58962 		sub	r2, r2, #1096
 1254 06ea 9342     		cmp	r3, r2
 1255 06ec 00F06781 		beq	.L212
 199:/home/christoschristoforou/STM32Cube/Repository/STM32Cube_FW_F4_V1.27.0/Drivers/STM32F4xx_HAL_Driver/Src/stm32f4xx_hal_dma_ex.c ****     __HAL_DMA_CLEAR_FLAG (hdma, __HAL_DMA_GET_FE_FLAG_INDEX(hdma));
 1256              		.loc 1 199 5 discriminator 3 view .LVU257
 1257 06f0 02F58062 		add	r2, r2, #1024
 1258 06f4 9342     		cmp	r3, r2
 1259 06f6 00F0A981 		beq	.L213
 199:/home/christoschristoforou/STM32Cube/Repository/STM32Cube_FW_F4_V1.27.0/Drivers/STM32F4xx_HAL_Driver/Src/stm32f4xx_hal_dma_ex.c ****     __HAL_DMA_CLEAR_FLAG (hdma, __HAL_DMA_GET_FE_FLAG_INDEX(hdma));
 1260              		.loc 1 199 5 discriminator 5 view .LVU258
 1261 06fa A2F56872 		sub	r2, r2, #928
 1262 06fe 9342     		cmp	r3, r2
 1263 0700 00F0A681 		beq	.L214
 199:/home/christoschristoforou/STM32Cube/Repository/STM32Cube_FW_F4_V1.27.0/Drivers/STM32F4xx_HAL_Driver/Src/stm32f4xx_hal_dma_ex.c ****     __HAL_DMA_CLEAR_FLAG (hdma, __HAL_DMA_GET_FE_FLAG_INDEX(hdma));
 1264              		.loc 1 199 5 discriminator 7 view .LVU259
 1265 0704 02F58062 		add	r2, r2, #1024
 1266 0708 9342     		cmp	r3, r2
 1267 070a 00F0A381 		beq	.L215
 199:/home/christoschristoforou/STM32Cube/Repository/STM32Cube_FW_F4_V1.27.0/Drivers/STM32F4xx_HAL_Driver/Src/stm32f4xx_hal_dma_ex.c ****     __HAL_DMA_CLEAR_FLAG (hdma, __HAL_DMA_GET_FE_FLAG_INDEX(hdma));
 1268              		.loc 1 199 5 discriminator 9 view .LVU260
 1269 070e A2F58962 		sub	r2, r2, #1096
 1270 0712 9342     		cmp	r3, r2
 1271 0714 00F0A081 		beq	.L216
 199:/home/christoschristoforou/STM32Cube/Repository/STM32Cube_FW_F4_V1.27.0/Drivers/STM32F4xx_HAL_Driver/Src/stm32f4xx_hal_dma_ex.c ****     __HAL_DMA_CLEAR_FLAG (hdma, __HAL_DMA_GET_FE_FLAG_INDEX(hdma));
ARM GAS  /tmp/cctZJEWc.s 			page 33


 1272              		.loc 1 199 5 discriminator 11 view .LVU261
 1273 0718 02F58062 		add	r2, r2, #1024
 1274 071c 9342     		cmp	r3, r2
 1275 071e 00F09E81 		beq	.L217
 199:/home/christoschristoforou/STM32Cube/Repository/STM32Cube_FW_F4_V1.27.0/Drivers/STM32F4xx_HAL_Driver/Src/stm32f4xx_hal_dma_ex.c ****     __HAL_DMA_CLEAR_FLAG (hdma, __HAL_DMA_GET_FE_FLAG_INDEX(hdma));
 1276              		.loc 1 199 5 discriminator 13 view .LVU262
 1277 0722 A2F56872 		sub	r2, r2, #928
 1278 0726 9342     		cmp	r3, r2
 1279 0728 00F09C81 		beq	.L218
 199:/home/christoschristoforou/STM32Cube/Repository/STM32Cube_FW_F4_V1.27.0/Drivers/STM32F4xx_HAL_Driver/Src/stm32f4xx_hal_dma_ex.c ****     __HAL_DMA_CLEAR_FLAG (hdma, __HAL_DMA_GET_FE_FLAG_INDEX(hdma));
 1280              		.loc 1 199 5 discriminator 15 view .LVU263
 1281 072c 02F58062 		add	r2, r2, #1024
 1282 0730 9342     		cmp	r3, r2
 1283 0732 00F09A81 		beq	.L219
 199:/home/christoschristoforou/STM32Cube/Repository/STM32Cube_FW_F4_V1.27.0/Drivers/STM32F4xx_HAL_Driver/Src/stm32f4xx_hal_dma_ex.c ****     __HAL_DMA_CLEAR_FLAG (hdma, __HAL_DMA_GET_FE_FLAG_INDEX(hdma));
 1284              		.loc 1 199 5 discriminator 17 view .LVU264
 1285 0736 A2F58962 		sub	r2, r2, #1096
 1286 073a 9342     		cmp	r3, r2
 1287 073c 00F09881 		beq	.L220
 199:/home/christoschristoforou/STM32Cube/Repository/STM32Cube_FW_F4_V1.27.0/Drivers/STM32F4xx_HAL_Driver/Src/stm32f4xx_hal_dma_ex.c ****     __HAL_DMA_CLEAR_FLAG (hdma, __HAL_DMA_GET_FE_FLAG_INDEX(hdma));
 1288              		.loc 1 199 5 discriminator 19 view .LVU265
 1289 0740 02F58062 		add	r2, r2, #1024
 1290 0744 9342     		cmp	r3, r2
 1291 0746 00F09681 		beq	.L221
 199:/home/christoschristoforou/STM32Cube/Repository/STM32Cube_FW_F4_V1.27.0/Drivers/STM32F4xx_HAL_Driver/Src/stm32f4xx_hal_dma_ex.c ****     __HAL_DMA_CLEAR_FLAG (hdma, __HAL_DMA_GET_FE_FLAG_INDEX(hdma));
 1292              		.loc 1 199 5 discriminator 21 view .LVU266
 1293 074a A2F56872 		sub	r2, r2, #928
 1294 074e 9342     		cmp	r3, r2
 1295 0750 00F09481 		beq	.L222
 199:/home/christoschristoforou/STM32Cube/Repository/STM32Cube_FW_F4_V1.27.0/Drivers/STM32F4xx_HAL_Driver/Src/stm32f4xx_hal_dma_ex.c ****     __HAL_DMA_CLEAR_FLAG (hdma, __HAL_DMA_GET_FE_FLAG_INDEX(hdma));
 1296              		.loc 1 199 5 discriminator 23 view .LVU267
 1297 0754 02F58062 		add	r2, r2, #1024
 1298 0758 9342     		cmp	r3, r2
 1299 075a 00F02D81 		beq	.L321
 199:/home/christoschristoforou/STM32Cube/Repository/STM32Cube_FW_F4_V1.27.0/Drivers/STM32F4xx_HAL_Driver/Src/stm32f4xx_hal_dma_ex.c ****     __HAL_DMA_CLEAR_FLAG (hdma, __HAL_DMA_GET_FE_FLAG_INDEX(hdma));
 1300              		.loc 1 199 5 view .LVU268
 1301 075e 4FF08072 		mov	r2, #16777216
 1302 0762 2DE1     		b	.L50
 1303              	.L165:
 198:/home/christoschristoforou/STM32Cube/Repository/STM32Cube_FW_F4_V1.27.0/Drivers/STM32F4xx_HAL_Driver/Src/stm32f4xx_hal_dma_ex.c ****     __HAL_DMA_CLEAR_FLAG (hdma, __HAL_DMA_GET_DME_FLAG_INDEX(hdma));
 1304              		.loc 1 198 5 view .LVU269
 1305 0764 0822     		movs	r2, #8
 1306 0766 B7E7     		b	.L42
 1307              	.L166:
 1308 0768 0822     		movs	r2, #8
 1309 076a B5E7     		b	.L42
 1310              	.L167:
 1311 076c 0822     		movs	r2, #8
 1312 076e B3E7     		b	.L42
 1313              	.L168:
 1314 0770 4FF40072 		mov	r2, #512
 1315 0774 B0E7     		b	.L42
 1316              	.L169:
 1317 0776 4FF40072 		mov	r2, #512
 1318 077a ADE7     		b	.L42
 1319              	.L170:
 1320 077c 4FF40072 		mov	r2, #512
ARM GAS  /tmp/cctZJEWc.s 			page 34


 1321 0780 AAE7     		b	.L42
 1322              	.L171:
 1323 0782 4FF40072 		mov	r2, #512
 1324 0786 A7E7     		b	.L42
 1325              	.L172:
 1326 0788 4FF40022 		mov	r2, #524288
 1327 078c A4E7     		b	.L42
 1328              	.L173:
 1329 078e 4FF40022 		mov	r2, #524288
 1330 0792 A1E7     		b	.L42
 1331              	.L174:
 1332 0794 4FF40022 		mov	r2, #524288
 1333 0798 9EE7     		b	.L42
 1334              	.L41:
 198:/home/christoschristoforou/STM32Cube/Repository/STM32Cube_FW_F4_V1.27.0/Drivers/STM32F4xx_HAL_Driver/Src/stm32f4xx_hal_dma_ex.c ****     __HAL_DMA_CLEAR_FLAG (hdma, __HAL_DMA_GET_DME_FLAG_INDEX(hdma));
 1335              		.loc 1 198 5 discriminator 2 view .LVU270
 1336 079a 5B4A     		ldr	r2, .L337+16
 1337 079c 9342     		cmp	r3, r2
 1338 079e 53D9     		bls	.L44
 198:/home/christoschristoforou/STM32Cube/Repository/STM32Cube_FW_F4_V1.27.0/Drivers/STM32F4xx_HAL_Driver/Src/stm32f4xx_hal_dma_ex.c ****     __HAL_DMA_CLEAR_FLAG (hdma, __HAL_DMA_GET_DME_FLAG_INDEX(hdma));
 1339              		.loc 1 198 5 discriminator 51 view .LVU271
 1340 07a0 A83A     		subs	r2, r2, #168
 1341 07a2 9342     		cmp	r3, r2
 1342 07a4 31D0     		beq	.L176
 198:/home/christoschristoforou/STM32Cube/Repository/STM32Cube_FW_F4_V1.27.0/Drivers/STM32F4xx_HAL_Driver/Src/stm32f4xx_hal_dma_ex.c ****     __HAL_DMA_CLEAR_FLAG (hdma, __HAL_DMA_GET_DME_FLAG_INDEX(hdma));
 1343              		.loc 1 198 5 discriminator 53 view .LVU272
 1344 07a6 02F58062 		add	r2, r2, #1024
 1345 07aa 9342     		cmp	r3, r2
 1346 07ac 31D0     		beq	.L177
 198:/home/christoschristoforou/STM32Cube/Repository/STM32Cube_FW_F4_V1.27.0/Drivers/STM32F4xx_HAL_Driver/Src/stm32f4xx_hal_dma_ex.c ****     __HAL_DMA_CLEAR_FLAG (hdma, __HAL_DMA_GET_DME_FLAG_INDEX(hdma));
 1347              		.loc 1 198 5 discriminator 55 view .LVU273
 1348 07ae A2F56872 		sub	r2, r2, #928
 1349 07b2 9342     		cmp	r3, r2
 1350 07b4 2FD0     		beq	.L178
 198:/home/christoschristoforou/STM32Cube/Repository/STM32Cube_FW_F4_V1.27.0/Drivers/STM32F4xx_HAL_Driver/Src/stm32f4xx_hal_dma_ex.c ****     __HAL_DMA_CLEAR_FLAG (hdma, __HAL_DMA_GET_DME_FLAG_INDEX(hdma));
 1351              		.loc 1 198 5 discriminator 57 view .LVU274
 1352 07b6 02F58062 		add	r2, r2, #1024
 1353 07ba 9342     		cmp	r3, r2
 1354 07bc 2DD0     		beq	.L179
 198:/home/christoschristoforou/STM32Cube/Repository/STM32Cube_FW_F4_V1.27.0/Drivers/STM32F4xx_HAL_Driver/Src/stm32f4xx_hal_dma_ex.c ****     __HAL_DMA_CLEAR_FLAG (hdma, __HAL_DMA_GET_DME_FLAG_INDEX(hdma));
 1355              		.loc 1 198 5 discriminator 59 view .LVU275
 1356 07be A2F58962 		sub	r2, r2, #1096
 1357 07c2 9342     		cmp	r3, r2
 1358 07c4 2BD0     		beq	.L180
 198:/home/christoschristoforou/STM32Cube/Repository/STM32Cube_FW_F4_V1.27.0/Drivers/STM32F4xx_HAL_Driver/Src/stm32f4xx_hal_dma_ex.c ****     __HAL_DMA_CLEAR_FLAG (hdma, __HAL_DMA_GET_DME_FLAG_INDEX(hdma));
 1359              		.loc 1 198 5 discriminator 61 view .LVU276
 1360 07c6 02F58062 		add	r2, r2, #1024
 1361 07ca 9342     		cmp	r3, r2
 1362 07cc 2AD0     		beq	.L181
 198:/home/christoschristoforou/STM32Cube/Repository/STM32Cube_FW_F4_V1.27.0/Drivers/STM32F4xx_HAL_Driver/Src/stm32f4xx_hal_dma_ex.c ****     __HAL_DMA_CLEAR_FLAG (hdma, __HAL_DMA_GET_DME_FLAG_INDEX(hdma));
 1363              		.loc 1 198 5 discriminator 63 view .LVU277
 1364 07ce A2F56872 		sub	r2, r2, #928
 1365 07d2 9342     		cmp	r3, r2
 1366 07d4 29D0     		beq	.L182
 198:/home/christoschristoforou/STM32Cube/Repository/STM32Cube_FW_F4_V1.27.0/Drivers/STM32F4xx_HAL_Driver/Src/stm32f4xx_hal_dma_ex.c ****     __HAL_DMA_CLEAR_FLAG (hdma, __HAL_DMA_GET_DME_FLAG_INDEX(hdma));
 1367              		.loc 1 198 5 discriminator 65 view .LVU278
 1368 07d6 02F58062 		add	r2, r2, #1024
ARM GAS  /tmp/cctZJEWc.s 			page 35


 1369 07da 9342     		cmp	r3, r2
 1370 07dc 28D0     		beq	.L183
 198:/home/christoschristoforou/STM32Cube/Repository/STM32Cube_FW_F4_V1.27.0/Drivers/STM32F4xx_HAL_Driver/Src/stm32f4xx_hal_dma_ex.c ****     __HAL_DMA_CLEAR_FLAG (hdma, __HAL_DMA_GET_DME_FLAG_INDEX(hdma));
 1371              		.loc 1 198 5 discriminator 67 view .LVU279
 1372 07de A2F58962 		sub	r2, r2, #1096
 1373 07e2 9342     		cmp	r3, r2
 1374 07e4 27D0     		beq	.L184
 198:/home/christoschristoforou/STM32Cube/Repository/STM32Cube_FW_F4_V1.27.0/Drivers/STM32F4xx_HAL_Driver/Src/stm32f4xx_hal_dma_ex.c ****     __HAL_DMA_CLEAR_FLAG (hdma, __HAL_DMA_GET_DME_FLAG_INDEX(hdma));
 1375              		.loc 1 198 5 discriminator 69 view .LVU280
 1376 07e6 02F58062 		add	r2, r2, #1024
 1377 07ea 9342     		cmp	r3, r2
 1378 07ec 26D0     		beq	.L185
 198:/home/christoschristoforou/STM32Cube/Repository/STM32Cube_FW_F4_V1.27.0/Drivers/STM32F4xx_HAL_Driver/Src/stm32f4xx_hal_dma_ex.c ****     __HAL_DMA_CLEAR_FLAG (hdma, __HAL_DMA_GET_DME_FLAG_INDEX(hdma));
 1379              		.loc 1 198 5 discriminator 71 view .LVU281
 1380 07ee A2F56872 		sub	r2, r2, #928
 1381 07f2 9342     		cmp	r3, r2
 1382 07f4 25D0     		beq	.L186
 198:/home/christoschristoforou/STM32Cube/Repository/STM32Cube_FW_F4_V1.27.0/Drivers/STM32F4xx_HAL_Driver/Src/stm32f4xx_hal_dma_ex.c ****     __HAL_DMA_CLEAR_FLAG (hdma, __HAL_DMA_GET_DME_FLAG_INDEX(hdma));
 1383              		.loc 1 198 5 discriminator 73 view .LVU282
 1384 07f6 02F58062 		add	r2, r2, #1024
 1385 07fa 9342     		cmp	r3, r2
 1386 07fc 02D0     		beq	.L322
 198:/home/christoschristoforou/STM32Cube/Repository/STM32Cube_FW_F4_V1.27.0/Drivers/STM32F4xx_HAL_Driver/Src/stm32f4xx_hal_dma_ex.c ****     __HAL_DMA_CLEAR_FLAG (hdma, __HAL_DMA_GET_DME_FLAG_INDEX(hdma));
 1387              		.loc 1 198 5 view .LVU283
 1388 07fe 4FF00073 		mov	r3, #33554432
 1389 0802 03E0     		b	.L45
 1390              	.L322:
 1391 0804 4FF40023 		mov	r3, #524288
 1392 0808 00E0     		b	.L45
 1393              	.L176:
 1394 080a 0823     		movs	r3, #8
 1395              	.L45:
 198:/home/christoschristoforou/STM32Cube/Repository/STM32Cube_FW_F4_V1.27.0/Drivers/STM32F4xx_HAL_Driver/Src/stm32f4xx_hal_dma_ex.c ****     __HAL_DMA_CLEAR_FLAG (hdma, __HAL_DMA_GET_DME_FLAG_INDEX(hdma));
 1396              		.loc 1 198 5 discriminator 100 view .LVU284
 1397 080c 3C4A     		ldr	r2, .L337+8
 1398 080e 9360     		str	r3, [r2, #8]
 1399 0810 64E7     		b	.L43
 1400              	.L177:
 198:/home/christoschristoforou/STM32Cube/Repository/STM32Cube_FW_F4_V1.27.0/Drivers/STM32F4xx_HAL_Driver/Src/stm32f4xx_hal_dma_ex.c ****     __HAL_DMA_CLEAR_FLAG (hdma, __HAL_DMA_GET_DME_FLAG_INDEX(hdma));
 1401              		.loc 1 198 5 view .LVU285
 1402 0812 0823     		movs	r3, #8
 1403 0814 FAE7     		b	.L45
 1404              	.L178:
 1405 0816 0823     		movs	r3, #8
 1406 0818 F8E7     		b	.L45
 1407              	.L179:
 1408 081a 0823     		movs	r3, #8
 1409 081c F6E7     		b	.L45
 1410              	.L180:
 1411 081e 4FF40073 		mov	r3, #512
 1412 0822 F3E7     		b	.L45
 1413              	.L181:
 1414 0824 4FF40073 		mov	r3, #512
 1415 0828 F0E7     		b	.L45
 1416              	.L182:
 1417 082a 4FF40073 		mov	r3, #512
 1418 082e EDE7     		b	.L45
ARM GAS  /tmp/cctZJEWc.s 			page 36


 1419              	.L183:
 1420 0830 4FF40073 		mov	r3, #512
 1421 0834 EAE7     		b	.L45
 1422              	.L184:
 1423 0836 4FF40023 		mov	r3, #524288
 1424 083a E7E7     		b	.L45
 1425              	.L185:
 1426 083c 4FF40023 		mov	r3, #524288
 1427 0840 E4E7     		b	.L45
 1428              	.L186:
 1429 0842 4FF40023 		mov	r3, #524288
 1430 0846 E1E7     		b	.L45
 1431              	.L44:
 198:/home/christoschristoforou/STM32Cube/Repository/STM32Cube_FW_F4_V1.27.0/Drivers/STM32F4xx_HAL_Driver/Src/stm32f4xx_hal_dma_ex.c ****     __HAL_DMA_CLEAR_FLAG (hdma, __HAL_DMA_GET_DME_FLAG_INDEX(hdma));
 1432              		.loc 1 198 5 discriminator 52 view .LVU286
 1433 0848 304A     		ldr	r2, .L337+20
 1434 084a 9342     		cmp	r3, r2
 1435 084c 60D9     		bls	.L46
 198:/home/christoschristoforou/STM32Cube/Repository/STM32Cube_FW_F4_V1.27.0/Drivers/STM32F4xx_HAL_Driver/Src/stm32f4xx_hal_dma_ex.c ****     __HAL_DMA_CLEAR_FLAG (hdma, __HAL_DMA_GET_DME_FLAG_INDEX(hdma));
 1436              		.loc 1 198 5 discriminator 102 view .LVU287
 1437 084e 483A     		subs	r2, r2, #72
 1438 0850 9342     		cmp	r3, r2
 1439 0852 31D0     		beq	.L188
 198:/home/christoschristoforou/STM32Cube/Repository/STM32Cube_FW_F4_V1.27.0/Drivers/STM32F4xx_HAL_Driver/Src/stm32f4xx_hal_dma_ex.c ****     __HAL_DMA_CLEAR_FLAG (hdma, __HAL_DMA_GET_DME_FLAG_INDEX(hdma));
 1440              		.loc 1 198 5 discriminator 104 view .LVU288
 1441 0854 02F58062 		add	r2, r2, #1024
 1442 0858 9342     		cmp	r3, r2
 1443 085a 31D0     		beq	.L189
 198:/home/christoschristoforou/STM32Cube/Repository/STM32Cube_FW_F4_V1.27.0/Drivers/STM32F4xx_HAL_Driver/Src/stm32f4xx_hal_dma_ex.c ****     __HAL_DMA_CLEAR_FLAG (hdma, __HAL_DMA_GET_DME_FLAG_INDEX(hdma));
 1444              		.loc 1 198 5 discriminator 106 view .LVU289
 1445 085c A2F56872 		sub	r2, r2, #928
 1446 0860 9342     		cmp	r3, r2
 1447 0862 2FD0     		beq	.L190
 198:/home/christoschristoforou/STM32Cube/Repository/STM32Cube_FW_F4_V1.27.0/Drivers/STM32F4xx_HAL_Driver/Src/stm32f4xx_hal_dma_ex.c ****     __HAL_DMA_CLEAR_FLAG (hdma, __HAL_DMA_GET_DME_FLAG_INDEX(hdma));
 1448              		.loc 1 198 5 discriminator 108 view .LVU290
 1449 0864 02F58062 		add	r2, r2, #1024
 1450 0868 9342     		cmp	r3, r2
 1451 086a 2DD0     		beq	.L191
 198:/home/christoschristoforou/STM32Cube/Repository/STM32Cube_FW_F4_V1.27.0/Drivers/STM32F4xx_HAL_Driver/Src/stm32f4xx_hal_dma_ex.c ****     __HAL_DMA_CLEAR_FLAG (hdma, __HAL_DMA_GET_DME_FLAG_INDEX(hdma));
 1452              		.loc 1 198 5 discriminator 110 view .LVU291
 1453 086c A2F58962 		sub	r2, r2, #1096
 1454 0870 9342     		cmp	r3, r2
 1455 0872 2BD0     		beq	.L192
 198:/home/christoschristoforou/STM32Cube/Repository/STM32Cube_FW_F4_V1.27.0/Drivers/STM32F4xx_HAL_Driver/Src/stm32f4xx_hal_dma_ex.c ****     __HAL_DMA_CLEAR_FLAG (hdma, __HAL_DMA_GET_DME_FLAG_INDEX(hdma));
 1456              		.loc 1 198 5 discriminator 112 view .LVU292
 1457 0874 02F58062 		add	r2, r2, #1024
 1458 0878 9342     		cmp	r3, r2
 1459 087a 2AD0     		beq	.L193
 198:/home/christoschristoforou/STM32Cube/Repository/STM32Cube_FW_F4_V1.27.0/Drivers/STM32F4xx_HAL_Driver/Src/stm32f4xx_hal_dma_ex.c ****     __HAL_DMA_CLEAR_FLAG (hdma, __HAL_DMA_GET_DME_FLAG_INDEX(hdma));
 1460              		.loc 1 198 5 discriminator 114 view .LVU293
 1461 087c A2F56872 		sub	r2, r2, #928
 1462 0880 9342     		cmp	r3, r2
 1463 0882 29D0     		beq	.L194
 198:/home/christoschristoforou/STM32Cube/Repository/STM32Cube_FW_F4_V1.27.0/Drivers/STM32F4xx_HAL_Driver/Src/stm32f4xx_hal_dma_ex.c ****     __HAL_DMA_CLEAR_FLAG (hdma, __HAL_DMA_GET_DME_FLAG_INDEX(hdma));
 1464              		.loc 1 198 5 discriminator 116 view .LVU294
 1465 0884 02F58062 		add	r2, r2, #1024
 1466 0888 9342     		cmp	r3, r2
ARM GAS  /tmp/cctZJEWc.s 			page 37


 1467 088a 28D0     		beq	.L195
 198:/home/christoschristoforou/STM32Cube/Repository/STM32Cube_FW_F4_V1.27.0/Drivers/STM32F4xx_HAL_Driver/Src/stm32f4xx_hal_dma_ex.c ****     __HAL_DMA_CLEAR_FLAG (hdma, __HAL_DMA_GET_DME_FLAG_INDEX(hdma));
 1468              		.loc 1 198 5 discriminator 118 view .LVU295
 1469 088c A2F58962 		sub	r2, r2, #1096
 1470 0890 9342     		cmp	r3, r2
 1471 0892 27D0     		beq	.L196
 198:/home/christoschristoforou/STM32Cube/Repository/STM32Cube_FW_F4_V1.27.0/Drivers/STM32F4xx_HAL_Driver/Src/stm32f4xx_hal_dma_ex.c ****     __HAL_DMA_CLEAR_FLAG (hdma, __HAL_DMA_GET_DME_FLAG_INDEX(hdma));
 1472              		.loc 1 198 5 discriminator 120 view .LVU296
 1473 0894 02F58062 		add	r2, r2, #1024
 1474 0898 9342     		cmp	r3, r2
 1475 089a 26D0     		beq	.L197
 198:/home/christoschristoforou/STM32Cube/Repository/STM32Cube_FW_F4_V1.27.0/Drivers/STM32F4xx_HAL_Driver/Src/stm32f4xx_hal_dma_ex.c ****     __HAL_DMA_CLEAR_FLAG (hdma, __HAL_DMA_GET_DME_FLAG_INDEX(hdma));
 1476              		.loc 1 198 5 discriminator 122 view .LVU297
 1477 089c A2F56872 		sub	r2, r2, #928
 1478 08a0 9342     		cmp	r3, r2
 1479 08a2 25D0     		beq	.L198
 198:/home/christoschristoforou/STM32Cube/Repository/STM32Cube_FW_F4_V1.27.0/Drivers/STM32F4xx_HAL_Driver/Src/stm32f4xx_hal_dma_ex.c ****     __HAL_DMA_CLEAR_FLAG (hdma, __HAL_DMA_GET_DME_FLAG_INDEX(hdma));
 1480              		.loc 1 198 5 discriminator 124 view .LVU298
 1481 08a4 02F58062 		add	r2, r2, #1024
 1482 08a8 9342     		cmp	r3, r2
 1483 08aa 02D0     		beq	.L323
 198:/home/christoschristoforou/STM32Cube/Repository/STM32Cube_FW_F4_V1.27.0/Drivers/STM32F4xx_HAL_Driver/Src/stm32f4xx_hal_dma_ex.c ****     __HAL_DMA_CLEAR_FLAG (hdma, __HAL_DMA_GET_DME_FLAG_INDEX(hdma));
 1484              		.loc 1 198 5 view .LVU299
 1485 08ac 4FF00073 		mov	r3, #33554432
 1486 08b0 03E0     		b	.L47
 1487              	.L323:
 1488 08b2 4FF40023 		mov	r3, #524288
 1489 08b6 00E0     		b	.L47
 1490              	.L188:
 1491 08b8 0823     		movs	r3, #8
 1492              	.L47:
 198:/home/christoschristoforou/STM32Cube/Repository/STM32Cube_FW_F4_V1.27.0/Drivers/STM32F4xx_HAL_Driver/Src/stm32f4xx_hal_dma_ex.c ****     __HAL_DMA_CLEAR_FLAG (hdma, __HAL_DMA_GET_DME_FLAG_INDEX(hdma));
 1493              		.loc 1 198 5 discriminator 151 view .LVU300
 1494 08ba 104A     		ldr	r2, .L337+4
 1495 08bc D360     		str	r3, [r2, #12]
 1496 08be 0DE7     		b	.L43
 1497              	.L189:
 198:/home/christoschristoforou/STM32Cube/Repository/STM32Cube_FW_F4_V1.27.0/Drivers/STM32F4xx_HAL_Driver/Src/stm32f4xx_hal_dma_ex.c ****     __HAL_DMA_CLEAR_FLAG (hdma, __HAL_DMA_GET_DME_FLAG_INDEX(hdma));
 1498              		.loc 1 198 5 view .LVU301
 1499 08c0 0823     		movs	r3, #8
 1500 08c2 FAE7     		b	.L47
 1501              	.L190:
 1502 08c4 0823     		movs	r3, #8
 1503 08c6 F8E7     		b	.L47
 1504              	.L191:
 1505 08c8 0823     		movs	r3, #8
 1506 08ca F6E7     		b	.L47
 1507              	.L192:
 1508 08cc 4FF40073 		mov	r3, #512
 1509 08d0 F3E7     		b	.L47
 1510              	.L193:
 1511 08d2 4FF40073 		mov	r3, #512
 1512 08d6 F0E7     		b	.L47
 1513              	.L194:
 1514 08d8 4FF40073 		mov	r3, #512
 1515 08dc EDE7     		b	.L47
 1516              	.L195:
ARM GAS  /tmp/cctZJEWc.s 			page 38


 1517 08de 4FF40073 		mov	r3, #512
 1518 08e2 EAE7     		b	.L47
 1519              	.L196:
 1520 08e4 4FF40023 		mov	r3, #524288
 1521 08e8 E7E7     		b	.L47
 1522              	.L197:
 1523 08ea 4FF40023 		mov	r3, #524288
 1524 08ee E4E7     		b	.L47
 1525              	.L198:
 1526 08f0 4FF40023 		mov	r3, #524288
 1527 08f4 E1E7     		b	.L47
 1528              	.L338:
 1529 08f6 00BF     		.align	2
 1530              	.L337:
 1531 08f8 10600240 		.word	1073897488
 1532 08fc 00600240 		.word	1073897472
 1533 0900 00640240 		.word	1073898496
 1534 0904 58640240 		.word	1073898584
 1535 0908 B8600240 		.word	1073897656
 1536 090c 58600240 		.word	1073897560
 1537              	.L46:
 198:/home/christoschristoforou/STM32Cube/Repository/STM32Cube_FW_F4_V1.27.0/Drivers/STM32F4xx_HAL_Driver/Src/stm32f4xx_hal_dma_ex.c ****     __HAL_DMA_CLEAR_FLAG (hdma, __HAL_DMA_GET_DME_FLAG_INDEX(hdma));
 1538              		.loc 1 198 5 discriminator 103 view .LVU302
 1539 0910 B34A     		ldr	r2, .L339
 1540 0912 9342     		cmp	r3, r2
 1541 0914 31D0     		beq	.L200
 198:/home/christoschristoforou/STM32Cube/Repository/STM32Cube_FW_F4_V1.27.0/Drivers/STM32F4xx_HAL_Driver/Src/stm32f4xx_hal_dma_ex.c ****     __HAL_DMA_CLEAR_FLAG (hdma, __HAL_DMA_GET_DME_FLAG_INDEX(hdma));
 1542              		.loc 1 198 5 discriminator 153 view .LVU303
 1543 0916 02F58062 		add	r2, r2, #1024
 1544 091a 9342     		cmp	r3, r2
 1545 091c 31D0     		beq	.L201
 198:/home/christoschristoforou/STM32Cube/Repository/STM32Cube_FW_F4_V1.27.0/Drivers/STM32F4xx_HAL_Driver/Src/stm32f4xx_hal_dma_ex.c ****     __HAL_DMA_CLEAR_FLAG (hdma, __HAL_DMA_GET_DME_FLAG_INDEX(hdma));
 1546              		.loc 1 198 5 discriminator 155 view .LVU304
 1547 091e A2F56872 		sub	r2, r2, #928
 1548 0922 9342     		cmp	r3, r2
 1549 0924 2FD0     		beq	.L202
 198:/home/christoschristoforou/STM32Cube/Repository/STM32Cube_FW_F4_V1.27.0/Drivers/STM32F4xx_HAL_Driver/Src/stm32f4xx_hal_dma_ex.c ****     __HAL_DMA_CLEAR_FLAG (hdma, __HAL_DMA_GET_DME_FLAG_INDEX(hdma));
 1550              		.loc 1 198 5 discriminator 157 view .LVU305
 1551 0926 02F58062 		add	r2, r2, #1024
 1552 092a 9342     		cmp	r3, r2
 1553 092c 2DD0     		beq	.L203
 198:/home/christoschristoforou/STM32Cube/Repository/STM32Cube_FW_F4_V1.27.0/Drivers/STM32F4xx_HAL_Driver/Src/stm32f4xx_hal_dma_ex.c ****     __HAL_DMA_CLEAR_FLAG (hdma, __HAL_DMA_GET_DME_FLAG_INDEX(hdma));
 1554              		.loc 1 198 5 discriminator 159 view .LVU306
 1555 092e A2F58962 		sub	r2, r2, #1096
 1556 0932 9342     		cmp	r3, r2
 1557 0934 2BD0     		beq	.L204
 198:/home/christoschristoforou/STM32Cube/Repository/STM32Cube_FW_F4_V1.27.0/Drivers/STM32F4xx_HAL_Driver/Src/stm32f4xx_hal_dma_ex.c ****     __HAL_DMA_CLEAR_FLAG (hdma, __HAL_DMA_GET_DME_FLAG_INDEX(hdma));
 1558              		.loc 1 198 5 discriminator 161 view .LVU307
 1559 0936 02F58062 		add	r2, r2, #1024
 1560 093a 9342     		cmp	r3, r2
 1561 093c 2AD0     		beq	.L205
 198:/home/christoschristoforou/STM32Cube/Repository/STM32Cube_FW_F4_V1.27.0/Drivers/STM32F4xx_HAL_Driver/Src/stm32f4xx_hal_dma_ex.c ****     __HAL_DMA_CLEAR_FLAG (hdma, __HAL_DMA_GET_DME_FLAG_INDEX(hdma));
 1562              		.loc 1 198 5 discriminator 163 view .LVU308
 1563 093e A2F56872 		sub	r2, r2, #928
 1564 0942 9342     		cmp	r3, r2
 1565 0944 29D0     		beq	.L206
 198:/home/christoschristoforou/STM32Cube/Repository/STM32Cube_FW_F4_V1.27.0/Drivers/STM32F4xx_HAL_Driver/Src/stm32f4xx_hal_dma_ex.c ****     __HAL_DMA_CLEAR_FLAG (hdma, __HAL_DMA_GET_DME_FLAG_INDEX(hdma));
ARM GAS  /tmp/cctZJEWc.s 			page 39


 1566              		.loc 1 198 5 discriminator 165 view .LVU309
 1567 0946 02F58062 		add	r2, r2, #1024
 1568 094a 9342     		cmp	r3, r2
 1569 094c 28D0     		beq	.L207
 198:/home/christoschristoforou/STM32Cube/Repository/STM32Cube_FW_F4_V1.27.0/Drivers/STM32F4xx_HAL_Driver/Src/stm32f4xx_hal_dma_ex.c ****     __HAL_DMA_CLEAR_FLAG (hdma, __HAL_DMA_GET_DME_FLAG_INDEX(hdma));
 1570              		.loc 1 198 5 discriminator 167 view .LVU310
 1571 094e A2F58962 		sub	r2, r2, #1096
 1572 0952 9342     		cmp	r3, r2
 1573 0954 27D0     		beq	.L208
 198:/home/christoschristoforou/STM32Cube/Repository/STM32Cube_FW_F4_V1.27.0/Drivers/STM32F4xx_HAL_Driver/Src/stm32f4xx_hal_dma_ex.c ****     __HAL_DMA_CLEAR_FLAG (hdma, __HAL_DMA_GET_DME_FLAG_INDEX(hdma));
 1574              		.loc 1 198 5 discriminator 169 view .LVU311
 1575 0956 02F58062 		add	r2, r2, #1024
 1576 095a 9342     		cmp	r3, r2
 1577 095c 26D0     		beq	.L209
 198:/home/christoschristoforou/STM32Cube/Repository/STM32Cube_FW_F4_V1.27.0/Drivers/STM32F4xx_HAL_Driver/Src/stm32f4xx_hal_dma_ex.c ****     __HAL_DMA_CLEAR_FLAG (hdma, __HAL_DMA_GET_DME_FLAG_INDEX(hdma));
 1578              		.loc 1 198 5 discriminator 171 view .LVU312
 1579 095e A2F56872 		sub	r2, r2, #928
 1580 0962 9342     		cmp	r3, r2
 1581 0964 25D0     		beq	.L210
 198:/home/christoschristoforou/STM32Cube/Repository/STM32Cube_FW_F4_V1.27.0/Drivers/STM32F4xx_HAL_Driver/Src/stm32f4xx_hal_dma_ex.c ****     __HAL_DMA_CLEAR_FLAG (hdma, __HAL_DMA_GET_DME_FLAG_INDEX(hdma));
 1582              		.loc 1 198 5 discriminator 173 view .LVU313
 1583 0966 02F58062 		add	r2, r2, #1024
 1584 096a 9342     		cmp	r3, r2
 1585 096c 02D0     		beq	.L324
 198:/home/christoschristoforou/STM32Cube/Repository/STM32Cube_FW_F4_V1.27.0/Drivers/STM32F4xx_HAL_Driver/Src/stm32f4xx_hal_dma_ex.c ****     __HAL_DMA_CLEAR_FLAG (hdma, __HAL_DMA_GET_DME_FLAG_INDEX(hdma));
 1586              		.loc 1 198 5 view .LVU314
 1587 096e 4FF00073 		mov	r3, #33554432
 1588 0972 03E0     		b	.L48
 1589              	.L324:
 1590 0974 4FF40023 		mov	r3, #524288
 1591 0978 00E0     		b	.L48
 1592              	.L200:
 1593 097a 0823     		movs	r3, #8
 1594              	.L48:
 198:/home/christoschristoforou/STM32Cube/Repository/STM32Cube_FW_F4_V1.27.0/Drivers/STM32F4xx_HAL_Driver/Src/stm32f4xx_hal_dma_ex.c ****     __HAL_DMA_CLEAR_FLAG (hdma, __HAL_DMA_GET_DME_FLAG_INDEX(hdma));
 1595              		.loc 1 198 5 discriminator 200 view .LVU315
 1596 097c 994A     		ldr	r2, .L339+4
 1597 097e 9360     		str	r3, [r2, #8]
 1598 0980 ACE6     		b	.L43
 1599              	.L201:
 198:/home/christoschristoforou/STM32Cube/Repository/STM32Cube_FW_F4_V1.27.0/Drivers/STM32F4xx_HAL_Driver/Src/stm32f4xx_hal_dma_ex.c ****     __HAL_DMA_CLEAR_FLAG (hdma, __HAL_DMA_GET_DME_FLAG_INDEX(hdma));
 1600              		.loc 1 198 5 view .LVU316
 1601 0982 0823     		movs	r3, #8
 1602 0984 FAE7     		b	.L48
 1603              	.L202:
 1604 0986 0823     		movs	r3, #8
 1605 0988 F8E7     		b	.L48
 1606              	.L203:
 1607 098a 0823     		movs	r3, #8
 1608 098c F6E7     		b	.L48
 1609              	.L204:
 1610 098e 4FF40073 		mov	r3, #512
 1611 0992 F3E7     		b	.L48
 1612              	.L205:
 1613 0994 4FF40073 		mov	r3, #512
 1614 0998 F0E7     		b	.L48
 1615              	.L206:
ARM GAS  /tmp/cctZJEWc.s 			page 40


 1616 099a 4FF40073 		mov	r3, #512
 1617 099e EDE7     		b	.L48
 1618              	.L207:
 1619 09a0 4FF40073 		mov	r3, #512
 1620 09a4 EAE7     		b	.L48
 1621              	.L208:
 1622 09a6 4FF40023 		mov	r3, #524288
 1623 09aa E7E7     		b	.L48
 1624              	.L209:
 1625 09ac 4FF40023 		mov	r3, #524288
 1626 09b0 E4E7     		b	.L48
 1627              	.L210:
 1628 09b2 4FF40023 		mov	r3, #524288
 1629 09b6 E1E7     		b	.L48
 1630              	.L321:
 199:/home/christoschristoforou/STM32Cube/Repository/STM32Cube_FW_F4_V1.27.0/Drivers/STM32F4xx_HAL_Driver/Src/stm32f4xx_hal_dma_ex.c ****     __HAL_DMA_CLEAR_FLAG (hdma, __HAL_DMA_GET_FE_FLAG_INDEX(hdma));
 1631              		.loc 1 199 5 view .LVU317
 1632 09b8 4FF48022 		mov	r2, #262144
 1633 09bc 00E0     		b	.L50
 1634              	.L212:
 1635 09be 0422     		movs	r2, #4
 1636              	.L50:
 199:/home/christoschristoforou/STM32Cube/Repository/STM32Cube_FW_F4_V1.27.0/Drivers/STM32F4xx_HAL_Driver/Src/stm32f4xx_hal_dma_ex.c ****     __HAL_DMA_CLEAR_FLAG (hdma, __HAL_DMA_GET_FE_FLAG_INDEX(hdma));
 1637              		.loc 1 199 5 discriminator 50 view .LVU318
 1638 09c0 894B     		ldr	r3, .L339+8
 1639 09c2 DA60     		str	r2, [r3, #12]
 1640              	.L51:
 200:/home/christoschristoforou/STM32Cube/Repository/STM32Cube_FW_F4_V1.27.0/Drivers/STM32F4xx_HAL_Driver/Src/stm32f4xx_hal_dma_ex.c **** 
 1641              		.loc 1 200 5 is_stmt 1 view .LVU319
 1642 09c4 2368     		ldr	r3, [r4]
 1643 09c6 894A     		ldr	r2, .L339+12
 1644 09c8 9342     		cmp	r3, r2
 1645 09ca 40F2A181 		bls	.L57
 200:/home/christoschristoforou/STM32Cube/Repository/STM32Cube_FW_F4_V1.27.0/Drivers/STM32F4xx_HAL_Driver/Src/stm32f4xx_hal_dma_ex.c **** 
 1646              		.loc 1 200 5 is_stmt 0 discriminator 1 view .LVU320
 1647 09ce A2F58962 		sub	r2, r2, #1096
 1648 09d2 9342     		cmp	r3, r2
 1649 09d4 00F06781 		beq	.L260
 200:/home/christoschristoforou/STM32Cube/Repository/STM32Cube_FW_F4_V1.27.0/Drivers/STM32F4xx_HAL_Driver/Src/stm32f4xx_hal_dma_ex.c **** 
 1650              		.loc 1 200 5 discriminator 3 view .LVU321
 1651 09d8 02F58062 		add	r2, r2, #1024
 1652 09dc 9342     		cmp	r3, r2
 1653 09de 00F08081 		beq	.L261
 200:/home/christoschristoforou/STM32Cube/Repository/STM32Cube_FW_F4_V1.27.0/Drivers/STM32F4xx_HAL_Driver/Src/stm32f4xx_hal_dma_ex.c **** 
 1654              		.loc 1 200 5 discriminator 5 view .LVU322
 1655 09e2 A2F56872 		sub	r2, r2, #928
 1656 09e6 9342     		cmp	r3, r2
 1657 09e8 00F07D81 		beq	.L262
 200:/home/christoschristoforou/STM32Cube/Repository/STM32Cube_FW_F4_V1.27.0/Drivers/STM32F4xx_HAL_Driver/Src/stm32f4xx_hal_dma_ex.c **** 
 1658              		.loc 1 200 5 discriminator 7 view .LVU323
 1659 09ec 02F58062 		add	r2, r2, #1024
 1660 09f0 9342     		cmp	r3, r2
 1661 09f2 00F07A81 		beq	.L263
 200:/home/christoschristoforou/STM32Cube/Repository/STM32Cube_FW_F4_V1.27.0/Drivers/STM32F4xx_HAL_Driver/Src/stm32f4xx_hal_dma_ex.c **** 
 1662              		.loc 1 200 5 discriminator 9 view .LVU324
 1663 09f6 A2F58962 		sub	r2, r2, #1096
 1664 09fa 9342     		cmp	r3, r2
ARM GAS  /tmp/cctZJEWc.s 			page 41


 1665 09fc 00F07781 		beq	.L264
 200:/home/christoschristoforou/STM32Cube/Repository/STM32Cube_FW_F4_V1.27.0/Drivers/STM32F4xx_HAL_Driver/Src/stm32f4xx_hal_dma_ex.c **** 
 1666              		.loc 1 200 5 discriminator 11 view .LVU325
 1667 0a00 02F58062 		add	r2, r2, #1024
 1668 0a04 9342     		cmp	r3, r2
 1669 0a06 00F07481 		beq	.L265
 200:/home/christoschristoforou/STM32Cube/Repository/STM32Cube_FW_F4_V1.27.0/Drivers/STM32F4xx_HAL_Driver/Src/stm32f4xx_hal_dma_ex.c **** 
 1670              		.loc 1 200 5 discriminator 13 view .LVU326
 1671 0a0a A2F56872 		sub	r2, r2, #928
 1672 0a0e 9342     		cmp	r3, r2
 1673 0a10 00F07181 		beq	.L266
 200:/home/christoschristoforou/STM32Cube/Repository/STM32Cube_FW_F4_V1.27.0/Drivers/STM32F4xx_HAL_Driver/Src/stm32f4xx_hal_dma_ex.c **** 
 1674              		.loc 1 200 5 discriminator 15 view .LVU327
 1675 0a14 02F58062 		add	r2, r2, #1024
 1676 0a18 9342     		cmp	r3, r2
 1677 0a1a 00F06E81 		beq	.L267
 200:/home/christoschristoforou/STM32Cube/Repository/STM32Cube_FW_F4_V1.27.0/Drivers/STM32F4xx_HAL_Driver/Src/stm32f4xx_hal_dma_ex.c **** 
 1678              		.loc 1 200 5 discriminator 17 view .LVU328
 1679 0a1e A2F58962 		sub	r2, r2, #1096
 1680 0a22 9342     		cmp	r3, r2
 1681 0a24 00F06B81 		beq	.L268
 200:/home/christoschristoforou/STM32Cube/Repository/STM32Cube_FW_F4_V1.27.0/Drivers/STM32F4xx_HAL_Driver/Src/stm32f4xx_hal_dma_ex.c **** 
 1682              		.loc 1 200 5 discriminator 19 view .LVU329
 1683 0a28 02F58062 		add	r2, r2, #1024
 1684 0a2c 9342     		cmp	r3, r2
 1685 0a2e 00F06981 		beq	.L269
 200:/home/christoschristoforou/STM32Cube/Repository/STM32Cube_FW_F4_V1.27.0/Drivers/STM32F4xx_HAL_Driver/Src/stm32f4xx_hal_dma_ex.c **** 
 1686              		.loc 1 200 5 discriminator 21 view .LVU330
 1687 0a32 A2F56872 		sub	r2, r2, #928
 1688 0a36 9342     		cmp	r3, r2
 1689 0a38 00F06781 		beq	.L270
 200:/home/christoschristoforou/STM32Cube/Repository/STM32Cube_FW_F4_V1.27.0/Drivers/STM32F4xx_HAL_Driver/Src/stm32f4xx_hal_dma_ex.c **** 
 1690              		.loc 1 200 5 discriminator 23 view .LVU331
 1691 0a3c 02F58062 		add	r2, r2, #1024
 1692 0a40 9342     		cmp	r3, r2
 1693 0a42 00F02D81 		beq	.L325
 200:/home/christoschristoforou/STM32Cube/Repository/STM32Cube_FW_F4_V1.27.0/Drivers/STM32F4xx_HAL_Driver/Src/stm32f4xx_hal_dma_ex.c **** 
 1694              		.loc 1 200 5 view .LVU332
 1695 0a46 4FF48002 		mov	r2, #4194304
 1696 0a4a 2DE1     		b	.L58
 1697              	.L213:
 199:/home/christoschristoforou/STM32Cube/Repository/STM32Cube_FW_F4_V1.27.0/Drivers/STM32F4xx_HAL_Driver/Src/stm32f4xx_hal_dma_ex.c ****     __HAL_DMA_CLEAR_FLAG (hdma, __HAL_DMA_GET_FE_FLAG_INDEX(hdma));
 1698              		.loc 1 199 5 view .LVU333
 1699 0a4c 0422     		movs	r2, #4
 1700 0a4e B7E7     		b	.L50
 1701              	.L214:
 1702 0a50 0422     		movs	r2, #4
 1703 0a52 B5E7     		b	.L50
 1704              	.L215:
 1705 0a54 0422     		movs	r2, #4
 1706 0a56 B3E7     		b	.L50
 1707              	.L216:
 1708 0a58 4FF48072 		mov	r2, #256
 1709 0a5c B0E7     		b	.L50
 1710              	.L217:
 1711 0a5e 4FF48072 		mov	r2, #256
 1712 0a62 ADE7     		b	.L50
ARM GAS  /tmp/cctZJEWc.s 			page 42


 1713              	.L218:
 1714 0a64 4FF48072 		mov	r2, #256
 1715 0a68 AAE7     		b	.L50
 1716              	.L219:
 1717 0a6a 4FF48072 		mov	r2, #256
 1718 0a6e A7E7     		b	.L50
 1719              	.L220:
 1720 0a70 4FF48022 		mov	r2, #262144
 1721 0a74 A4E7     		b	.L50
 1722              	.L221:
 1723 0a76 4FF48022 		mov	r2, #262144
 1724 0a7a A1E7     		b	.L50
 1725              	.L222:
 1726 0a7c 4FF48022 		mov	r2, #262144
 1727 0a80 9EE7     		b	.L50
 1728              	.L49:
 199:/home/christoschristoforou/STM32Cube/Repository/STM32Cube_FW_F4_V1.27.0/Drivers/STM32F4xx_HAL_Driver/Src/stm32f4xx_hal_dma_ex.c ****     __HAL_DMA_CLEAR_FLAG (hdma, __HAL_DMA_GET_FE_FLAG_INDEX(hdma));
 1729              		.loc 1 199 5 discriminator 2 view .LVU334
 1730 0a82 5B4A     		ldr	r2, .L339+16
 1731 0a84 9342     		cmp	r3, r2
 1732 0a86 53D9     		bls	.L52
 199:/home/christoschristoforou/STM32Cube/Repository/STM32Cube_FW_F4_V1.27.0/Drivers/STM32F4xx_HAL_Driver/Src/stm32f4xx_hal_dma_ex.c ****     __HAL_DMA_CLEAR_FLAG (hdma, __HAL_DMA_GET_FE_FLAG_INDEX(hdma));
 1733              		.loc 1 199 5 discriminator 51 view .LVU335
 1734 0a88 A83A     		subs	r2, r2, #168
 1735 0a8a 9342     		cmp	r3, r2
 1736 0a8c 31D0     		beq	.L224
 199:/home/christoschristoforou/STM32Cube/Repository/STM32Cube_FW_F4_V1.27.0/Drivers/STM32F4xx_HAL_Driver/Src/stm32f4xx_hal_dma_ex.c ****     __HAL_DMA_CLEAR_FLAG (hdma, __HAL_DMA_GET_FE_FLAG_INDEX(hdma));
 1737              		.loc 1 199 5 discriminator 53 view .LVU336
 1738 0a8e 02F58062 		add	r2, r2, #1024
 1739 0a92 9342     		cmp	r3, r2
 1740 0a94 31D0     		beq	.L225
 199:/home/christoschristoforou/STM32Cube/Repository/STM32Cube_FW_F4_V1.27.0/Drivers/STM32F4xx_HAL_Driver/Src/stm32f4xx_hal_dma_ex.c ****     __HAL_DMA_CLEAR_FLAG (hdma, __HAL_DMA_GET_FE_FLAG_INDEX(hdma));
 1741              		.loc 1 199 5 discriminator 55 view .LVU337
 1742 0a96 A2F56872 		sub	r2, r2, #928
 1743 0a9a 9342     		cmp	r3, r2
 1744 0a9c 2FD0     		beq	.L226
 199:/home/christoschristoforou/STM32Cube/Repository/STM32Cube_FW_F4_V1.27.0/Drivers/STM32F4xx_HAL_Driver/Src/stm32f4xx_hal_dma_ex.c ****     __HAL_DMA_CLEAR_FLAG (hdma, __HAL_DMA_GET_FE_FLAG_INDEX(hdma));
 1745              		.loc 1 199 5 discriminator 57 view .LVU338
 1746 0a9e 02F58062 		add	r2, r2, #1024
 1747 0aa2 9342     		cmp	r3, r2
 1748 0aa4 2DD0     		beq	.L227
 199:/home/christoschristoforou/STM32Cube/Repository/STM32Cube_FW_F4_V1.27.0/Drivers/STM32F4xx_HAL_Driver/Src/stm32f4xx_hal_dma_ex.c ****     __HAL_DMA_CLEAR_FLAG (hdma, __HAL_DMA_GET_FE_FLAG_INDEX(hdma));
 1749              		.loc 1 199 5 discriminator 59 view .LVU339
 1750 0aa6 A2F58962 		sub	r2, r2, #1096
 1751 0aaa 9342     		cmp	r3, r2
 1752 0aac 2BD0     		beq	.L228
 199:/home/christoschristoforou/STM32Cube/Repository/STM32Cube_FW_F4_V1.27.0/Drivers/STM32F4xx_HAL_Driver/Src/stm32f4xx_hal_dma_ex.c ****     __HAL_DMA_CLEAR_FLAG (hdma, __HAL_DMA_GET_FE_FLAG_INDEX(hdma));
 1753              		.loc 1 199 5 discriminator 61 view .LVU340
 1754 0aae 02F58062 		add	r2, r2, #1024
 1755 0ab2 9342     		cmp	r3, r2
 1756 0ab4 2AD0     		beq	.L229
 199:/home/christoschristoforou/STM32Cube/Repository/STM32Cube_FW_F4_V1.27.0/Drivers/STM32F4xx_HAL_Driver/Src/stm32f4xx_hal_dma_ex.c ****     __HAL_DMA_CLEAR_FLAG (hdma, __HAL_DMA_GET_FE_FLAG_INDEX(hdma));
 1757              		.loc 1 199 5 discriminator 63 view .LVU341
 1758 0ab6 A2F56872 		sub	r2, r2, #928
 1759 0aba 9342     		cmp	r3, r2
 1760 0abc 29D0     		beq	.L230
 199:/home/christoschristoforou/STM32Cube/Repository/STM32Cube_FW_F4_V1.27.0/Drivers/STM32F4xx_HAL_Driver/Src/stm32f4xx_hal_dma_ex.c ****     __HAL_DMA_CLEAR_FLAG (hdma, __HAL_DMA_GET_FE_FLAG_INDEX(hdma));
ARM GAS  /tmp/cctZJEWc.s 			page 43


 1761              		.loc 1 199 5 discriminator 65 view .LVU342
 1762 0abe 02F58062 		add	r2, r2, #1024
 1763 0ac2 9342     		cmp	r3, r2
 1764 0ac4 28D0     		beq	.L231
 199:/home/christoschristoforou/STM32Cube/Repository/STM32Cube_FW_F4_V1.27.0/Drivers/STM32F4xx_HAL_Driver/Src/stm32f4xx_hal_dma_ex.c ****     __HAL_DMA_CLEAR_FLAG (hdma, __HAL_DMA_GET_FE_FLAG_INDEX(hdma));
 1765              		.loc 1 199 5 discriminator 67 view .LVU343
 1766 0ac6 A2F58962 		sub	r2, r2, #1096
 1767 0aca 9342     		cmp	r3, r2
 1768 0acc 27D0     		beq	.L232
 199:/home/christoschristoforou/STM32Cube/Repository/STM32Cube_FW_F4_V1.27.0/Drivers/STM32F4xx_HAL_Driver/Src/stm32f4xx_hal_dma_ex.c ****     __HAL_DMA_CLEAR_FLAG (hdma, __HAL_DMA_GET_FE_FLAG_INDEX(hdma));
 1769              		.loc 1 199 5 discriminator 69 view .LVU344
 1770 0ace 02F58062 		add	r2, r2, #1024
 1771 0ad2 9342     		cmp	r3, r2
 1772 0ad4 26D0     		beq	.L233
 199:/home/christoschristoforou/STM32Cube/Repository/STM32Cube_FW_F4_V1.27.0/Drivers/STM32F4xx_HAL_Driver/Src/stm32f4xx_hal_dma_ex.c ****     __HAL_DMA_CLEAR_FLAG (hdma, __HAL_DMA_GET_FE_FLAG_INDEX(hdma));
 1773              		.loc 1 199 5 discriminator 71 view .LVU345
 1774 0ad6 A2F56872 		sub	r2, r2, #928
 1775 0ada 9342     		cmp	r3, r2
 1776 0adc 25D0     		beq	.L234
 199:/home/christoschristoforou/STM32Cube/Repository/STM32Cube_FW_F4_V1.27.0/Drivers/STM32F4xx_HAL_Driver/Src/stm32f4xx_hal_dma_ex.c ****     __HAL_DMA_CLEAR_FLAG (hdma, __HAL_DMA_GET_FE_FLAG_INDEX(hdma));
 1777              		.loc 1 199 5 discriminator 73 view .LVU346
 1778 0ade 02F58062 		add	r2, r2, #1024
 1779 0ae2 9342     		cmp	r3, r2
 1780 0ae4 02D0     		beq	.L326
 199:/home/christoschristoforou/STM32Cube/Repository/STM32Cube_FW_F4_V1.27.0/Drivers/STM32F4xx_HAL_Driver/Src/stm32f4xx_hal_dma_ex.c ****     __HAL_DMA_CLEAR_FLAG (hdma, __HAL_DMA_GET_FE_FLAG_INDEX(hdma));
 1781              		.loc 1 199 5 view .LVU347
 1782 0ae6 4FF08073 		mov	r3, #16777216
 1783 0aea 03E0     		b	.L53
 1784              	.L326:
 1785 0aec 4FF48023 		mov	r3, #262144
 1786 0af0 00E0     		b	.L53
 1787              	.L224:
 1788 0af2 0423     		movs	r3, #4
 1789              	.L53:
 199:/home/christoschristoforou/STM32Cube/Repository/STM32Cube_FW_F4_V1.27.0/Drivers/STM32F4xx_HAL_Driver/Src/stm32f4xx_hal_dma_ex.c ****     __HAL_DMA_CLEAR_FLAG (hdma, __HAL_DMA_GET_FE_FLAG_INDEX(hdma));
 1790              		.loc 1 199 5 discriminator 100 view .LVU348
 1791 0af4 3C4A     		ldr	r2, .L339+8
 1792 0af6 9360     		str	r3, [r2, #8]
 1793 0af8 64E7     		b	.L51
 1794              	.L225:
 199:/home/christoschristoforou/STM32Cube/Repository/STM32Cube_FW_F4_V1.27.0/Drivers/STM32F4xx_HAL_Driver/Src/stm32f4xx_hal_dma_ex.c ****     __HAL_DMA_CLEAR_FLAG (hdma, __HAL_DMA_GET_FE_FLAG_INDEX(hdma));
 1795              		.loc 1 199 5 view .LVU349
 1796 0afa 0423     		movs	r3, #4
 1797 0afc FAE7     		b	.L53
 1798              	.L226:
 1799 0afe 0423     		movs	r3, #4
 1800 0b00 F8E7     		b	.L53
 1801              	.L227:
 1802 0b02 0423     		movs	r3, #4
 1803 0b04 F6E7     		b	.L53
 1804              	.L228:
 1805 0b06 4FF48073 		mov	r3, #256
 1806 0b0a F3E7     		b	.L53
 1807              	.L229:
 1808 0b0c 4FF48073 		mov	r3, #256
 1809 0b10 F0E7     		b	.L53
 1810              	.L230:
ARM GAS  /tmp/cctZJEWc.s 			page 44


 1811 0b12 4FF48073 		mov	r3, #256
 1812 0b16 EDE7     		b	.L53
 1813              	.L231:
 1814 0b18 4FF48073 		mov	r3, #256
 1815 0b1c EAE7     		b	.L53
 1816              	.L232:
 1817 0b1e 4FF48023 		mov	r3, #262144
 1818 0b22 E7E7     		b	.L53
 1819              	.L233:
 1820 0b24 4FF48023 		mov	r3, #262144
 1821 0b28 E4E7     		b	.L53
 1822              	.L234:
 1823 0b2a 4FF48023 		mov	r3, #262144
 1824 0b2e E1E7     		b	.L53
 1825              	.L52:
 199:/home/christoschristoforou/STM32Cube/Repository/STM32Cube_FW_F4_V1.27.0/Drivers/STM32F4xx_HAL_Driver/Src/stm32f4xx_hal_dma_ex.c ****     __HAL_DMA_CLEAR_FLAG (hdma, __HAL_DMA_GET_FE_FLAG_INDEX(hdma));
 1826              		.loc 1 199 5 discriminator 52 view .LVU350
 1827 0b30 304A     		ldr	r2, .L339+20
 1828 0b32 9342     		cmp	r3, r2
 1829 0b34 60D9     		bls	.L54
 199:/home/christoschristoforou/STM32Cube/Repository/STM32Cube_FW_F4_V1.27.0/Drivers/STM32F4xx_HAL_Driver/Src/stm32f4xx_hal_dma_ex.c ****     __HAL_DMA_CLEAR_FLAG (hdma, __HAL_DMA_GET_FE_FLAG_INDEX(hdma));
 1830              		.loc 1 199 5 discriminator 102 view .LVU351
 1831 0b36 483A     		subs	r2, r2, #72
 1832 0b38 9342     		cmp	r3, r2
 1833 0b3a 31D0     		beq	.L236
 199:/home/christoschristoforou/STM32Cube/Repository/STM32Cube_FW_F4_V1.27.0/Drivers/STM32F4xx_HAL_Driver/Src/stm32f4xx_hal_dma_ex.c ****     __HAL_DMA_CLEAR_FLAG (hdma, __HAL_DMA_GET_FE_FLAG_INDEX(hdma));
 1834              		.loc 1 199 5 discriminator 104 view .LVU352
 1835 0b3c 02F58062 		add	r2, r2, #1024
 1836 0b40 9342     		cmp	r3, r2
 1837 0b42 31D0     		beq	.L237
 199:/home/christoschristoforou/STM32Cube/Repository/STM32Cube_FW_F4_V1.27.0/Drivers/STM32F4xx_HAL_Driver/Src/stm32f4xx_hal_dma_ex.c ****     __HAL_DMA_CLEAR_FLAG (hdma, __HAL_DMA_GET_FE_FLAG_INDEX(hdma));
 1838              		.loc 1 199 5 discriminator 106 view .LVU353
 1839 0b44 A2F56872 		sub	r2, r2, #928
 1840 0b48 9342     		cmp	r3, r2
 1841 0b4a 2FD0     		beq	.L238
 199:/home/christoschristoforou/STM32Cube/Repository/STM32Cube_FW_F4_V1.27.0/Drivers/STM32F4xx_HAL_Driver/Src/stm32f4xx_hal_dma_ex.c ****     __HAL_DMA_CLEAR_FLAG (hdma, __HAL_DMA_GET_FE_FLAG_INDEX(hdma));
 1842              		.loc 1 199 5 discriminator 108 view .LVU354
 1843 0b4c 02F58062 		add	r2, r2, #1024
 1844 0b50 9342     		cmp	r3, r2
 1845 0b52 2DD0     		beq	.L239
 199:/home/christoschristoforou/STM32Cube/Repository/STM32Cube_FW_F4_V1.27.0/Drivers/STM32F4xx_HAL_Driver/Src/stm32f4xx_hal_dma_ex.c ****     __HAL_DMA_CLEAR_FLAG (hdma, __HAL_DMA_GET_FE_FLAG_INDEX(hdma));
 1846              		.loc 1 199 5 discriminator 110 view .LVU355
 1847 0b54 A2F58962 		sub	r2, r2, #1096
 1848 0b58 9342     		cmp	r3, r2
 1849 0b5a 2BD0     		beq	.L240
 199:/home/christoschristoforou/STM32Cube/Repository/STM32Cube_FW_F4_V1.27.0/Drivers/STM32F4xx_HAL_Driver/Src/stm32f4xx_hal_dma_ex.c ****     __HAL_DMA_CLEAR_FLAG (hdma, __HAL_DMA_GET_FE_FLAG_INDEX(hdma));
 1850              		.loc 1 199 5 discriminator 112 view .LVU356
 1851 0b5c 02F58062 		add	r2, r2, #1024
 1852 0b60 9342     		cmp	r3, r2
 1853 0b62 2AD0     		beq	.L241
 199:/home/christoschristoforou/STM32Cube/Repository/STM32Cube_FW_F4_V1.27.0/Drivers/STM32F4xx_HAL_Driver/Src/stm32f4xx_hal_dma_ex.c ****     __HAL_DMA_CLEAR_FLAG (hdma, __HAL_DMA_GET_FE_FLAG_INDEX(hdma));
 1854              		.loc 1 199 5 discriminator 114 view .LVU357
 1855 0b64 A2F56872 		sub	r2, r2, #928
 1856 0b68 9342     		cmp	r3, r2
 1857 0b6a 29D0     		beq	.L242
 199:/home/christoschristoforou/STM32Cube/Repository/STM32Cube_FW_F4_V1.27.0/Drivers/STM32F4xx_HAL_Driver/Src/stm32f4xx_hal_dma_ex.c ****     __HAL_DMA_CLEAR_FLAG (hdma, __HAL_DMA_GET_FE_FLAG_INDEX(hdma));
 1858              		.loc 1 199 5 discriminator 116 view .LVU358
ARM GAS  /tmp/cctZJEWc.s 			page 45


 1859 0b6c 02F58062 		add	r2, r2, #1024
 1860 0b70 9342     		cmp	r3, r2
 1861 0b72 28D0     		beq	.L243
 199:/home/christoschristoforou/STM32Cube/Repository/STM32Cube_FW_F4_V1.27.0/Drivers/STM32F4xx_HAL_Driver/Src/stm32f4xx_hal_dma_ex.c ****     __HAL_DMA_CLEAR_FLAG (hdma, __HAL_DMA_GET_FE_FLAG_INDEX(hdma));
 1862              		.loc 1 199 5 discriminator 118 view .LVU359
 1863 0b74 A2F58962 		sub	r2, r2, #1096
 1864 0b78 9342     		cmp	r3, r2
 1865 0b7a 27D0     		beq	.L244
 199:/home/christoschristoforou/STM32Cube/Repository/STM32Cube_FW_F4_V1.27.0/Drivers/STM32F4xx_HAL_Driver/Src/stm32f4xx_hal_dma_ex.c ****     __HAL_DMA_CLEAR_FLAG (hdma, __HAL_DMA_GET_FE_FLAG_INDEX(hdma));
 1866              		.loc 1 199 5 discriminator 120 view .LVU360
 1867 0b7c 02F58062 		add	r2, r2, #1024
 1868 0b80 9342     		cmp	r3, r2
 1869 0b82 26D0     		beq	.L245
 199:/home/christoschristoforou/STM32Cube/Repository/STM32Cube_FW_F4_V1.27.0/Drivers/STM32F4xx_HAL_Driver/Src/stm32f4xx_hal_dma_ex.c ****     __HAL_DMA_CLEAR_FLAG (hdma, __HAL_DMA_GET_FE_FLAG_INDEX(hdma));
 1870              		.loc 1 199 5 discriminator 122 view .LVU361
 1871 0b84 A2F56872 		sub	r2, r2, #928
 1872 0b88 9342     		cmp	r3, r2
 1873 0b8a 25D0     		beq	.L246
 199:/home/christoschristoforou/STM32Cube/Repository/STM32Cube_FW_F4_V1.27.0/Drivers/STM32F4xx_HAL_Driver/Src/stm32f4xx_hal_dma_ex.c ****     __HAL_DMA_CLEAR_FLAG (hdma, __HAL_DMA_GET_FE_FLAG_INDEX(hdma));
 1874              		.loc 1 199 5 discriminator 124 view .LVU362
 1875 0b8c 02F58062 		add	r2, r2, #1024
 1876 0b90 9342     		cmp	r3, r2
 1877 0b92 02D0     		beq	.L327
 199:/home/christoschristoforou/STM32Cube/Repository/STM32Cube_FW_F4_V1.27.0/Drivers/STM32F4xx_HAL_Driver/Src/stm32f4xx_hal_dma_ex.c ****     __HAL_DMA_CLEAR_FLAG (hdma, __HAL_DMA_GET_FE_FLAG_INDEX(hdma));
 1878              		.loc 1 199 5 view .LVU363
 1879 0b94 4FF08073 		mov	r3, #16777216
 1880 0b98 03E0     		b	.L55
 1881              	.L327:
 1882 0b9a 4FF48023 		mov	r3, #262144
 1883 0b9e 00E0     		b	.L55
 1884              	.L236:
 1885 0ba0 0423     		movs	r3, #4
 1886              	.L55:
 199:/home/christoschristoforou/STM32Cube/Repository/STM32Cube_FW_F4_V1.27.0/Drivers/STM32F4xx_HAL_Driver/Src/stm32f4xx_hal_dma_ex.c ****     __HAL_DMA_CLEAR_FLAG (hdma, __HAL_DMA_GET_FE_FLAG_INDEX(hdma));
 1887              		.loc 1 199 5 discriminator 151 view .LVU364
 1888 0ba2 104A     		ldr	r2, .L339+4
 1889 0ba4 D360     		str	r3, [r2, #12]
 1890 0ba6 0DE7     		b	.L51
 1891              	.L237:
 199:/home/christoschristoforou/STM32Cube/Repository/STM32Cube_FW_F4_V1.27.0/Drivers/STM32F4xx_HAL_Driver/Src/stm32f4xx_hal_dma_ex.c ****     __HAL_DMA_CLEAR_FLAG (hdma, __HAL_DMA_GET_FE_FLAG_INDEX(hdma));
 1892              		.loc 1 199 5 view .LVU365
 1893 0ba8 0423     		movs	r3, #4
 1894 0baa FAE7     		b	.L55
 1895              	.L238:
 1896 0bac 0423     		movs	r3, #4
 1897 0bae F8E7     		b	.L55
 1898              	.L239:
 1899 0bb0 0423     		movs	r3, #4
 1900 0bb2 F6E7     		b	.L55
 1901              	.L240:
 1902 0bb4 4FF48073 		mov	r3, #256
 1903 0bb8 F3E7     		b	.L55
 1904              	.L241:
 1905 0bba 4FF48073 		mov	r3, #256
 1906 0bbe F0E7     		b	.L55
 1907              	.L242:
 1908 0bc0 4FF48073 		mov	r3, #256
ARM GAS  /tmp/cctZJEWc.s 			page 46


 1909 0bc4 EDE7     		b	.L55
 1910              	.L243:
 1911 0bc6 4FF48073 		mov	r3, #256
 1912 0bca EAE7     		b	.L55
 1913              	.L244:
 1914 0bcc 4FF48023 		mov	r3, #262144
 1915 0bd0 E7E7     		b	.L55
 1916              	.L245:
 1917 0bd2 4FF48023 		mov	r3, #262144
 1918 0bd6 E4E7     		b	.L55
 1919              	.L246:
 1920 0bd8 4FF48023 		mov	r3, #262144
 1921 0bdc E1E7     		b	.L55
 1922              	.L340:
 1923 0bde 00BF     		.align	2
 1924              	.L339:
 1925 0be0 10600240 		.word	1073897488
 1926 0be4 00600240 		.word	1073897472
 1927 0be8 00640240 		.word	1073898496
 1928 0bec 58640240 		.word	1073898584
 1929 0bf0 B8600240 		.word	1073897656
 1930 0bf4 58600240 		.word	1073897560
 1931              	.L54:
 199:/home/christoschristoforou/STM32Cube/Repository/STM32Cube_FW_F4_V1.27.0/Drivers/STM32F4xx_HAL_Driver/Src/stm32f4xx_hal_dma_ex.c ****     __HAL_DMA_CLEAR_FLAG (hdma, __HAL_DMA_GET_FE_FLAG_INDEX(hdma));
 1932              		.loc 1 199 5 discriminator 103 view .LVU366
 1933 0bf8 B94A     		ldr	r2, .L341
 1934 0bfa 9342     		cmp	r3, r2
 1935 0bfc 31D0     		beq	.L248
 199:/home/christoschristoforou/STM32Cube/Repository/STM32Cube_FW_F4_V1.27.0/Drivers/STM32F4xx_HAL_Driver/Src/stm32f4xx_hal_dma_ex.c ****     __HAL_DMA_CLEAR_FLAG (hdma, __HAL_DMA_GET_FE_FLAG_INDEX(hdma));
 1936              		.loc 1 199 5 discriminator 153 view .LVU367
 1937 0bfe 02F58062 		add	r2, r2, #1024
 1938 0c02 9342     		cmp	r3, r2
 1939 0c04 31D0     		beq	.L249
 199:/home/christoschristoforou/STM32Cube/Repository/STM32Cube_FW_F4_V1.27.0/Drivers/STM32F4xx_HAL_Driver/Src/stm32f4xx_hal_dma_ex.c ****     __HAL_DMA_CLEAR_FLAG (hdma, __HAL_DMA_GET_FE_FLAG_INDEX(hdma));
 1940              		.loc 1 199 5 discriminator 155 view .LVU368
 1941 0c06 A2F56872 		sub	r2, r2, #928
 1942 0c0a 9342     		cmp	r3, r2
 1943 0c0c 2FD0     		beq	.L250
 199:/home/christoschristoforou/STM32Cube/Repository/STM32Cube_FW_F4_V1.27.0/Drivers/STM32F4xx_HAL_Driver/Src/stm32f4xx_hal_dma_ex.c ****     __HAL_DMA_CLEAR_FLAG (hdma, __HAL_DMA_GET_FE_FLAG_INDEX(hdma));
 1944              		.loc 1 199 5 discriminator 157 view .LVU369
 1945 0c0e 02F58062 		add	r2, r2, #1024
 1946 0c12 9342     		cmp	r3, r2
 1947 0c14 2DD0     		beq	.L251
 199:/home/christoschristoforou/STM32Cube/Repository/STM32Cube_FW_F4_V1.27.0/Drivers/STM32F4xx_HAL_Driver/Src/stm32f4xx_hal_dma_ex.c ****     __HAL_DMA_CLEAR_FLAG (hdma, __HAL_DMA_GET_FE_FLAG_INDEX(hdma));
 1948              		.loc 1 199 5 discriminator 159 view .LVU370
 1949 0c16 A2F58962 		sub	r2, r2, #1096
 1950 0c1a 9342     		cmp	r3, r2
 1951 0c1c 2BD0     		beq	.L252
 199:/home/christoschristoforou/STM32Cube/Repository/STM32Cube_FW_F4_V1.27.0/Drivers/STM32F4xx_HAL_Driver/Src/stm32f4xx_hal_dma_ex.c ****     __HAL_DMA_CLEAR_FLAG (hdma, __HAL_DMA_GET_FE_FLAG_INDEX(hdma));
 1952              		.loc 1 199 5 discriminator 161 view .LVU371
 1953 0c1e 02F58062 		add	r2, r2, #1024
 1954 0c22 9342     		cmp	r3, r2
 1955 0c24 2AD0     		beq	.L253
 199:/home/christoschristoforou/STM32Cube/Repository/STM32Cube_FW_F4_V1.27.0/Drivers/STM32F4xx_HAL_Driver/Src/stm32f4xx_hal_dma_ex.c ****     __HAL_DMA_CLEAR_FLAG (hdma, __HAL_DMA_GET_FE_FLAG_INDEX(hdma));
 1956              		.loc 1 199 5 discriminator 163 view .LVU372
 1957 0c26 A2F56872 		sub	r2, r2, #928
 1958 0c2a 9342     		cmp	r3, r2
ARM GAS  /tmp/cctZJEWc.s 			page 47


 1959 0c2c 29D0     		beq	.L254
 199:/home/christoschristoforou/STM32Cube/Repository/STM32Cube_FW_F4_V1.27.0/Drivers/STM32F4xx_HAL_Driver/Src/stm32f4xx_hal_dma_ex.c ****     __HAL_DMA_CLEAR_FLAG (hdma, __HAL_DMA_GET_FE_FLAG_INDEX(hdma));
 1960              		.loc 1 199 5 discriminator 165 view .LVU373
 1961 0c2e 02F58062 		add	r2, r2, #1024
 1962 0c32 9342     		cmp	r3, r2
 1963 0c34 28D0     		beq	.L255
 199:/home/christoschristoforou/STM32Cube/Repository/STM32Cube_FW_F4_V1.27.0/Drivers/STM32F4xx_HAL_Driver/Src/stm32f4xx_hal_dma_ex.c ****     __HAL_DMA_CLEAR_FLAG (hdma, __HAL_DMA_GET_FE_FLAG_INDEX(hdma));
 1964              		.loc 1 199 5 discriminator 167 view .LVU374
 1965 0c36 A2F58962 		sub	r2, r2, #1096
 1966 0c3a 9342     		cmp	r3, r2
 1967 0c3c 27D0     		beq	.L256
 199:/home/christoschristoforou/STM32Cube/Repository/STM32Cube_FW_F4_V1.27.0/Drivers/STM32F4xx_HAL_Driver/Src/stm32f4xx_hal_dma_ex.c ****     __HAL_DMA_CLEAR_FLAG (hdma, __HAL_DMA_GET_FE_FLAG_INDEX(hdma));
 1968              		.loc 1 199 5 discriminator 169 view .LVU375
 1969 0c3e 02F58062 		add	r2, r2, #1024
 1970 0c42 9342     		cmp	r3, r2
 1971 0c44 26D0     		beq	.L257
 199:/home/christoschristoforou/STM32Cube/Repository/STM32Cube_FW_F4_V1.27.0/Drivers/STM32F4xx_HAL_Driver/Src/stm32f4xx_hal_dma_ex.c ****     __HAL_DMA_CLEAR_FLAG (hdma, __HAL_DMA_GET_FE_FLAG_INDEX(hdma));
 1972              		.loc 1 199 5 discriminator 171 view .LVU376
 1973 0c46 A2F56872 		sub	r2, r2, #928
 1974 0c4a 9342     		cmp	r3, r2
 1975 0c4c 25D0     		beq	.L258
 199:/home/christoschristoforou/STM32Cube/Repository/STM32Cube_FW_F4_V1.27.0/Drivers/STM32F4xx_HAL_Driver/Src/stm32f4xx_hal_dma_ex.c ****     __HAL_DMA_CLEAR_FLAG (hdma, __HAL_DMA_GET_FE_FLAG_INDEX(hdma));
 1976              		.loc 1 199 5 discriminator 173 view .LVU377
 1977 0c4e 02F58062 		add	r2, r2, #1024
 1978 0c52 9342     		cmp	r3, r2
 1979 0c54 02D0     		beq	.L328
 199:/home/christoschristoforou/STM32Cube/Repository/STM32Cube_FW_F4_V1.27.0/Drivers/STM32F4xx_HAL_Driver/Src/stm32f4xx_hal_dma_ex.c ****     __HAL_DMA_CLEAR_FLAG (hdma, __HAL_DMA_GET_FE_FLAG_INDEX(hdma));
 1980              		.loc 1 199 5 view .LVU378
 1981 0c56 4FF08073 		mov	r3, #16777216
 1982 0c5a 03E0     		b	.L56
 1983              	.L328:
 1984 0c5c 4FF48023 		mov	r3, #262144
 1985 0c60 00E0     		b	.L56
 1986              	.L248:
 1987 0c62 0423     		movs	r3, #4
 1988              	.L56:
 199:/home/christoschristoforou/STM32Cube/Repository/STM32Cube_FW_F4_V1.27.0/Drivers/STM32F4xx_HAL_Driver/Src/stm32f4xx_hal_dma_ex.c ****     __HAL_DMA_CLEAR_FLAG (hdma, __HAL_DMA_GET_FE_FLAG_INDEX(hdma));
 1989              		.loc 1 199 5 discriminator 200 view .LVU379
 1990 0c64 9F4A     		ldr	r2, .L341+4
 1991 0c66 9360     		str	r3, [r2, #8]
 1992 0c68 ACE6     		b	.L51
 1993              	.L249:
 199:/home/christoschristoforou/STM32Cube/Repository/STM32Cube_FW_F4_V1.27.0/Drivers/STM32F4xx_HAL_Driver/Src/stm32f4xx_hal_dma_ex.c ****     __HAL_DMA_CLEAR_FLAG (hdma, __HAL_DMA_GET_FE_FLAG_INDEX(hdma));
 1994              		.loc 1 199 5 view .LVU380
 1995 0c6a 0423     		movs	r3, #4
 1996 0c6c FAE7     		b	.L56
 1997              	.L250:
 1998 0c6e 0423     		movs	r3, #4
 1999 0c70 F8E7     		b	.L56
 2000              	.L251:
 2001 0c72 0423     		movs	r3, #4
 2002 0c74 F6E7     		b	.L56
 2003              	.L252:
 2004 0c76 4FF48073 		mov	r3, #256
 2005 0c7a F3E7     		b	.L56
 2006              	.L253:
 2007 0c7c 4FF48073 		mov	r3, #256
ARM GAS  /tmp/cctZJEWc.s 			page 48


 2008 0c80 F0E7     		b	.L56
 2009              	.L254:
 2010 0c82 4FF48073 		mov	r3, #256
 2011 0c86 EDE7     		b	.L56
 2012              	.L255:
 2013 0c88 4FF48073 		mov	r3, #256
 2014 0c8c EAE7     		b	.L56
 2015              	.L256:
 2016 0c8e 4FF48023 		mov	r3, #262144
 2017 0c92 E7E7     		b	.L56
 2018              	.L257:
 2019 0c94 4FF48023 		mov	r3, #262144
 2020 0c98 E4E7     		b	.L56
 2021              	.L258:
 2022 0c9a 4FF48023 		mov	r3, #262144
 2023 0c9e E1E7     		b	.L56
 2024              	.L325:
 200:/home/christoschristoforou/STM32Cube/Repository/STM32Cube_FW_F4_V1.27.0/Drivers/STM32F4xx_HAL_Driver/Src/stm32f4xx_hal_dma_ex.c **** 
 2025              		.loc 1 200 5 view .LVU381
 2026 0ca0 4FF48032 		mov	r2, #65536
 2027 0ca4 00E0     		b	.L58
 2028              	.L260:
 2029 0ca6 0122     		movs	r2, #1
 2030              	.L58:
 200:/home/christoschristoforou/STM32Cube/Repository/STM32Cube_FW_F4_V1.27.0/Drivers/STM32F4xx_HAL_Driver/Src/stm32f4xx_hal_dma_ex.c **** 
 2031              		.loc 1 200 5 discriminator 50 view .LVU382
 2032 0ca8 8F4B     		ldr	r3, .L341+8
 2033 0caa DA60     		str	r2, [r3, #12]
 2034              	.L59:
 203:/home/christoschristoforou/STM32Cube/Repository/STM32Cube_FW_F4_V1.27.0/Drivers/STM32F4xx_HAL_Driver/Src/stm32f4xx_hal_dma_ex.c ****     hdma->Instance->FCR |= DMA_IT_FE;
 2035              		.loc 1 203 5 is_stmt 1 view .LVU383
 203:/home/christoschristoforou/STM32Cube/Repository/STM32Cube_FW_F4_V1.27.0/Drivers/STM32F4xx_HAL_Driver/Src/stm32f4xx_hal_dma_ex.c ****     hdma->Instance->FCR |= DMA_IT_FE;
 2036              		.loc 1 203 9 is_stmt 0 view .LVU384
 2037 0cac 2268     		ldr	r2, [r4]
 203:/home/christoschristoforou/STM32Cube/Repository/STM32Cube_FW_F4_V1.27.0/Drivers/STM32F4xx_HAL_Driver/Src/stm32f4xx_hal_dma_ex.c ****     hdma->Instance->FCR |= DMA_IT_FE;
 2038              		.loc 1 203 25 view .LVU385
 2039 0cae 1368     		ldr	r3, [r2]
 2040 0cb0 43F01603 		orr	r3, r3, #22
 2041 0cb4 1360     		str	r3, [r2]
 204:/home/christoschristoforou/STM32Cube/Repository/STM32Cube_FW_F4_V1.27.0/Drivers/STM32F4xx_HAL_Driver/Src/stm32f4xx_hal_dma_ex.c ****     
 2042              		.loc 1 204 5 is_stmt 1 view .LVU386
 204:/home/christoschristoforou/STM32Cube/Repository/STM32Cube_FW_F4_V1.27.0/Drivers/STM32F4xx_HAL_Driver/Src/stm32f4xx_hal_dma_ex.c ****     
 2043              		.loc 1 204 9 is_stmt 0 view .LVU387
 2044 0cb6 2268     		ldr	r2, [r4]
 204:/home/christoschristoforou/STM32Cube/Repository/STM32Cube_FW_F4_V1.27.0/Drivers/STM32F4xx_HAL_Driver/Src/stm32f4xx_hal_dma_ex.c ****     
 2045              		.loc 1 204 25 view .LVU388
 2046 0cb8 5369     		ldr	r3, [r2, #20]
 2047 0cba 43F08003 		orr	r3, r3, #128
 2048 0cbe 5361     		str	r3, [r2, #20]
 206:/home/christoschristoforou/STM32Cube/Repository/STM32Cube_FW_F4_V1.27.0/Drivers/STM32F4xx_HAL_Driver/Src/stm32f4xx_hal_dma_ex.c ****     {
 2049              		.loc 1 206 5 is_stmt 1 view .LVU389
 206:/home/christoschristoforou/STM32Cube/Repository/STM32Cube_FW_F4_V1.27.0/Drivers/STM32F4xx_HAL_Driver/Src/stm32f4xx_hal_dma_ex.c ****     {
 2050              		.loc 1 206 13 is_stmt 0 view .LVU390
 2051 0cc0 236C     		ldr	r3, [r4, #64]
 206:/home/christoschristoforou/STM32Cube/Repository/STM32Cube_FW_F4_V1.27.0/Drivers/STM32F4xx_HAL_Driver/Src/stm32f4xx_hal_dma_ex.c ****     {
 2052              		.loc 1 206 7 view .LVU391
 2053 0cc2 002B     		cmp	r3, #0
ARM GAS  /tmp/cctZJEWc.s 			page 49


 2054 0cc4 00F02581 		beq	.L329
 2055              	.L65:
 208:/home/christoschristoforou/STM32Cube/Repository/STM32Cube_FW_F4_V1.27.0/Drivers/STM32F4xx_HAL_Driver/Src/stm32f4xx_hal_dma_ex.c ****     }
 2056              		.loc 1 208 7 is_stmt 1 view .LVU392
 208:/home/christoschristoforou/STM32Cube/Repository/STM32Cube_FW_F4_V1.27.0/Drivers/STM32F4xx_HAL_Driver/Src/stm32f4xx_hal_dma_ex.c ****     }
 2057              		.loc 1 208 11 is_stmt 0 view .LVU393
 2058 0cc8 2268     		ldr	r2, [r4]
 208:/home/christoschristoforou/STM32Cube/Repository/STM32Cube_FW_F4_V1.27.0/Drivers/STM32F4xx_HAL_Driver/Src/stm32f4xx_hal_dma_ex.c ****     }
 2059              		.loc 1 208 27 view .LVU394
 2060 0cca 1368     		ldr	r3, [r2]
 2061 0ccc 43F00803 		orr	r3, r3, #8
 2062 0cd0 1360     		str	r3, [r2]
 2063              	.L66:
 212:/home/christoschristoforou/STM32Cube/Repository/STM32Cube_FW_F4_V1.27.0/Drivers/STM32F4xx_HAL_Driver/Src/stm32f4xx_hal_dma_ex.c ****   }
 2064              		.loc 1 212 5 is_stmt 1 view .LVU395
 2065 0cd2 2268     		ldr	r2, [r4]
 2066 0cd4 1368     		ldr	r3, [r2]
 2067 0cd6 43F00103 		orr	r3, r3, #1
 2068 0cda 1360     		str	r3, [r2]
 156:/home/christoschristoforou/STM32Cube/Repository/STM32Cube_FW_F4_V1.27.0/Drivers/STM32F4xx_HAL_Driver/Src/stm32f4xx_hal_dma_ex.c ****   
 2069              		.loc 1 156 21 is_stmt 0 view .LVU396
 2070 0cdc 0020     		movs	r0, #0
 2071 0cde FFF7C3B9 		b	.L21
 2072              	.L261:
 200:/home/christoschristoforou/STM32Cube/Repository/STM32Cube_FW_F4_V1.27.0/Drivers/STM32F4xx_HAL_Driver/Src/stm32f4xx_hal_dma_ex.c **** 
 2073              		.loc 1 200 5 view .LVU397
 2074 0ce2 0122     		movs	r2, #1
 2075 0ce4 E0E7     		b	.L58
 2076              	.L262:
 2077 0ce6 0122     		movs	r2, #1
 2078 0ce8 DEE7     		b	.L58
 2079              	.L263:
 2080 0cea 0122     		movs	r2, #1
 2081 0cec DCE7     		b	.L58
 2082              	.L264:
 2083 0cee 4022     		movs	r2, #64
 2084 0cf0 DAE7     		b	.L58
 2085              	.L265:
 2086 0cf2 4022     		movs	r2, #64
 2087 0cf4 D8E7     		b	.L58
 2088              	.L266:
 2089 0cf6 4022     		movs	r2, #64
 2090 0cf8 D6E7     		b	.L58
 2091              	.L267:
 2092 0cfa 4022     		movs	r2, #64
 2093 0cfc D4E7     		b	.L58
 2094              	.L268:
 2095 0cfe 4FF48032 		mov	r2, #65536
 2096 0d02 D1E7     		b	.L58
 2097              	.L269:
 2098 0d04 4FF48032 		mov	r2, #65536
 2099 0d08 CEE7     		b	.L58
 2100              	.L270:
 2101 0d0a 4FF48032 		mov	r2, #65536
 2102 0d0e CBE7     		b	.L58
 2103              	.L57:
 200:/home/christoschristoforou/STM32Cube/Repository/STM32Cube_FW_F4_V1.27.0/Drivers/STM32F4xx_HAL_Driver/Src/stm32f4xx_hal_dma_ex.c **** 
ARM GAS  /tmp/cctZJEWc.s 			page 50


 2104              		.loc 1 200 5 discriminator 2 view .LVU398
 2105 0d10 764A     		ldr	r2, .L341+12
 2106 0d12 9342     		cmp	r3, r2
 2107 0d14 4FD9     		bls	.L60
 200:/home/christoschristoforou/STM32Cube/Repository/STM32Cube_FW_F4_V1.27.0/Drivers/STM32F4xx_HAL_Driver/Src/stm32f4xx_hal_dma_ex.c **** 
 2108              		.loc 1 200 5 discriminator 51 view .LVU399
 2109 0d16 A83A     		subs	r2, r2, #168
 2110 0d18 9342     		cmp	r3, r2
 2111 0d1a 31D0     		beq	.L272
 200:/home/christoschristoforou/STM32Cube/Repository/STM32Cube_FW_F4_V1.27.0/Drivers/STM32F4xx_HAL_Driver/Src/stm32f4xx_hal_dma_ex.c **** 
 2112              		.loc 1 200 5 discriminator 53 view .LVU400
 2113 0d1c 02F58062 		add	r2, r2, #1024
 2114 0d20 9342     		cmp	r3, r2
 2115 0d22 31D0     		beq	.L273
 200:/home/christoschristoforou/STM32Cube/Repository/STM32Cube_FW_F4_V1.27.0/Drivers/STM32F4xx_HAL_Driver/Src/stm32f4xx_hal_dma_ex.c **** 
 2116              		.loc 1 200 5 discriminator 55 view .LVU401
 2117 0d24 A2F56872 		sub	r2, r2, #928
 2118 0d28 9342     		cmp	r3, r2
 2119 0d2a 2FD0     		beq	.L274
 200:/home/christoschristoforou/STM32Cube/Repository/STM32Cube_FW_F4_V1.27.0/Drivers/STM32F4xx_HAL_Driver/Src/stm32f4xx_hal_dma_ex.c **** 
 2120              		.loc 1 200 5 discriminator 57 view .LVU402
 2121 0d2c 02F58062 		add	r2, r2, #1024
 2122 0d30 9342     		cmp	r3, r2
 2123 0d32 2DD0     		beq	.L275
 200:/home/christoschristoforou/STM32Cube/Repository/STM32Cube_FW_F4_V1.27.0/Drivers/STM32F4xx_HAL_Driver/Src/stm32f4xx_hal_dma_ex.c **** 
 2124              		.loc 1 200 5 discriminator 59 view .LVU403
 2125 0d34 A2F58962 		sub	r2, r2, #1096
 2126 0d38 9342     		cmp	r3, r2
 2127 0d3a 2BD0     		beq	.L276
 200:/home/christoschristoforou/STM32Cube/Repository/STM32Cube_FW_F4_V1.27.0/Drivers/STM32F4xx_HAL_Driver/Src/stm32f4xx_hal_dma_ex.c **** 
 2128              		.loc 1 200 5 discriminator 61 view .LVU404
 2129 0d3c 02F58062 		add	r2, r2, #1024
 2130 0d40 9342     		cmp	r3, r2
 2131 0d42 29D0     		beq	.L277
 200:/home/christoschristoforou/STM32Cube/Repository/STM32Cube_FW_F4_V1.27.0/Drivers/STM32F4xx_HAL_Driver/Src/stm32f4xx_hal_dma_ex.c **** 
 2132              		.loc 1 200 5 discriminator 63 view .LVU405
 2133 0d44 A2F56872 		sub	r2, r2, #928
 2134 0d48 9342     		cmp	r3, r2
 2135 0d4a 27D0     		beq	.L278
 200:/home/christoschristoforou/STM32Cube/Repository/STM32Cube_FW_F4_V1.27.0/Drivers/STM32F4xx_HAL_Driver/Src/stm32f4xx_hal_dma_ex.c **** 
 2136              		.loc 1 200 5 discriminator 65 view .LVU406
 2137 0d4c 02F58062 		add	r2, r2, #1024
 2138 0d50 9342     		cmp	r3, r2
 2139 0d52 25D0     		beq	.L279
 200:/home/christoschristoforou/STM32Cube/Repository/STM32Cube_FW_F4_V1.27.0/Drivers/STM32F4xx_HAL_Driver/Src/stm32f4xx_hal_dma_ex.c **** 
 2140              		.loc 1 200 5 discriminator 67 view .LVU407
 2141 0d54 A2F58962 		sub	r2, r2, #1096
 2142 0d58 9342     		cmp	r3, r2
 2143 0d5a 23D0     		beq	.L280
 200:/home/christoschristoforou/STM32Cube/Repository/STM32Cube_FW_F4_V1.27.0/Drivers/STM32F4xx_HAL_Driver/Src/stm32f4xx_hal_dma_ex.c **** 
 2144              		.loc 1 200 5 discriminator 69 view .LVU408
 2145 0d5c 02F58062 		add	r2, r2, #1024
 2146 0d60 9342     		cmp	r3, r2
 2147 0d62 22D0     		beq	.L281
 200:/home/christoschristoforou/STM32Cube/Repository/STM32Cube_FW_F4_V1.27.0/Drivers/STM32F4xx_HAL_Driver/Src/stm32f4xx_hal_dma_ex.c **** 
 2148              		.loc 1 200 5 discriminator 71 view .LVU409
 2149 0d64 A2F56872 		sub	r2, r2, #928
ARM GAS  /tmp/cctZJEWc.s 			page 51


 2150 0d68 9342     		cmp	r3, r2
 2151 0d6a 21D0     		beq	.L282
 200:/home/christoschristoforou/STM32Cube/Repository/STM32Cube_FW_F4_V1.27.0/Drivers/STM32F4xx_HAL_Driver/Src/stm32f4xx_hal_dma_ex.c **** 
 2152              		.loc 1 200 5 discriminator 73 view .LVU410
 2153 0d6c 02F58062 		add	r2, r2, #1024
 2154 0d70 9342     		cmp	r3, r2
 2155 0d72 02D0     		beq	.L330
 200:/home/christoschristoforou/STM32Cube/Repository/STM32Cube_FW_F4_V1.27.0/Drivers/STM32F4xx_HAL_Driver/Src/stm32f4xx_hal_dma_ex.c **** 
 2156              		.loc 1 200 5 view .LVU411
 2157 0d74 4FF48003 		mov	r3, #4194304
 2158 0d78 03E0     		b	.L61
 2159              	.L330:
 2160 0d7a 4FF48033 		mov	r3, #65536
 2161 0d7e 00E0     		b	.L61
 2162              	.L272:
 2163 0d80 0123     		movs	r3, #1
 2164              	.L61:
 200:/home/christoschristoforou/STM32Cube/Repository/STM32Cube_FW_F4_V1.27.0/Drivers/STM32F4xx_HAL_Driver/Src/stm32f4xx_hal_dma_ex.c **** 
 2165              		.loc 1 200 5 discriminator 100 view .LVU412
 2166 0d82 594A     		ldr	r2, .L341+8
 2167 0d84 9360     		str	r3, [r2, #8]
 2168 0d86 91E7     		b	.L59
 2169              	.L273:
 200:/home/christoschristoforou/STM32Cube/Repository/STM32Cube_FW_F4_V1.27.0/Drivers/STM32F4xx_HAL_Driver/Src/stm32f4xx_hal_dma_ex.c **** 
 2170              		.loc 1 200 5 view .LVU413
 2171 0d88 0123     		movs	r3, #1
 2172 0d8a FAE7     		b	.L61
 2173              	.L274:
 2174 0d8c 0123     		movs	r3, #1
 2175 0d8e F8E7     		b	.L61
 2176              	.L275:
 2177 0d90 0123     		movs	r3, #1
 2178 0d92 F6E7     		b	.L61
 2179              	.L276:
 2180 0d94 4023     		movs	r3, #64
 2181 0d96 F4E7     		b	.L61
 2182              	.L277:
 2183 0d98 4023     		movs	r3, #64
 2184 0d9a F2E7     		b	.L61
 2185              	.L278:
 2186 0d9c 4023     		movs	r3, #64
 2187 0d9e F0E7     		b	.L61
 2188              	.L279:
 2189 0da0 4023     		movs	r3, #64
 2190 0da2 EEE7     		b	.L61
 2191              	.L280:
 2192 0da4 4FF48033 		mov	r3, #65536
 2193 0da8 EBE7     		b	.L61
 2194              	.L281:
 2195 0daa 4FF48033 		mov	r3, #65536
 2196 0dae E8E7     		b	.L61
 2197              	.L282:
 2198 0db0 4FF48033 		mov	r3, #65536
 2199 0db4 E5E7     		b	.L61
 2200              	.L60:
 200:/home/christoschristoforou/STM32Cube/Repository/STM32Cube_FW_F4_V1.27.0/Drivers/STM32F4xx_HAL_Driver/Src/stm32f4xx_hal_dma_ex.c **** 
 2201              		.loc 1 200 5 discriminator 52 view .LVU414
ARM GAS  /tmp/cctZJEWc.s 			page 52


 2202 0db6 4E4A     		ldr	r2, .L341+16
 2203 0db8 9342     		cmp	r3, r2
 2204 0dba 4FD9     		bls	.L62
 200:/home/christoschristoforou/STM32Cube/Repository/STM32Cube_FW_F4_V1.27.0/Drivers/STM32F4xx_HAL_Driver/Src/stm32f4xx_hal_dma_ex.c **** 
 2205              		.loc 1 200 5 discriminator 102 view .LVU415
 2206 0dbc 483A     		subs	r2, r2, #72
 2207 0dbe 9342     		cmp	r3, r2
 2208 0dc0 31D0     		beq	.L284
 200:/home/christoschristoforou/STM32Cube/Repository/STM32Cube_FW_F4_V1.27.0/Drivers/STM32F4xx_HAL_Driver/Src/stm32f4xx_hal_dma_ex.c **** 
 2209              		.loc 1 200 5 discriminator 104 view .LVU416
 2210 0dc2 02F58062 		add	r2, r2, #1024
 2211 0dc6 9342     		cmp	r3, r2
 2212 0dc8 31D0     		beq	.L285
 200:/home/christoschristoforou/STM32Cube/Repository/STM32Cube_FW_F4_V1.27.0/Drivers/STM32F4xx_HAL_Driver/Src/stm32f4xx_hal_dma_ex.c **** 
 2213              		.loc 1 200 5 discriminator 106 view .LVU417
 2214 0dca A2F56872 		sub	r2, r2, #928
 2215 0dce 9342     		cmp	r3, r2
 2216 0dd0 2FD0     		beq	.L286
 200:/home/christoschristoforou/STM32Cube/Repository/STM32Cube_FW_F4_V1.27.0/Drivers/STM32F4xx_HAL_Driver/Src/stm32f4xx_hal_dma_ex.c **** 
 2217              		.loc 1 200 5 discriminator 108 view .LVU418
 2218 0dd2 02F58062 		add	r2, r2, #1024
 2219 0dd6 9342     		cmp	r3, r2
 2220 0dd8 2DD0     		beq	.L287
 200:/home/christoschristoforou/STM32Cube/Repository/STM32Cube_FW_F4_V1.27.0/Drivers/STM32F4xx_HAL_Driver/Src/stm32f4xx_hal_dma_ex.c **** 
 2221              		.loc 1 200 5 discriminator 110 view .LVU419
 2222 0dda A2F58962 		sub	r2, r2, #1096
 2223 0dde 9342     		cmp	r3, r2
 2224 0de0 2BD0     		beq	.L288
 200:/home/christoschristoforou/STM32Cube/Repository/STM32Cube_FW_F4_V1.27.0/Drivers/STM32F4xx_HAL_Driver/Src/stm32f4xx_hal_dma_ex.c **** 
 2225              		.loc 1 200 5 discriminator 112 view .LVU420
 2226 0de2 02F58062 		add	r2, r2, #1024
 2227 0de6 9342     		cmp	r3, r2
 2228 0de8 29D0     		beq	.L289
 200:/home/christoschristoforou/STM32Cube/Repository/STM32Cube_FW_F4_V1.27.0/Drivers/STM32F4xx_HAL_Driver/Src/stm32f4xx_hal_dma_ex.c **** 
 2229              		.loc 1 200 5 discriminator 114 view .LVU421
 2230 0dea A2F56872 		sub	r2, r2, #928
 2231 0dee 9342     		cmp	r3, r2
 2232 0df0 27D0     		beq	.L290
 200:/home/christoschristoforou/STM32Cube/Repository/STM32Cube_FW_F4_V1.27.0/Drivers/STM32F4xx_HAL_Driver/Src/stm32f4xx_hal_dma_ex.c **** 
 2233              		.loc 1 200 5 discriminator 116 view .LVU422
 2234 0df2 02F58062 		add	r2, r2, #1024
 2235 0df6 9342     		cmp	r3, r2
 2236 0df8 25D0     		beq	.L291
 200:/home/christoschristoforou/STM32Cube/Repository/STM32Cube_FW_F4_V1.27.0/Drivers/STM32F4xx_HAL_Driver/Src/stm32f4xx_hal_dma_ex.c **** 
 2237              		.loc 1 200 5 discriminator 118 view .LVU423
 2238 0dfa A2F58962 		sub	r2, r2, #1096
 2239 0dfe 9342     		cmp	r3, r2
 2240 0e00 23D0     		beq	.L292
 200:/home/christoschristoforou/STM32Cube/Repository/STM32Cube_FW_F4_V1.27.0/Drivers/STM32F4xx_HAL_Driver/Src/stm32f4xx_hal_dma_ex.c **** 
 2241              		.loc 1 200 5 discriminator 120 view .LVU424
 2242 0e02 02F58062 		add	r2, r2, #1024
 2243 0e06 9342     		cmp	r3, r2
 2244 0e08 22D0     		beq	.L293
 200:/home/christoschristoforou/STM32Cube/Repository/STM32Cube_FW_F4_V1.27.0/Drivers/STM32F4xx_HAL_Driver/Src/stm32f4xx_hal_dma_ex.c **** 
 2245              		.loc 1 200 5 discriminator 122 view .LVU425
 2246 0e0a A2F56872 		sub	r2, r2, #928
 2247 0e0e 9342     		cmp	r3, r2
ARM GAS  /tmp/cctZJEWc.s 			page 53


 2248 0e10 21D0     		beq	.L294
 200:/home/christoschristoforou/STM32Cube/Repository/STM32Cube_FW_F4_V1.27.0/Drivers/STM32F4xx_HAL_Driver/Src/stm32f4xx_hal_dma_ex.c **** 
 2249              		.loc 1 200 5 discriminator 124 view .LVU426
 2250 0e12 02F58062 		add	r2, r2, #1024
 2251 0e16 9342     		cmp	r3, r2
 2252 0e18 02D0     		beq	.L331
 200:/home/christoschristoforou/STM32Cube/Repository/STM32Cube_FW_F4_V1.27.0/Drivers/STM32F4xx_HAL_Driver/Src/stm32f4xx_hal_dma_ex.c **** 
 2253              		.loc 1 200 5 view .LVU427
 2254 0e1a 4FF48003 		mov	r3, #4194304
 2255 0e1e 03E0     		b	.L63
 2256              	.L331:
 2257 0e20 4FF48033 		mov	r3, #65536
 2258 0e24 00E0     		b	.L63
 2259              	.L284:
 2260 0e26 0123     		movs	r3, #1
 2261              	.L63:
 200:/home/christoschristoforou/STM32Cube/Repository/STM32Cube_FW_F4_V1.27.0/Drivers/STM32F4xx_HAL_Driver/Src/stm32f4xx_hal_dma_ex.c **** 
 2262              		.loc 1 200 5 discriminator 151 view .LVU428
 2263 0e28 2E4A     		ldr	r2, .L341+4
 2264 0e2a D360     		str	r3, [r2, #12]
 2265 0e2c 3EE7     		b	.L59
 2266              	.L285:
 200:/home/christoschristoforou/STM32Cube/Repository/STM32Cube_FW_F4_V1.27.0/Drivers/STM32F4xx_HAL_Driver/Src/stm32f4xx_hal_dma_ex.c **** 
 2267              		.loc 1 200 5 view .LVU429
 2268 0e2e 0123     		movs	r3, #1
 2269 0e30 FAE7     		b	.L63
 2270              	.L286:
 2271 0e32 0123     		movs	r3, #1
 2272 0e34 F8E7     		b	.L63
 2273              	.L287:
 2274 0e36 0123     		movs	r3, #1
 2275 0e38 F6E7     		b	.L63
 2276              	.L288:
 2277 0e3a 4023     		movs	r3, #64
 2278 0e3c F4E7     		b	.L63
 2279              	.L289:
 2280 0e3e 4023     		movs	r3, #64
 2281 0e40 F2E7     		b	.L63
 2282              	.L290:
 2283 0e42 4023     		movs	r3, #64
 2284 0e44 F0E7     		b	.L63
 2285              	.L291:
 2286 0e46 4023     		movs	r3, #64
 2287 0e48 EEE7     		b	.L63
 2288              	.L292:
 2289 0e4a 4FF48033 		mov	r3, #65536
 2290 0e4e EBE7     		b	.L63
 2291              	.L293:
 2292 0e50 4FF48033 		mov	r3, #65536
 2293 0e54 E8E7     		b	.L63
 2294              	.L294:
 2295 0e56 4FF48033 		mov	r3, #65536
 2296 0e5a E5E7     		b	.L63
 2297              	.L62:
 200:/home/christoschristoforou/STM32Cube/Repository/STM32Cube_FW_F4_V1.27.0/Drivers/STM32F4xx_HAL_Driver/Src/stm32f4xx_hal_dma_ex.c **** 
 2298              		.loc 1 200 5 discriminator 103 view .LVU430
 2299 0e5c 204A     		ldr	r2, .L341
ARM GAS  /tmp/cctZJEWc.s 			page 54


 2300 0e5e 9342     		cmp	r3, r2
 2301 0e60 31D0     		beq	.L296
 200:/home/christoschristoforou/STM32Cube/Repository/STM32Cube_FW_F4_V1.27.0/Drivers/STM32F4xx_HAL_Driver/Src/stm32f4xx_hal_dma_ex.c **** 
 2302              		.loc 1 200 5 discriminator 153 view .LVU431
 2303 0e62 02F58062 		add	r2, r2, #1024
 2304 0e66 9342     		cmp	r3, r2
 2305 0e68 31D0     		beq	.L297
 200:/home/christoschristoforou/STM32Cube/Repository/STM32Cube_FW_F4_V1.27.0/Drivers/STM32F4xx_HAL_Driver/Src/stm32f4xx_hal_dma_ex.c **** 
 2306              		.loc 1 200 5 discriminator 155 view .LVU432
 2307 0e6a A2F56872 		sub	r2, r2, #928
 2308 0e6e 9342     		cmp	r3, r2
 2309 0e70 2FD0     		beq	.L298
 200:/home/christoschristoforou/STM32Cube/Repository/STM32Cube_FW_F4_V1.27.0/Drivers/STM32F4xx_HAL_Driver/Src/stm32f4xx_hal_dma_ex.c **** 
 2310              		.loc 1 200 5 discriminator 157 view .LVU433
 2311 0e72 02F58062 		add	r2, r2, #1024
 2312 0e76 9342     		cmp	r3, r2
 2313 0e78 2DD0     		beq	.L299
 200:/home/christoschristoforou/STM32Cube/Repository/STM32Cube_FW_F4_V1.27.0/Drivers/STM32F4xx_HAL_Driver/Src/stm32f4xx_hal_dma_ex.c **** 
 2314              		.loc 1 200 5 discriminator 159 view .LVU434
 2315 0e7a A2F58962 		sub	r2, r2, #1096
 2316 0e7e 9342     		cmp	r3, r2
 2317 0e80 2BD0     		beq	.L300
 200:/home/christoschristoforou/STM32Cube/Repository/STM32Cube_FW_F4_V1.27.0/Drivers/STM32F4xx_HAL_Driver/Src/stm32f4xx_hal_dma_ex.c **** 
 2318              		.loc 1 200 5 discriminator 161 view .LVU435
 2319 0e82 02F58062 		add	r2, r2, #1024
 2320 0e86 9342     		cmp	r3, r2
 2321 0e88 34D0     		beq	.L301
 200:/home/christoschristoforou/STM32Cube/Repository/STM32Cube_FW_F4_V1.27.0/Drivers/STM32F4xx_HAL_Driver/Src/stm32f4xx_hal_dma_ex.c **** 
 2322              		.loc 1 200 5 discriminator 163 view .LVU436
 2323 0e8a A2F56872 		sub	r2, r2, #928
 2324 0e8e 9342     		cmp	r3, r2
 2325 0e90 32D0     		beq	.L302
 200:/home/christoschristoforou/STM32Cube/Repository/STM32Cube_FW_F4_V1.27.0/Drivers/STM32F4xx_HAL_Driver/Src/stm32f4xx_hal_dma_ex.c **** 
 2326              		.loc 1 200 5 discriminator 165 view .LVU437
 2327 0e92 02F58062 		add	r2, r2, #1024
 2328 0e96 9342     		cmp	r3, r2
 2329 0e98 30D0     		beq	.L303
 200:/home/christoschristoforou/STM32Cube/Repository/STM32Cube_FW_F4_V1.27.0/Drivers/STM32F4xx_HAL_Driver/Src/stm32f4xx_hal_dma_ex.c **** 
 2330              		.loc 1 200 5 discriminator 167 view .LVU438
 2331 0e9a A2F58962 		sub	r2, r2, #1096
 2332 0e9e 9342     		cmp	r3, r2
 2333 0ea0 2ED0     		beq	.L304
 200:/home/christoschristoforou/STM32Cube/Repository/STM32Cube_FW_F4_V1.27.0/Drivers/STM32F4xx_HAL_Driver/Src/stm32f4xx_hal_dma_ex.c **** 
 2334              		.loc 1 200 5 discriminator 169 view .LVU439
 2335 0ea2 02F58062 		add	r2, r2, #1024
 2336 0ea6 9342     		cmp	r3, r2
 2337 0ea8 2DD0     		beq	.L305
 200:/home/christoschristoforou/STM32Cube/Repository/STM32Cube_FW_F4_V1.27.0/Drivers/STM32F4xx_HAL_Driver/Src/stm32f4xx_hal_dma_ex.c **** 
 2338              		.loc 1 200 5 discriminator 171 view .LVU440
 2339 0eaa A2F56872 		sub	r2, r2, #928
 2340 0eae 9342     		cmp	r3, r2
 2341 0eb0 2CD0     		beq	.L306
 200:/home/christoschristoforou/STM32Cube/Repository/STM32Cube_FW_F4_V1.27.0/Drivers/STM32F4xx_HAL_Driver/Src/stm32f4xx_hal_dma_ex.c **** 
 2342              		.loc 1 200 5 discriminator 173 view .LVU441
 2343 0eb2 02F58062 		add	r2, r2, #1024
 2344 0eb6 9342     		cmp	r3, r2
 2345 0eb8 02D0     		beq	.L332
ARM GAS  /tmp/cctZJEWc.s 			page 55


 200:/home/christoschristoforou/STM32Cube/Repository/STM32Cube_FW_F4_V1.27.0/Drivers/STM32F4xx_HAL_Driver/Src/stm32f4xx_hal_dma_ex.c **** 
 2346              		.loc 1 200 5 view .LVU442
 2347 0eba 4FF48003 		mov	r3, #4194304
 2348 0ebe 03E0     		b	.L64
 2349              	.L332:
 2350 0ec0 4FF48033 		mov	r3, #65536
 2351 0ec4 00E0     		b	.L64
 2352              	.L296:
 2353 0ec6 0123     		movs	r3, #1
 2354              	.L64:
 200:/home/christoschristoforou/STM32Cube/Repository/STM32Cube_FW_F4_V1.27.0/Drivers/STM32F4xx_HAL_Driver/Src/stm32f4xx_hal_dma_ex.c **** 
 2355              		.loc 1 200 5 discriminator 200 view .LVU443
 2356 0ec8 064A     		ldr	r2, .L341+4
 2357 0eca 9360     		str	r3, [r2, #8]
 2358 0ecc EEE6     		b	.L59
 2359              	.L297:
 200:/home/christoschristoforou/STM32Cube/Repository/STM32Cube_FW_F4_V1.27.0/Drivers/STM32F4xx_HAL_Driver/Src/stm32f4xx_hal_dma_ex.c **** 
 2360              		.loc 1 200 5 view .LVU444
 2361 0ece 0123     		movs	r3, #1
 2362 0ed0 FAE7     		b	.L64
 2363              	.L298:
 2364 0ed2 0123     		movs	r3, #1
 2365 0ed4 F8E7     		b	.L64
 2366              	.L299:
 2367 0ed6 0123     		movs	r3, #1
 2368 0ed8 F6E7     		b	.L64
 2369              	.L300:
 2370 0eda 4023     		movs	r3, #64
 2371 0edc F4E7     		b	.L64
 2372              	.L342:
 2373 0ede 00BF     		.align	2
 2374              	.L341:
 2375 0ee0 10600240 		.word	1073897488
 2376 0ee4 00600240 		.word	1073897472
 2377 0ee8 00640240 		.word	1073898496
 2378 0eec B8600240 		.word	1073897656
 2379 0ef0 58600240 		.word	1073897560
 2380              	.L301:
 2381 0ef4 4023     		movs	r3, #64
 2382 0ef6 E7E7     		b	.L64
 2383              	.L302:
 2384 0ef8 4023     		movs	r3, #64
 2385 0efa E5E7     		b	.L64
 2386              	.L303:
 2387 0efc 4023     		movs	r3, #64
 2388 0efe E3E7     		b	.L64
 2389              	.L304:
 2390 0f00 4FF48033 		mov	r3, #65536
 2391 0f04 E0E7     		b	.L64
 2392              	.L305:
 2393 0f06 4FF48033 		mov	r3, #65536
 2394 0f0a DDE7     		b	.L64
 2395              	.L306:
 2396 0f0c 4FF48033 		mov	r3, #65536
 2397 0f10 DAE7     		b	.L64
 2398              	.L329:
 206:/home/christoschristoforou/STM32Cube/Repository/STM32Cube_FW_F4_V1.27.0/Drivers/STM32F4xx_HAL_Driver/Src/stm32f4xx_hal_dma_ex.c ****     {
ARM GAS  /tmp/cctZJEWc.s 			page 56


 2399              		.loc 1 206 53 discriminator 1 view .LVU445
 2400 0f12 A36C     		ldr	r3, [r4, #72]
 206:/home/christoschristoforou/STM32Cube/Repository/STM32Cube_FW_F4_V1.27.0/Drivers/STM32F4xx_HAL_Driver/Src/stm32f4xx_hal_dma_ex.c ****     {
 2401              		.loc 1 206 45 discriminator 1 view .LVU446
 2402 0f14 002B     		cmp	r3, #0
 2403 0f16 7FF4D7AE 		bne	.L65
 2404 0f1a DAE6     		b	.L66
 2405              	.LVL39:
 2406              	.L67:
 176:/home/christoschristoforou/STM32Cube/Repository/STM32Cube_FW_F4_V1.27.0/Drivers/STM32F4xx_HAL_Driver/Src/stm32f4xx_hal_dma_ex.c ****   
 2407              		.loc 1 176 3 view .LVU447
 2408 0f1c 0220     		movs	r0, #2
 2409 0f1e FFF7A3B8 		b	.L21
 2410              		.cfi_endproc
 2411              	.LFE131:
 2413 0f22 00BF     		.section	.text.HAL_DMAEx_ChangeMemory,"ax",%progbits
 2414              		.align	1
 2415              		.global	HAL_DMAEx_ChangeMemory
 2416              		.syntax unified
 2417              		.thumb
 2418              		.thumb_func
 2419              		.fpu fpv4-sp-d16
 2421              	HAL_DMAEx_ChangeMemory:
 2422              	.LVL40:
 2423              	.LFB132:
 240:/home/christoschristoforou/STM32Cube/Repository/STM32Cube_FW_F4_V1.27.0/Drivers/STM32F4xx_HAL_Driver/Src/stm32f4xx_hal_dma_ex.c ****   if(memory == MEMORY0)
 2424              		.loc 1 240 1 is_stmt 1 view -0
 2425              		.cfi_startproc
 2426              		@ args = 0, pretend = 0, frame = 0
 2427              		@ frame_needed = 0, uses_anonymous_args = 0
 2428              		@ link register save eliminated.
 241:/home/christoschristoforou/STM32Cube/Repository/STM32Cube_FW_F4_V1.27.0/Drivers/STM32F4xx_HAL_Driver/Src/stm32f4xx_hal_dma_ex.c ****   {
 2429              		.loc 1 241 3 view .LVU449
 241:/home/christoschristoforou/STM32Cube/Repository/STM32Cube_FW_F4_V1.27.0/Drivers/STM32F4xx_HAL_Driver/Src/stm32f4xx_hal_dma_ex.c ****   {
 2430              		.loc 1 241 5 is_stmt 0 view .LVU450
 2431 0000 1AB9     		cbnz	r2, .L344
 244:/home/christoschristoforou/STM32Cube/Repository/STM32Cube_FW_F4_V1.27.0/Drivers/STM32F4xx_HAL_Driver/Src/stm32f4xx_hal_dma_ex.c ****   }
 2432              		.loc 1 244 5 is_stmt 1 view .LVU451
 244:/home/christoschristoforou/STM32Cube/Repository/STM32Cube_FW_F4_V1.27.0/Drivers/STM32F4xx_HAL_Driver/Src/stm32f4xx_hal_dma_ex.c ****   }
 2433              		.loc 1 244 9 is_stmt 0 view .LVU452
 2434 0002 0368     		ldr	r3, [r0]
 244:/home/christoschristoforou/STM32Cube/Repository/STM32Cube_FW_F4_V1.27.0/Drivers/STM32F4xx_HAL_Driver/Src/stm32f4xx_hal_dma_ex.c ****   }
 2435              		.loc 1 244 26 view .LVU453
 2436 0004 D960     		str	r1, [r3, #12]
 2437              	.L345:
 252:/home/christoschristoforou/STM32Cube/Repository/STM32Cube_FW_F4_V1.27.0/Drivers/STM32F4xx_HAL_Driver/Src/stm32f4xx_hal_dma_ex.c **** }
 2438              		.loc 1 252 3 is_stmt 1 view .LVU454
 253:/home/christoschristoforou/STM32Cube/Repository/STM32Cube_FW_F4_V1.27.0/Drivers/STM32F4xx_HAL_Driver/Src/stm32f4xx_hal_dma_ex.c **** 
 2439              		.loc 1 253 1 is_stmt 0 view .LVU455
 2440 0006 0020     		movs	r0, #0
 2441              	.LVL41:
 253:/home/christoschristoforou/STM32Cube/Repository/STM32Cube_FW_F4_V1.27.0/Drivers/STM32F4xx_HAL_Driver/Src/stm32f4xx_hal_dma_ex.c **** 
 2442              		.loc 1 253 1 view .LVU456
 2443 0008 7047     		bx	lr
 2444              	.LVL42:
 2445              	.L344:
 249:/home/christoschristoforou/STM32Cube/Repository/STM32Cube_FW_F4_V1.27.0/Drivers/STM32F4xx_HAL_Driver/Src/stm32f4xx_hal_dma_ex.c ****   }
ARM GAS  /tmp/cctZJEWc.s 			page 57


 2446              		.loc 1 249 5 is_stmt 1 view .LVU457
 249:/home/christoschristoforou/STM32Cube/Repository/STM32Cube_FW_F4_V1.27.0/Drivers/STM32F4xx_HAL_Driver/Src/stm32f4xx_hal_dma_ex.c ****   }
 2447              		.loc 1 249 9 is_stmt 0 view .LVU458
 2448 000a 0368     		ldr	r3, [r0]
 249:/home/christoschristoforou/STM32Cube/Repository/STM32Cube_FW_F4_V1.27.0/Drivers/STM32F4xx_HAL_Driver/Src/stm32f4xx_hal_dma_ex.c ****   }
 2449              		.loc 1 249 26 view .LVU459
 2450 000c 1961     		str	r1, [r3, #16]
 2451 000e FAE7     		b	.L345
 2452              		.cfi_endproc
 2453              	.LFE132:
 2455              		.text
 2456              	.Letext0:
 2457              		.file 2 "/usr/lib/gcc/arm-none-eabi/9.2.1/include/stdint.h"
 2458              		.file 3 "/home/christoschristoforou/STM32Cube/Repository/STM32Cube_FW_F4_V1.27.0/Drivers/CMSIS/Inc
 2459              		.file 4 "/home/christoschristoforou/STM32Cube/Repository/STM32Cube_FW_F4_V1.27.0/Drivers/CMSIS/Dev
 2460              		.file 5 "/home/christoschristoforou/STM32Cube/Repository/STM32Cube_FW_F4_V1.27.0/Drivers/CMSIS/Dev
 2461              		.file 6 "/home/christoschristoforou/STM32Cube/Repository/STM32Cube_FW_F4_V1.27.0/Drivers/STM32F4xx
 2462              		.file 7 "/home/christoschristoforou/STM32Cube/Repository/STM32Cube_FW_F4_V1.27.0/Drivers/STM32F4xx
 2463              		.file 8 "/home/christoschristoforou/STM32Cube/Repository/STM32Cube_FW_F4_V1.27.0/Drivers/STM32F4xx
 2464              		.file 9 "/home/christoschristoforou/STM32Cube/Repository/STM32Cube_FW_F4_V1.27.0/Drivers/STM32F4xx
 2465              		.file 10 "Core/Inc/stm32f4xx_hal_conf.h"
ARM GAS  /tmp/cctZJEWc.s 			page 58

