ARM GAS  /tmp/ccbai6tv.s 			page 1


   1              		.cpu cortex-m4
   2              		.eabi_attribute 27, 1
   3              		.eabi_attribute 28, 1
   4              		.eabi_attribute 20, 1
   5              		.eabi_attribute 21, 1
   6              		.eabi_attribute 23, 3
   7              		.eabi_attribute 24, 1
   8              		.eabi_attribute 25, 1
   9              		.eabi_attribute 26, 1
  10              		.eabi_attribute 30, 1
  11              		.eabi_attribute 34, 1
  12              		.eabi_attribute 18, 4
  13              		.file	"stm32f4xx_hal_rcc_ex.c"
  14              		.text
  15              	.Ltext0:
  16              		.cfi_sections	.debug_frame
  17              		.section	.rodata.HAL_RCCEx_PeriphCLKConfig.str1.4,"aMS",%progbits,1
  18              		.align	2
  19              	.LC0:
  20 0000 2F686F6D 		.ascii	"/home/christoschristoforou/STM32Cube/Repository/STM"
  20      652F6368 
  20      72697374 
  20      6F736368 
  20      72697374 
  21 0033 33324375 		.ascii	"32Cube_FW_F4_V1.27.0/Drivers/STM32F4xx_HAL_Driver/S"
  21      62655F46 
  21      575F4634 
  21      5F56312E 
  21      32372E30 
  22 0066 72632F73 		.ascii	"rc/stm32f4xx_hal_rcc_ex.c\000"
  22      746D3332 
  22      66347878 
  22      5F68616C 
  22      5F726363 
  23              		.section	.text.HAL_RCCEx_PeriphCLKConfig,"ax",%progbits
  24              		.align	1
  25              		.global	HAL_RCCEx_PeriphCLKConfig
  26              		.arch armv7e-m
  27              		.syntax unified
  28              		.thumb
  29              		.thumb_func
  30              		.fpu fpv4-sp-d16
  32              	HAL_RCCEx_PeriphCLKConfig:
  33              	.LVL0:
  34              	.LFB130:
  35              		.file 1 "/home/christoschristoforou/STM32Cube/Repository/STM32Cube_FW_F4_V1.27.0/Drivers/STM32F4xx
   1:/home/christoschristoforou/STM32Cube/Repository/STM32Cube_FW_F4_V1.27.0/Drivers/STM32F4xx_HAL_Driver/Src/stm32f4xx_hal_rcc_ex.c **** /**
   2:/home/christoschristoforou/STM32Cube/Repository/STM32Cube_FW_F4_V1.27.0/Drivers/STM32F4xx_HAL_Driver/Src/stm32f4xx_hal_rcc_ex.c ****   ******************************************************************************
   3:/home/christoschristoforou/STM32Cube/Repository/STM32Cube_FW_F4_V1.27.0/Drivers/STM32F4xx_HAL_Driver/Src/stm32f4xx_hal_rcc_ex.c ****   * @file    stm32f4xx_hal_rcc_ex.c
   4:/home/christoschristoforou/STM32Cube/Repository/STM32Cube_FW_F4_V1.27.0/Drivers/STM32F4xx_HAL_Driver/Src/stm32f4xx_hal_rcc_ex.c ****   * @author  MCD Application Team
   5:/home/christoschristoforou/STM32Cube/Repository/STM32Cube_FW_F4_V1.27.0/Drivers/STM32F4xx_HAL_Driver/Src/stm32f4xx_hal_rcc_ex.c ****   * @brief   Extension RCC HAL module driver.
   6:/home/christoschristoforou/STM32Cube/Repository/STM32Cube_FW_F4_V1.27.0/Drivers/STM32F4xx_HAL_Driver/Src/stm32f4xx_hal_rcc_ex.c ****   *          This file provides firmware functions to manage the following
   7:/home/christoschristoforou/STM32Cube/Repository/STM32Cube_FW_F4_V1.27.0/Drivers/STM32F4xx_HAL_Driver/Src/stm32f4xx_hal_rcc_ex.c ****   *          functionalities RCC extension peripheral:
   8:/home/christoschristoforou/STM32Cube/Repository/STM32Cube_FW_F4_V1.27.0/Drivers/STM32F4xx_HAL_Driver/Src/stm32f4xx_hal_rcc_ex.c ****   *           + Extended Peripheral Control functions
   9:/home/christoschristoforou/STM32Cube/Repository/STM32Cube_FW_F4_V1.27.0/Drivers/STM32F4xx_HAL_Driver/Src/stm32f4xx_hal_rcc_ex.c ****   *
  10:/home/christoschristoforou/STM32Cube/Repository/STM32Cube_FW_F4_V1.27.0/Drivers/STM32F4xx_HAL_Driver/Src/stm32f4xx_hal_rcc_ex.c ****   ******************************************************************************
  11:/home/christoschristoforou/STM32Cube/Repository/STM32Cube_FW_F4_V1.27.0/Drivers/STM32F4xx_HAL_Driver/Src/stm32f4xx_hal_rcc_ex.c ****   * @attention
ARM GAS  /tmp/ccbai6tv.s 			page 2


  12:/home/christoschristoforou/STM32Cube/Repository/STM32Cube_FW_F4_V1.27.0/Drivers/STM32F4xx_HAL_Driver/Src/stm32f4xx_hal_rcc_ex.c ****   *
  13:/home/christoschristoforou/STM32Cube/Repository/STM32Cube_FW_F4_V1.27.0/Drivers/STM32F4xx_HAL_Driver/Src/stm32f4xx_hal_rcc_ex.c ****   * Copyright (c) 2017 STMicroelectronics.
  14:/home/christoschristoforou/STM32Cube/Repository/STM32Cube_FW_F4_V1.27.0/Drivers/STM32F4xx_HAL_Driver/Src/stm32f4xx_hal_rcc_ex.c ****   * All rights reserved.
  15:/home/christoschristoforou/STM32Cube/Repository/STM32Cube_FW_F4_V1.27.0/Drivers/STM32F4xx_HAL_Driver/Src/stm32f4xx_hal_rcc_ex.c ****   *
  16:/home/christoschristoforou/STM32Cube/Repository/STM32Cube_FW_F4_V1.27.0/Drivers/STM32F4xx_HAL_Driver/Src/stm32f4xx_hal_rcc_ex.c ****   * This software is licensed under terms that can be found in the LICENSE file in
  17:/home/christoschristoforou/STM32Cube/Repository/STM32Cube_FW_F4_V1.27.0/Drivers/STM32F4xx_HAL_Driver/Src/stm32f4xx_hal_rcc_ex.c ****   * the root directory of this software component.
  18:/home/christoschristoforou/STM32Cube/Repository/STM32Cube_FW_F4_V1.27.0/Drivers/STM32F4xx_HAL_Driver/Src/stm32f4xx_hal_rcc_ex.c ****   * If no LICENSE file comes with this software, it is provided AS-IS.
  19:/home/christoschristoforou/STM32Cube/Repository/STM32Cube_FW_F4_V1.27.0/Drivers/STM32F4xx_HAL_Driver/Src/stm32f4xx_hal_rcc_ex.c ****   ******************************************************************************
  20:/home/christoschristoforou/STM32Cube/Repository/STM32Cube_FW_F4_V1.27.0/Drivers/STM32F4xx_HAL_Driver/Src/stm32f4xx_hal_rcc_ex.c ****   */
  21:/home/christoschristoforou/STM32Cube/Repository/STM32Cube_FW_F4_V1.27.0/Drivers/STM32F4xx_HAL_Driver/Src/stm32f4xx_hal_rcc_ex.c **** 
  22:/home/christoschristoforou/STM32Cube/Repository/STM32Cube_FW_F4_V1.27.0/Drivers/STM32F4xx_HAL_Driver/Src/stm32f4xx_hal_rcc_ex.c **** /* Includes ------------------------------------------------------------------*/
  23:/home/christoschristoforou/STM32Cube/Repository/STM32Cube_FW_F4_V1.27.0/Drivers/STM32F4xx_HAL_Driver/Src/stm32f4xx_hal_rcc_ex.c **** #include "stm32f4xx_hal.h"
  24:/home/christoschristoforou/STM32Cube/Repository/STM32Cube_FW_F4_V1.27.0/Drivers/STM32F4xx_HAL_Driver/Src/stm32f4xx_hal_rcc_ex.c **** 
  25:/home/christoschristoforou/STM32Cube/Repository/STM32Cube_FW_F4_V1.27.0/Drivers/STM32F4xx_HAL_Driver/Src/stm32f4xx_hal_rcc_ex.c **** /** @addtogroup STM32F4xx_HAL_Driver
  26:/home/christoschristoforou/STM32Cube/Repository/STM32Cube_FW_F4_V1.27.0/Drivers/STM32F4xx_HAL_Driver/Src/stm32f4xx_hal_rcc_ex.c ****   * @{
  27:/home/christoschristoforou/STM32Cube/Repository/STM32Cube_FW_F4_V1.27.0/Drivers/STM32F4xx_HAL_Driver/Src/stm32f4xx_hal_rcc_ex.c ****   */
  28:/home/christoschristoforou/STM32Cube/Repository/STM32Cube_FW_F4_V1.27.0/Drivers/STM32F4xx_HAL_Driver/Src/stm32f4xx_hal_rcc_ex.c **** 
  29:/home/christoschristoforou/STM32Cube/Repository/STM32Cube_FW_F4_V1.27.0/Drivers/STM32F4xx_HAL_Driver/Src/stm32f4xx_hal_rcc_ex.c **** /** @defgroup RCCEx RCCEx
  30:/home/christoschristoforou/STM32Cube/Repository/STM32Cube_FW_F4_V1.27.0/Drivers/STM32F4xx_HAL_Driver/Src/stm32f4xx_hal_rcc_ex.c ****   * @brief RCCEx HAL module driver
  31:/home/christoschristoforou/STM32Cube/Repository/STM32Cube_FW_F4_V1.27.0/Drivers/STM32F4xx_HAL_Driver/Src/stm32f4xx_hal_rcc_ex.c ****   * @{
  32:/home/christoschristoforou/STM32Cube/Repository/STM32Cube_FW_F4_V1.27.0/Drivers/STM32F4xx_HAL_Driver/Src/stm32f4xx_hal_rcc_ex.c ****   */
  33:/home/christoschristoforou/STM32Cube/Repository/STM32Cube_FW_F4_V1.27.0/Drivers/STM32F4xx_HAL_Driver/Src/stm32f4xx_hal_rcc_ex.c **** 
  34:/home/christoschristoforou/STM32Cube/Repository/STM32Cube_FW_F4_V1.27.0/Drivers/STM32F4xx_HAL_Driver/Src/stm32f4xx_hal_rcc_ex.c **** #ifdef HAL_RCC_MODULE_ENABLED
  35:/home/christoschristoforou/STM32Cube/Repository/STM32Cube_FW_F4_V1.27.0/Drivers/STM32F4xx_HAL_Driver/Src/stm32f4xx_hal_rcc_ex.c **** 
  36:/home/christoschristoforou/STM32Cube/Repository/STM32Cube_FW_F4_V1.27.0/Drivers/STM32F4xx_HAL_Driver/Src/stm32f4xx_hal_rcc_ex.c **** /* Private typedef -----------------------------------------------------------*/
  37:/home/christoschristoforou/STM32Cube/Repository/STM32Cube_FW_F4_V1.27.0/Drivers/STM32F4xx_HAL_Driver/Src/stm32f4xx_hal_rcc_ex.c **** /* Private define ------------------------------------------------------------*/
  38:/home/christoschristoforou/STM32Cube/Repository/STM32Cube_FW_F4_V1.27.0/Drivers/STM32F4xx_HAL_Driver/Src/stm32f4xx_hal_rcc_ex.c **** /** @addtogroup RCCEx_Private_Constants
  39:/home/christoschristoforou/STM32Cube/Repository/STM32Cube_FW_F4_V1.27.0/Drivers/STM32F4xx_HAL_Driver/Src/stm32f4xx_hal_rcc_ex.c ****   * @{
  40:/home/christoschristoforou/STM32Cube/Repository/STM32Cube_FW_F4_V1.27.0/Drivers/STM32F4xx_HAL_Driver/Src/stm32f4xx_hal_rcc_ex.c ****   */
  41:/home/christoschristoforou/STM32Cube/Repository/STM32Cube_FW_F4_V1.27.0/Drivers/STM32F4xx_HAL_Driver/Src/stm32f4xx_hal_rcc_ex.c **** /**
  42:/home/christoschristoforou/STM32Cube/Repository/STM32Cube_FW_F4_V1.27.0/Drivers/STM32F4xx_HAL_Driver/Src/stm32f4xx_hal_rcc_ex.c ****   * @}
  43:/home/christoschristoforou/STM32Cube/Repository/STM32Cube_FW_F4_V1.27.0/Drivers/STM32F4xx_HAL_Driver/Src/stm32f4xx_hal_rcc_ex.c ****   */
  44:/home/christoschristoforou/STM32Cube/Repository/STM32Cube_FW_F4_V1.27.0/Drivers/STM32F4xx_HAL_Driver/Src/stm32f4xx_hal_rcc_ex.c **** /* Private macro -------------------------------------------------------------*/
  45:/home/christoschristoforou/STM32Cube/Repository/STM32Cube_FW_F4_V1.27.0/Drivers/STM32F4xx_HAL_Driver/Src/stm32f4xx_hal_rcc_ex.c **** /* Private variables ---------------------------------------------------------*/
  46:/home/christoschristoforou/STM32Cube/Repository/STM32Cube_FW_F4_V1.27.0/Drivers/STM32F4xx_HAL_Driver/Src/stm32f4xx_hal_rcc_ex.c **** /* Private function prototypes -----------------------------------------------*/
  47:/home/christoschristoforou/STM32Cube/Repository/STM32Cube_FW_F4_V1.27.0/Drivers/STM32F4xx_HAL_Driver/Src/stm32f4xx_hal_rcc_ex.c **** /* Private functions ---------------------------------------------------------*/
  48:/home/christoschristoforou/STM32Cube/Repository/STM32Cube_FW_F4_V1.27.0/Drivers/STM32F4xx_HAL_Driver/Src/stm32f4xx_hal_rcc_ex.c **** /** @defgroup RCCEx_Exported_Functions RCCEx Exported Functions
  49:/home/christoschristoforou/STM32Cube/Repository/STM32Cube_FW_F4_V1.27.0/Drivers/STM32F4xx_HAL_Driver/Src/stm32f4xx_hal_rcc_ex.c ****   *  @{
  50:/home/christoschristoforou/STM32Cube/Repository/STM32Cube_FW_F4_V1.27.0/Drivers/STM32F4xx_HAL_Driver/Src/stm32f4xx_hal_rcc_ex.c ****   */
  51:/home/christoschristoforou/STM32Cube/Repository/STM32Cube_FW_F4_V1.27.0/Drivers/STM32F4xx_HAL_Driver/Src/stm32f4xx_hal_rcc_ex.c **** 
  52:/home/christoschristoforou/STM32Cube/Repository/STM32Cube_FW_F4_V1.27.0/Drivers/STM32F4xx_HAL_Driver/Src/stm32f4xx_hal_rcc_ex.c **** /** @defgroup RCCEx_Exported_Functions_Group1 Extended Peripheral Control functions
  53:/home/christoschristoforou/STM32Cube/Repository/STM32Cube_FW_F4_V1.27.0/Drivers/STM32F4xx_HAL_Driver/Src/stm32f4xx_hal_rcc_ex.c ****  *  @brief  Extended Peripheral Control functions
  54:/home/christoschristoforou/STM32Cube/Repository/STM32Cube_FW_F4_V1.27.0/Drivers/STM32F4xx_HAL_Driver/Src/stm32f4xx_hal_rcc_ex.c ****  *
  55:/home/christoschristoforou/STM32Cube/Repository/STM32Cube_FW_F4_V1.27.0/Drivers/STM32F4xx_HAL_Driver/Src/stm32f4xx_hal_rcc_ex.c **** @verbatim
  56:/home/christoschristoforou/STM32Cube/Repository/STM32Cube_FW_F4_V1.27.0/Drivers/STM32F4xx_HAL_Driver/Src/stm32f4xx_hal_rcc_ex.c ****  ===============================================================================
  57:/home/christoschristoforou/STM32Cube/Repository/STM32Cube_FW_F4_V1.27.0/Drivers/STM32F4xx_HAL_Driver/Src/stm32f4xx_hal_rcc_ex.c ****                 ##### Extended Peripheral Control functions  #####
  58:/home/christoschristoforou/STM32Cube/Repository/STM32Cube_FW_F4_V1.27.0/Drivers/STM32F4xx_HAL_Driver/Src/stm32f4xx_hal_rcc_ex.c ****  ===============================================================================
  59:/home/christoschristoforou/STM32Cube/Repository/STM32Cube_FW_F4_V1.27.0/Drivers/STM32F4xx_HAL_Driver/Src/stm32f4xx_hal_rcc_ex.c ****     [..]
  60:/home/christoschristoforou/STM32Cube/Repository/STM32Cube_FW_F4_V1.27.0/Drivers/STM32F4xx_HAL_Driver/Src/stm32f4xx_hal_rcc_ex.c ****     This subsection provides a set of functions allowing to control the RCC Clocks
  61:/home/christoschristoforou/STM32Cube/Repository/STM32Cube_FW_F4_V1.27.0/Drivers/STM32F4xx_HAL_Driver/Src/stm32f4xx_hal_rcc_ex.c ****     frequencies.
  62:/home/christoschristoforou/STM32Cube/Repository/STM32Cube_FW_F4_V1.27.0/Drivers/STM32F4xx_HAL_Driver/Src/stm32f4xx_hal_rcc_ex.c ****     [..]
  63:/home/christoschristoforou/STM32Cube/Repository/STM32Cube_FW_F4_V1.27.0/Drivers/STM32F4xx_HAL_Driver/Src/stm32f4xx_hal_rcc_ex.c ****     (@) Important note: Care must be taken when HAL_RCCEx_PeriphCLKConfig() is used to
  64:/home/christoschristoforou/STM32Cube/Repository/STM32Cube_FW_F4_V1.27.0/Drivers/STM32F4xx_HAL_Driver/Src/stm32f4xx_hal_rcc_ex.c ****         select the RTC clock source; in this case the Backup domain will be reset in
  65:/home/christoschristoforou/STM32Cube/Repository/STM32Cube_FW_F4_V1.27.0/Drivers/STM32F4xx_HAL_Driver/Src/stm32f4xx_hal_rcc_ex.c ****         order to modify the RTC Clock source, as consequence RTC registers (including
  66:/home/christoschristoforou/STM32Cube/Repository/STM32Cube_FW_F4_V1.27.0/Drivers/STM32F4xx_HAL_Driver/Src/stm32f4xx_hal_rcc_ex.c ****         the backup registers) and RCC_BDCR register are set to their reset values.
  67:/home/christoschristoforou/STM32Cube/Repository/STM32Cube_FW_F4_V1.27.0/Drivers/STM32F4xx_HAL_Driver/Src/stm32f4xx_hal_rcc_ex.c **** 
  68:/home/christoschristoforou/STM32Cube/Repository/STM32Cube_FW_F4_V1.27.0/Drivers/STM32F4xx_HAL_Driver/Src/stm32f4xx_hal_rcc_ex.c **** @endverbatim
ARM GAS  /tmp/ccbai6tv.s 			page 3


  69:/home/christoschristoforou/STM32Cube/Repository/STM32Cube_FW_F4_V1.27.0/Drivers/STM32F4xx_HAL_Driver/Src/stm32f4xx_hal_rcc_ex.c ****   * @{
  70:/home/christoschristoforou/STM32Cube/Repository/STM32Cube_FW_F4_V1.27.0/Drivers/STM32F4xx_HAL_Driver/Src/stm32f4xx_hal_rcc_ex.c ****   */
  71:/home/christoschristoforou/STM32Cube/Repository/STM32Cube_FW_F4_V1.27.0/Drivers/STM32F4xx_HAL_Driver/Src/stm32f4xx_hal_rcc_ex.c **** 
  72:/home/christoschristoforou/STM32Cube/Repository/STM32Cube_FW_F4_V1.27.0/Drivers/STM32F4xx_HAL_Driver/Src/stm32f4xx_hal_rcc_ex.c **** #if defined(STM32F446xx)
  73:/home/christoschristoforou/STM32Cube/Repository/STM32Cube_FW_F4_V1.27.0/Drivers/STM32F4xx_HAL_Driver/Src/stm32f4xx_hal_rcc_ex.c **** /**
  74:/home/christoschristoforou/STM32Cube/Repository/STM32Cube_FW_F4_V1.27.0/Drivers/STM32F4xx_HAL_Driver/Src/stm32f4xx_hal_rcc_ex.c ****   * @brief  Initializes the RCC extended peripherals clocks according to the specified
  75:/home/christoschristoforou/STM32Cube/Repository/STM32Cube_FW_F4_V1.27.0/Drivers/STM32F4xx_HAL_Driver/Src/stm32f4xx_hal_rcc_ex.c ****   *         parameters in the RCC_PeriphCLKInitTypeDef.
  76:/home/christoschristoforou/STM32Cube/Repository/STM32Cube_FW_F4_V1.27.0/Drivers/STM32F4xx_HAL_Driver/Src/stm32f4xx_hal_rcc_ex.c ****   * @param  PeriphClkInit pointer to an RCC_PeriphCLKInitTypeDef structure that
  77:/home/christoschristoforou/STM32Cube/Repository/STM32Cube_FW_F4_V1.27.0/Drivers/STM32F4xx_HAL_Driver/Src/stm32f4xx_hal_rcc_ex.c ****   *         contains the configuration information for the Extended Peripherals
  78:/home/christoschristoforou/STM32Cube/Repository/STM32Cube_FW_F4_V1.27.0/Drivers/STM32F4xx_HAL_Driver/Src/stm32f4xx_hal_rcc_ex.c ****   *         clocks(I2S, SAI, LTDC RTC and TIM).
  79:/home/christoschristoforou/STM32Cube/Repository/STM32Cube_FW_F4_V1.27.0/Drivers/STM32F4xx_HAL_Driver/Src/stm32f4xx_hal_rcc_ex.c ****   *
  80:/home/christoschristoforou/STM32Cube/Repository/STM32Cube_FW_F4_V1.27.0/Drivers/STM32F4xx_HAL_Driver/Src/stm32f4xx_hal_rcc_ex.c ****   * @note   Care must be taken when HAL_RCCEx_PeriphCLKConfig() is used to select
  81:/home/christoschristoforou/STM32Cube/Repository/STM32Cube_FW_F4_V1.27.0/Drivers/STM32F4xx_HAL_Driver/Src/stm32f4xx_hal_rcc_ex.c ****   *         the RTC clock source; in this case the Backup domain will be reset in
  82:/home/christoschristoforou/STM32Cube/Repository/STM32Cube_FW_F4_V1.27.0/Drivers/STM32F4xx_HAL_Driver/Src/stm32f4xx_hal_rcc_ex.c ****   *         order to modify the RTC Clock source, as consequence RTC registers (including
  83:/home/christoschristoforou/STM32Cube/Repository/STM32Cube_FW_F4_V1.27.0/Drivers/STM32F4xx_HAL_Driver/Src/stm32f4xx_hal_rcc_ex.c ****   *         the backup registers) and RCC_BDCR register are set to their reset values.
  84:/home/christoschristoforou/STM32Cube/Repository/STM32Cube_FW_F4_V1.27.0/Drivers/STM32F4xx_HAL_Driver/Src/stm32f4xx_hal_rcc_ex.c ****   *
  85:/home/christoschristoforou/STM32Cube/Repository/STM32Cube_FW_F4_V1.27.0/Drivers/STM32F4xx_HAL_Driver/Src/stm32f4xx_hal_rcc_ex.c ****   * @retval HAL status
  86:/home/christoschristoforou/STM32Cube/Repository/STM32Cube_FW_F4_V1.27.0/Drivers/STM32F4xx_HAL_Driver/Src/stm32f4xx_hal_rcc_ex.c ****   */
  87:/home/christoschristoforou/STM32Cube/Repository/STM32Cube_FW_F4_V1.27.0/Drivers/STM32F4xx_HAL_Driver/Src/stm32f4xx_hal_rcc_ex.c **** HAL_StatusTypeDef HAL_RCCEx_PeriphCLKConfig(RCC_PeriphCLKInitTypeDef  *PeriphClkInit)
  88:/home/christoschristoforou/STM32Cube/Repository/STM32Cube_FW_F4_V1.27.0/Drivers/STM32F4xx_HAL_Driver/Src/stm32f4xx_hal_rcc_ex.c **** {
  36              		.loc 1 88 1 view -0
  37              		.cfi_startproc
  38              		@ args = 0, pretend = 0, frame = 8
  39              		@ frame_needed = 0, uses_anonymous_args = 0
  40              		.loc 1 88 1 is_stmt 0 view .LVU1
  41 0000 F0B5     		push	{r4, r5, r6, r7, lr}
  42              	.LCFI0:
  43              		.cfi_def_cfa_offset 20
  44              		.cfi_offset 4, -20
  45              		.cfi_offset 5, -16
  46              		.cfi_offset 6, -12
  47              		.cfi_offset 7, -8
  48              		.cfi_offset 14, -4
  49 0002 83B0     		sub	sp, sp, #12
  50              	.LCFI1:
  51              		.cfi_def_cfa_offset 32
  52 0004 0446     		mov	r4, r0
  89:/home/christoschristoforou/STM32Cube/Repository/STM32Cube_FW_F4_V1.27.0/Drivers/STM32F4xx_HAL_Driver/Src/stm32f4xx_hal_rcc_ex.c ****   uint32_t tickstart = 0U;
  53              		.loc 1 89 3 is_stmt 1 view .LVU2
  54              	.LVL1:
  90:/home/christoschristoforou/STM32Cube/Repository/STM32Cube_FW_F4_V1.27.0/Drivers/STM32F4xx_HAL_Driver/Src/stm32f4xx_hal_rcc_ex.c ****   uint32_t tmpreg1 = 0U;
  55              		.loc 1 90 3 view .LVU3
  91:/home/christoschristoforou/STM32Cube/Repository/STM32Cube_FW_F4_V1.27.0/Drivers/STM32F4xx_HAL_Driver/Src/stm32f4xx_hal_rcc_ex.c ****   uint32_t plli2sp = 0U;
  56              		.loc 1 91 3 view .LVU4
  92:/home/christoschristoforou/STM32Cube/Repository/STM32Cube_FW_F4_V1.27.0/Drivers/STM32F4xx_HAL_Driver/Src/stm32f4xx_hal_rcc_ex.c ****   uint32_t plli2sq = 0U;
  57              		.loc 1 92 3 view .LVU5
  93:/home/christoschristoforou/STM32Cube/Repository/STM32Cube_FW_F4_V1.27.0/Drivers/STM32F4xx_HAL_Driver/Src/stm32f4xx_hal_rcc_ex.c ****   uint32_t plli2sr = 0U;
  58              		.loc 1 93 3 view .LVU6
  94:/home/christoschristoforou/STM32Cube/Repository/STM32Cube_FW_F4_V1.27.0/Drivers/STM32F4xx_HAL_Driver/Src/stm32f4xx_hal_rcc_ex.c ****   uint32_t pllsaip = 0U;
  59              		.loc 1 94 3 view .LVU7
  95:/home/christoschristoforou/STM32Cube/Repository/STM32Cube_FW_F4_V1.27.0/Drivers/STM32F4xx_HAL_Driver/Src/stm32f4xx_hal_rcc_ex.c ****   uint32_t pllsaiq = 0U;
  60              		.loc 1 95 3 view .LVU8
  96:/home/christoschristoforou/STM32Cube/Repository/STM32Cube_FW_F4_V1.27.0/Drivers/STM32F4xx_HAL_Driver/Src/stm32f4xx_hal_rcc_ex.c ****   uint32_t plli2sused = 0U;
  61              		.loc 1 96 3 view .LVU9
  97:/home/christoschristoforou/STM32Cube/Repository/STM32Cube_FW_F4_V1.27.0/Drivers/STM32F4xx_HAL_Driver/Src/stm32f4xx_hal_rcc_ex.c ****   uint32_t pllsaiused = 0U;
  62              		.loc 1 97 3 view .LVU10
  98:/home/christoschristoforou/STM32Cube/Repository/STM32Cube_FW_F4_V1.27.0/Drivers/STM32F4xx_HAL_Driver/Src/stm32f4xx_hal_rcc_ex.c **** 
ARM GAS  /tmp/ccbai6tv.s 			page 4


  99:/home/christoschristoforou/STM32Cube/Repository/STM32Cube_FW_F4_V1.27.0/Drivers/STM32F4xx_HAL_Driver/Src/stm32f4xx_hal_rcc_ex.c ****   /* Check the peripheral clock selection parameters */
 100:/home/christoschristoforou/STM32Cube/Repository/STM32Cube_FW_F4_V1.27.0/Drivers/STM32F4xx_HAL_Driver/Src/stm32f4xx_hal_rcc_ex.c ****   assert_param(IS_RCC_PERIPHCLOCK(PeriphClkInit->PeriphClockSelection));
  63              		.loc 1 100 3 view .LVU11
  64 0006 0368     		ldr	r3, [r0]
  65 0008 013B     		subs	r3, r3, #1
  66 000a 40F6FE72 		movw	r2, #4094
  67 000e 9342     		cmp	r3, r2
  68 0010 00F21F81 		bhi	.L85
  69              	.LVL2:
  70              	.L2:
 101:/home/christoschristoforou/STM32Cube/Repository/STM32Cube_FW_F4_V1.27.0/Drivers/STM32F4xx_HAL_Driver/Src/stm32f4xx_hal_rcc_ex.c **** 
 102:/home/christoschristoforou/STM32Cube/Repository/STM32Cube_FW_F4_V1.27.0/Drivers/STM32F4xx_HAL_Driver/Src/stm32f4xx_hal_rcc_ex.c ****   /*------------------------ I2S APB1 configuration --------------------------*/
 103:/home/christoschristoforou/STM32Cube/Repository/STM32Cube_FW_F4_V1.27.0/Drivers/STM32F4xx_HAL_Driver/Src/stm32f4xx_hal_rcc_ex.c ****   if(((PeriphClkInit->PeriphClockSelection) & RCC_PERIPHCLK_I2S_APB1) == (RCC_PERIPHCLK_I2S_APB1))
  71              		.loc 1 103 3 view .LVU12
  72              		.loc 1 103 21 is_stmt 0 view .LVU13
  73 0014 2768     		ldr	r7, [r4]
  74              		.loc 1 103 5 view .LVU14
  75 0016 17F00107 		ands	r7, r7, #1
  76 001a 19D0     		beq	.L3
 104:/home/christoschristoforou/STM32Cube/Repository/STM32Cube_FW_F4_V1.27.0/Drivers/STM32F4xx_HAL_Driver/Src/stm32f4xx_hal_rcc_ex.c ****   {
 105:/home/christoschristoforou/STM32Cube/Repository/STM32Cube_FW_F4_V1.27.0/Drivers/STM32F4xx_HAL_Driver/Src/stm32f4xx_hal_rcc_ex.c ****     /* Check the parameters */
 106:/home/christoschristoforou/STM32Cube/Repository/STM32Cube_FW_F4_V1.27.0/Drivers/STM32F4xx_HAL_Driver/Src/stm32f4xx_hal_rcc_ex.c ****     assert_param(IS_RCC_I2SAPB1CLKSOURCE(PeriphClkInit->I2sApb1ClockSelection));
  77              		.loc 1 106 5 is_stmt 1 view .LVU15
  78 001c A36B     		ldr	r3, [r4, #56]
  79 001e 4BB1     		cbz	r3, .L4
  80              		.loc 1 106 5 is_stmt 0 discriminator 1 view .LVU16
  81 0020 B3F1007F 		cmp	r3, #33554432
  82 0024 06D0     		beq	.L4
  83              		.loc 1 106 5 discriminator 2 view .LVU17
  84 0026 B3F1806F 		cmp	r3, #67108864
  85 002a 03D0     		beq	.L4
  86              		.loc 1 106 5 discriminator 3 view .LVU18
  87 002c B3F1C06F 		cmp	r3, #100663296
  88 0030 40F01481 		bne	.L86
  89              	.L4:
 107:/home/christoschristoforou/STM32Cube/Repository/STM32Cube_FW_F4_V1.27.0/Drivers/STM32F4xx_HAL_Driver/Src/stm32f4xx_hal_rcc_ex.c **** 
 108:/home/christoschristoforou/STM32Cube/Repository/STM32Cube_FW_F4_V1.27.0/Drivers/STM32F4xx_HAL_Driver/Src/stm32f4xx_hal_rcc_ex.c ****     /* Configure I2S Clock source */
 109:/home/christoschristoforou/STM32Cube/Repository/STM32Cube_FW_F4_V1.27.0/Drivers/STM32F4xx_HAL_Driver/Src/stm32f4xx_hal_rcc_ex.c ****     __HAL_RCC_I2S_APB1_CONFIG(PeriphClkInit->I2sApb1ClockSelection);
  90              		.loc 1 109 5 is_stmt 1 view .LVU19
  91 0034 9A4A     		ldr	r2, .L122
  92 0036 D2F88C30 		ldr	r3, [r2, #140]
  93 003a 23F0C063 		bic	r3, r3, #100663296
  94 003e A16B     		ldr	r1, [r4, #56]
  95 0040 0B43     		orrs	r3, r3, r1
  96 0042 C2F88C30 		str	r3, [r2, #140]
 110:/home/christoschristoforou/STM32Cube/Repository/STM32Cube_FW_F4_V1.27.0/Drivers/STM32F4xx_HAL_Driver/Src/stm32f4xx_hal_rcc_ex.c ****     /* Enable the PLLI2S when it's used as clock source for I2S */
 111:/home/christoschristoforou/STM32Cube/Repository/STM32Cube_FW_F4_V1.27.0/Drivers/STM32F4xx_HAL_Driver/Src/stm32f4xx_hal_rcc_ex.c ****     if(PeriphClkInit->I2sApb1ClockSelection == RCC_I2SAPB1CLKSOURCE_PLLI2S)
  97              		.loc 1 111 5 view .LVU20
  98              		.loc 1 111 21 is_stmt 0 view .LVU21
  99 0046 A36B     		ldr	r3, [r4, #56]
 100              		.loc 1 111 7 view .LVU22
 101 0048 002B     		cmp	r3, #0
 102 004a 00F00C81 		beq	.L70
  96:/home/christoschristoforou/STM32Cube/Repository/STM32Cube_FW_F4_V1.27.0/Drivers/STM32F4xx_HAL_Driver/Src/stm32f4xx_hal_rcc_ex.c ****   uint32_t pllsaiused = 0U;
 103              		.loc 1 96 12 view .LVU23
 104 004e 0027     		movs	r7, #0
 105              	.L3:
ARM GAS  /tmp/ccbai6tv.s 			page 5


 106              	.LVL3:
 112:/home/christoschristoforou/STM32Cube/Repository/STM32Cube_FW_F4_V1.27.0/Drivers/STM32F4xx_HAL_Driver/Src/stm32f4xx_hal_rcc_ex.c ****     {
 113:/home/christoschristoforou/STM32Cube/Repository/STM32Cube_FW_F4_V1.27.0/Drivers/STM32F4xx_HAL_Driver/Src/stm32f4xx_hal_rcc_ex.c ****       plli2sused = 1U;
 114:/home/christoschristoforou/STM32Cube/Repository/STM32Cube_FW_F4_V1.27.0/Drivers/STM32F4xx_HAL_Driver/Src/stm32f4xx_hal_rcc_ex.c ****     }
 115:/home/christoschristoforou/STM32Cube/Repository/STM32Cube_FW_F4_V1.27.0/Drivers/STM32F4xx_HAL_Driver/Src/stm32f4xx_hal_rcc_ex.c ****   }
 116:/home/christoschristoforou/STM32Cube/Repository/STM32Cube_FW_F4_V1.27.0/Drivers/STM32F4xx_HAL_Driver/Src/stm32f4xx_hal_rcc_ex.c ****   /*--------------------------------------------------------------------------*/
 117:/home/christoschristoforou/STM32Cube/Repository/STM32Cube_FW_F4_V1.27.0/Drivers/STM32F4xx_HAL_Driver/Src/stm32f4xx_hal_rcc_ex.c **** 
 118:/home/christoschristoforou/STM32Cube/Repository/STM32Cube_FW_F4_V1.27.0/Drivers/STM32F4xx_HAL_Driver/Src/stm32f4xx_hal_rcc_ex.c ****   /*---------------------------- I2S APB2 configuration ----------------------*/
 119:/home/christoschristoforou/STM32Cube/Repository/STM32Cube_FW_F4_V1.27.0/Drivers/STM32F4xx_HAL_Driver/Src/stm32f4xx_hal_rcc_ex.c ****   if(((PeriphClkInit->PeriphClockSelection) & RCC_PERIPHCLK_I2S_APB2) == (RCC_PERIPHCLK_I2S_APB2))
 107              		.loc 1 119 3 is_stmt 1 view .LVU24
 108              		.loc 1 119 21 is_stmt 0 view .LVU25
 109 0050 2368     		ldr	r3, [r4]
 110              		.loc 1 119 5 view .LVU26
 111 0052 13F0020F 		tst	r3, #2
 112 0056 17D0     		beq	.L5
 120:/home/christoschristoforou/STM32Cube/Repository/STM32Cube_FW_F4_V1.27.0/Drivers/STM32F4xx_HAL_Driver/Src/stm32f4xx_hal_rcc_ex.c ****   {
 121:/home/christoschristoforou/STM32Cube/Repository/STM32Cube_FW_F4_V1.27.0/Drivers/STM32F4xx_HAL_Driver/Src/stm32f4xx_hal_rcc_ex.c ****     /* Check the parameters */
 122:/home/christoschristoforou/STM32Cube/Repository/STM32Cube_FW_F4_V1.27.0/Drivers/STM32F4xx_HAL_Driver/Src/stm32f4xx_hal_rcc_ex.c ****     assert_param(IS_RCC_I2SAPB2CLKSOURCE(PeriphClkInit->I2sApb2ClockSelection));
 113              		.loc 1 122 5 is_stmt 1 view .LVU27
 114 0058 E36B     		ldr	r3, [r4, #60]
 115 005a 4BB1     		cbz	r3, .L6
 116              		.loc 1 122 5 is_stmt 0 discriminator 1 view .LVU28
 117 005c B3F1006F 		cmp	r3, #134217728
 118 0060 06D0     		beq	.L6
 119              		.loc 1 122 5 discriminator 2 view .LVU29
 120 0062 B3F1805F 		cmp	r3, #268435456
 121 0066 03D0     		beq	.L6
 122              		.loc 1 122 5 discriminator 3 view .LVU30
 123 0068 B3F1C05F 		cmp	r3, #402653184
 124 006c 40F0FD80 		bne	.L87
 125              	.L6:
 123:/home/christoschristoforou/STM32Cube/Repository/STM32Cube_FW_F4_V1.27.0/Drivers/STM32F4xx_HAL_Driver/Src/stm32f4xx_hal_rcc_ex.c **** 
 124:/home/christoschristoforou/STM32Cube/Repository/STM32Cube_FW_F4_V1.27.0/Drivers/STM32F4xx_HAL_Driver/Src/stm32f4xx_hal_rcc_ex.c ****     /* Configure I2S Clock source */
 125:/home/christoschristoforou/STM32Cube/Repository/STM32Cube_FW_F4_V1.27.0/Drivers/STM32F4xx_HAL_Driver/Src/stm32f4xx_hal_rcc_ex.c ****     __HAL_RCC_I2S_APB2_CONFIG(PeriphClkInit->I2sApb2ClockSelection);
 126              		.loc 1 125 5 is_stmt 1 view .LVU31
 127 0070 8B4A     		ldr	r2, .L122
 128 0072 D2F88C30 		ldr	r3, [r2, #140]
 129 0076 23F0C053 		bic	r3, r3, #402653184
 130 007a E16B     		ldr	r1, [r4, #60]
 131 007c 0B43     		orrs	r3, r3, r1
 132 007e C2F88C30 		str	r3, [r2, #140]
 126:/home/christoschristoforou/STM32Cube/Repository/STM32Cube_FW_F4_V1.27.0/Drivers/STM32F4xx_HAL_Driver/Src/stm32f4xx_hal_rcc_ex.c ****     /* Enable the PLLI2S when it's used as clock source for I2S */
 127:/home/christoschristoforou/STM32Cube/Repository/STM32Cube_FW_F4_V1.27.0/Drivers/STM32F4xx_HAL_Driver/Src/stm32f4xx_hal_rcc_ex.c ****     if(PeriphClkInit->I2sApb2ClockSelection == RCC_I2SAPB2CLKSOURCE_PLLI2S)
 133              		.loc 1 127 5 view .LVU32
 134              		.loc 1 127 21 is_stmt 0 view .LVU33
 135 0082 E36B     		ldr	r3, [r4, #60]
 136              		.loc 1 127 7 view .LVU34
 137 0084 03B9     		cbnz	r3, .L5
 128:/home/christoschristoforou/STM32Cube/Repository/STM32Cube_FW_F4_V1.27.0/Drivers/STM32F4xx_HAL_Driver/Src/stm32f4xx_hal_rcc_ex.c ****     {
 129:/home/christoschristoforou/STM32Cube/Repository/STM32Cube_FW_F4_V1.27.0/Drivers/STM32F4xx_HAL_Driver/Src/stm32f4xx_hal_rcc_ex.c ****       plli2sused = 1U;
 138              		.loc 1 129 18 view .LVU35
 139 0086 0127     		movs	r7, #1
 140              	.LVL4:
 141              	.L5:
 130:/home/christoschristoforou/STM32Cube/Repository/STM32Cube_FW_F4_V1.27.0/Drivers/STM32F4xx_HAL_Driver/Src/stm32f4xx_hal_rcc_ex.c ****     }
 131:/home/christoschristoforou/STM32Cube/Repository/STM32Cube_FW_F4_V1.27.0/Drivers/STM32F4xx_HAL_Driver/Src/stm32f4xx_hal_rcc_ex.c ****   }
 132:/home/christoschristoforou/STM32Cube/Repository/STM32Cube_FW_F4_V1.27.0/Drivers/STM32F4xx_HAL_Driver/Src/stm32f4xx_hal_rcc_ex.c ****   /*--------------------------------------------------------------------------*/
ARM GAS  /tmp/ccbai6tv.s 			page 6


 133:/home/christoschristoforou/STM32Cube/Repository/STM32Cube_FW_F4_V1.27.0/Drivers/STM32F4xx_HAL_Driver/Src/stm32f4xx_hal_rcc_ex.c **** 
 134:/home/christoschristoforou/STM32Cube/Repository/STM32Cube_FW_F4_V1.27.0/Drivers/STM32F4xx_HAL_Driver/Src/stm32f4xx_hal_rcc_ex.c ****   /*--------------------------- SAI1 configuration ---------------------------*/
 135:/home/christoschristoforou/STM32Cube/Repository/STM32Cube_FW_F4_V1.27.0/Drivers/STM32F4xx_HAL_Driver/Src/stm32f4xx_hal_rcc_ex.c ****   if(((PeriphClkInit->PeriphClockSelection) & RCC_PERIPHCLK_SAI1) == (RCC_PERIPHCLK_SAI1))
 142              		.loc 1 135 3 is_stmt 1 view .LVU36
 143              		.loc 1 135 21 is_stmt 0 view .LVU37
 144 0088 2568     		ldr	r5, [r4]
 145              		.loc 1 135 5 view .LVU38
 146 008a 15F00405 		ands	r5, r5, #4
 147 008e 1DD0     		beq	.L7
 136:/home/christoschristoforou/STM32Cube/Repository/STM32Cube_FW_F4_V1.27.0/Drivers/STM32F4xx_HAL_Driver/Src/stm32f4xx_hal_rcc_ex.c ****   {
 137:/home/christoschristoforou/STM32Cube/Repository/STM32Cube_FW_F4_V1.27.0/Drivers/STM32F4xx_HAL_Driver/Src/stm32f4xx_hal_rcc_ex.c ****     /* Check the parameters */
 138:/home/christoschristoforou/STM32Cube/Repository/STM32Cube_FW_F4_V1.27.0/Drivers/STM32F4xx_HAL_Driver/Src/stm32f4xx_hal_rcc_ex.c ****     assert_param(IS_RCC_SAI1CLKSOURCE(PeriphClkInit->Sai1ClockSelection));
 148              		.loc 1 138 5 is_stmt 1 view .LVU39
 149 0090 236B     		ldr	r3, [r4, #48]
 150 0092 4BB1     		cbz	r3, .L8
 151              		.loc 1 138 5 is_stmt 0 discriminator 1 view .LVU40
 152 0094 B3F5801F 		cmp	r3, #1048576
 153 0098 06D0     		beq	.L8
 154              		.loc 1 138 5 discriminator 2 view .LVU41
 155 009a B3F5001F 		cmp	r3, #2097152
 156 009e 03D0     		beq	.L8
 157              		.loc 1 138 5 discriminator 3 view .LVU42
 158 00a0 B3F5401F 		cmp	r3, #3145728
 159 00a4 40F0E680 		bne	.L88
 160              	.L8:
 139:/home/christoschristoforou/STM32Cube/Repository/STM32Cube_FW_F4_V1.27.0/Drivers/STM32F4xx_HAL_Driver/Src/stm32f4xx_hal_rcc_ex.c **** 
 140:/home/christoschristoforou/STM32Cube/Repository/STM32Cube_FW_F4_V1.27.0/Drivers/STM32F4xx_HAL_Driver/Src/stm32f4xx_hal_rcc_ex.c ****     /* Configure SAI1 Clock source */
 141:/home/christoschristoforou/STM32Cube/Repository/STM32Cube_FW_F4_V1.27.0/Drivers/STM32F4xx_HAL_Driver/Src/stm32f4xx_hal_rcc_ex.c ****     __HAL_RCC_SAI1_CONFIG(PeriphClkInit->Sai1ClockSelection);
 161              		.loc 1 141 5 is_stmt 1 view .LVU43
 162 00a8 7D4A     		ldr	r2, .L122
 163 00aa D2F88C30 		ldr	r3, [r2, #140]
 164 00ae 23F44013 		bic	r3, r3, #3145728
 165 00b2 216B     		ldr	r1, [r4, #48]
 166 00b4 0B43     		orrs	r3, r3, r1
 167 00b6 C2F88C30 		str	r3, [r2, #140]
 142:/home/christoschristoforou/STM32Cube/Repository/STM32Cube_FW_F4_V1.27.0/Drivers/STM32F4xx_HAL_Driver/Src/stm32f4xx_hal_rcc_ex.c ****     /* Enable the PLLI2S when it's used as clock source for SAI */
 143:/home/christoschristoforou/STM32Cube/Repository/STM32Cube_FW_F4_V1.27.0/Drivers/STM32F4xx_HAL_Driver/Src/stm32f4xx_hal_rcc_ex.c ****     if(PeriphClkInit->Sai1ClockSelection == RCC_SAI1CLKSOURCE_PLLI2S)
 168              		.loc 1 143 5 view .LVU44
 169              		.loc 1 143 21 is_stmt 0 view .LVU45
 170 00ba 236B     		ldr	r3, [r4, #48]
 171              		.loc 1 143 7 view .LVU46
 172 00bc B3F5801F 		cmp	r3, #1048576
 173 00c0 00F0DD80 		beq	.L89
 174              	.LVL5:
 175              	.L9:
 144:/home/christoschristoforou/STM32Cube/Repository/STM32Cube_FW_F4_V1.27.0/Drivers/STM32F4xx_HAL_Driver/Src/stm32f4xx_hal_rcc_ex.c ****     {
 145:/home/christoschristoforou/STM32Cube/Repository/STM32Cube_FW_F4_V1.27.0/Drivers/STM32F4xx_HAL_Driver/Src/stm32f4xx_hal_rcc_ex.c ****       plli2sused = 1U;
 146:/home/christoschristoforou/STM32Cube/Repository/STM32Cube_FW_F4_V1.27.0/Drivers/STM32F4xx_HAL_Driver/Src/stm32f4xx_hal_rcc_ex.c ****     }
 147:/home/christoschristoforou/STM32Cube/Repository/STM32Cube_FW_F4_V1.27.0/Drivers/STM32F4xx_HAL_Driver/Src/stm32f4xx_hal_rcc_ex.c ****     /* Enable the PLLSAI when it's used as clock source for SAI */
 148:/home/christoschristoforou/STM32Cube/Repository/STM32Cube_FW_F4_V1.27.0/Drivers/STM32F4xx_HAL_Driver/Src/stm32f4xx_hal_rcc_ex.c ****     if(PeriphClkInit->Sai1ClockSelection == RCC_SAI1CLKSOURCE_PLLSAI)
 176              		.loc 1 148 5 is_stmt 1 view .LVU47
 177              		.loc 1 148 7 is_stmt 0 view .LVU48
 178 00c4 002B     		cmp	r3, #0
 179 00c6 00F0DC80 		beq	.L73
  97:/home/christoschristoforou/STM32Cube/Repository/STM32Cube_FW_F4_V1.27.0/Drivers/STM32F4xx_HAL_Driver/Src/stm32f4xx_hal_rcc_ex.c **** 
 180              		.loc 1 97 12 view .LVU49
 181 00ca 0025     		movs	r5, #0
ARM GAS  /tmp/ccbai6tv.s 			page 7


 182              	.L7:
 183              	.LVL6:
 149:/home/christoschristoforou/STM32Cube/Repository/STM32Cube_FW_F4_V1.27.0/Drivers/STM32F4xx_HAL_Driver/Src/stm32f4xx_hal_rcc_ex.c ****     {
 150:/home/christoschristoforou/STM32Cube/Repository/STM32Cube_FW_F4_V1.27.0/Drivers/STM32F4xx_HAL_Driver/Src/stm32f4xx_hal_rcc_ex.c ****       pllsaiused = 1U;
 151:/home/christoschristoforou/STM32Cube/Repository/STM32Cube_FW_F4_V1.27.0/Drivers/STM32F4xx_HAL_Driver/Src/stm32f4xx_hal_rcc_ex.c ****     }
 152:/home/christoschristoforou/STM32Cube/Repository/STM32Cube_FW_F4_V1.27.0/Drivers/STM32F4xx_HAL_Driver/Src/stm32f4xx_hal_rcc_ex.c ****   }
 153:/home/christoschristoforou/STM32Cube/Repository/STM32Cube_FW_F4_V1.27.0/Drivers/STM32F4xx_HAL_Driver/Src/stm32f4xx_hal_rcc_ex.c ****   /*--------------------------------------------------------------------------*/
 154:/home/christoschristoforou/STM32Cube/Repository/STM32Cube_FW_F4_V1.27.0/Drivers/STM32F4xx_HAL_Driver/Src/stm32f4xx_hal_rcc_ex.c **** 
 155:/home/christoschristoforou/STM32Cube/Repository/STM32Cube_FW_F4_V1.27.0/Drivers/STM32F4xx_HAL_Driver/Src/stm32f4xx_hal_rcc_ex.c ****   /*-------------------------- SAI2 configuration ----------------------------*/
 156:/home/christoschristoforou/STM32Cube/Repository/STM32Cube_FW_F4_V1.27.0/Drivers/STM32F4xx_HAL_Driver/Src/stm32f4xx_hal_rcc_ex.c ****   if(((PeriphClkInit->PeriphClockSelection) & RCC_PERIPHCLK_SAI2) == (RCC_PERIPHCLK_SAI2))
 184              		.loc 1 156 3 is_stmt 1 view .LVU50
 185              		.loc 1 156 21 is_stmt 0 view .LVU51
 186 00cc 2368     		ldr	r3, [r4]
 187              		.loc 1 156 5 view .LVU52
 188 00ce 13F0080F 		tst	r3, #8
 189 00d2 1BD0     		beq	.L10
 157:/home/christoschristoforou/STM32Cube/Repository/STM32Cube_FW_F4_V1.27.0/Drivers/STM32F4xx_HAL_Driver/Src/stm32f4xx_hal_rcc_ex.c ****   {
 158:/home/christoschristoforou/STM32Cube/Repository/STM32Cube_FW_F4_V1.27.0/Drivers/STM32F4xx_HAL_Driver/Src/stm32f4xx_hal_rcc_ex.c ****     /* Check the parameters */
 159:/home/christoschristoforou/STM32Cube/Repository/STM32Cube_FW_F4_V1.27.0/Drivers/STM32F4xx_HAL_Driver/Src/stm32f4xx_hal_rcc_ex.c ****     assert_param(IS_RCC_SAI2CLKSOURCE(PeriphClkInit->Sai2ClockSelection));
 190              		.loc 1 159 5 is_stmt 1 view .LVU53
 191 00d4 636B     		ldr	r3, [r4, #52]
 192 00d6 4BB1     		cbz	r3, .L11
 193              		.loc 1 159 5 is_stmt 0 discriminator 1 view .LVU54
 194 00d8 B3F5800F 		cmp	r3, #4194304
 195 00dc 06D0     		beq	.L11
 196              		.loc 1 159 5 discriminator 2 view .LVU55
 197 00de B3F5000F 		cmp	r3, #8388608
 198 00e2 03D0     		beq	.L11
 199              		.loc 1 159 5 discriminator 3 view .LVU56
 200 00e4 B3F5400F 		cmp	r3, #12582912
 201 00e8 40F0CD80 		bne	.L90
 202              	.L11:
 160:/home/christoschristoforou/STM32Cube/Repository/STM32Cube_FW_F4_V1.27.0/Drivers/STM32F4xx_HAL_Driver/Src/stm32f4xx_hal_rcc_ex.c **** 
 161:/home/christoschristoforou/STM32Cube/Repository/STM32Cube_FW_F4_V1.27.0/Drivers/STM32F4xx_HAL_Driver/Src/stm32f4xx_hal_rcc_ex.c ****     /* Configure SAI2 Clock source */
 162:/home/christoschristoforou/STM32Cube/Repository/STM32Cube_FW_F4_V1.27.0/Drivers/STM32F4xx_HAL_Driver/Src/stm32f4xx_hal_rcc_ex.c ****     __HAL_RCC_SAI2_CONFIG(PeriphClkInit->Sai2ClockSelection);
 203              		.loc 1 162 5 is_stmt 1 view .LVU57
 204 00ec 6C4A     		ldr	r2, .L122
 205 00ee D2F88C30 		ldr	r3, [r2, #140]
 206 00f2 23F44003 		bic	r3, r3, #12582912
 207 00f6 616B     		ldr	r1, [r4, #52]
 208 00f8 0B43     		orrs	r3, r3, r1
 209 00fa C2F88C30 		str	r3, [r2, #140]
 163:/home/christoschristoforou/STM32Cube/Repository/STM32Cube_FW_F4_V1.27.0/Drivers/STM32F4xx_HAL_Driver/Src/stm32f4xx_hal_rcc_ex.c **** 
 164:/home/christoschristoforou/STM32Cube/Repository/STM32Cube_FW_F4_V1.27.0/Drivers/STM32F4xx_HAL_Driver/Src/stm32f4xx_hal_rcc_ex.c ****     /* Enable the PLLI2S when it's used as clock source for SAI */
 165:/home/christoschristoforou/STM32Cube/Repository/STM32Cube_FW_F4_V1.27.0/Drivers/STM32F4xx_HAL_Driver/Src/stm32f4xx_hal_rcc_ex.c ****     if(PeriphClkInit->Sai2ClockSelection == RCC_SAI2CLKSOURCE_PLLI2S)
 210              		.loc 1 165 5 view .LVU58
 211              		.loc 1 165 21 is_stmt 0 view .LVU59
 212 00fe 636B     		ldr	r3, [r4, #52]
 213              		.loc 1 165 7 view .LVU60
 214 0100 B3F5800F 		cmp	r3, #4194304
 215 0104 00F0C480 		beq	.L91
 216              	.LVL7:
 217              	.L12:
 166:/home/christoschristoforou/STM32Cube/Repository/STM32Cube_FW_F4_V1.27.0/Drivers/STM32F4xx_HAL_Driver/Src/stm32f4xx_hal_rcc_ex.c ****     {
 167:/home/christoschristoforou/STM32Cube/Repository/STM32Cube_FW_F4_V1.27.0/Drivers/STM32F4xx_HAL_Driver/Src/stm32f4xx_hal_rcc_ex.c ****       plli2sused = 1U;
 168:/home/christoschristoforou/STM32Cube/Repository/STM32Cube_FW_F4_V1.27.0/Drivers/STM32F4xx_HAL_Driver/Src/stm32f4xx_hal_rcc_ex.c ****     }
 169:/home/christoschristoforou/STM32Cube/Repository/STM32Cube_FW_F4_V1.27.0/Drivers/STM32F4xx_HAL_Driver/Src/stm32f4xx_hal_rcc_ex.c ****     /* Enable the PLLSAI when it's used as clock source for SAI */
ARM GAS  /tmp/ccbai6tv.s 			page 8


 170:/home/christoschristoforou/STM32Cube/Repository/STM32Cube_FW_F4_V1.27.0/Drivers/STM32F4xx_HAL_Driver/Src/stm32f4xx_hal_rcc_ex.c ****     if(PeriphClkInit->Sai2ClockSelection == RCC_SAI2CLKSOURCE_PLLSAI)
 218              		.loc 1 170 5 is_stmt 1 view .LVU61
 219              		.loc 1 170 7 is_stmt 0 view .LVU62
 220 0108 03B9     		cbnz	r3, .L10
 171:/home/christoschristoforou/STM32Cube/Repository/STM32Cube_FW_F4_V1.27.0/Drivers/STM32F4xx_HAL_Driver/Src/stm32f4xx_hal_rcc_ex.c ****     {
 172:/home/christoschristoforou/STM32Cube/Repository/STM32Cube_FW_F4_V1.27.0/Drivers/STM32F4xx_HAL_Driver/Src/stm32f4xx_hal_rcc_ex.c ****       pllsaiused = 1U;
 221              		.loc 1 172 18 view .LVU63
 222 010a 0125     		movs	r5, #1
 223              	.LVL8:
 224              	.L10:
 173:/home/christoschristoforou/STM32Cube/Repository/STM32Cube_FW_F4_V1.27.0/Drivers/STM32F4xx_HAL_Driver/Src/stm32f4xx_hal_rcc_ex.c ****     }
 174:/home/christoschristoforou/STM32Cube/Repository/STM32Cube_FW_F4_V1.27.0/Drivers/STM32F4xx_HAL_Driver/Src/stm32f4xx_hal_rcc_ex.c ****   }
 175:/home/christoschristoforou/STM32Cube/Repository/STM32Cube_FW_F4_V1.27.0/Drivers/STM32F4xx_HAL_Driver/Src/stm32f4xx_hal_rcc_ex.c ****   /*--------------------------------------------------------------------------*/
 176:/home/christoschristoforou/STM32Cube/Repository/STM32Cube_FW_F4_V1.27.0/Drivers/STM32F4xx_HAL_Driver/Src/stm32f4xx_hal_rcc_ex.c **** 
 177:/home/christoschristoforou/STM32Cube/Repository/STM32Cube_FW_F4_V1.27.0/Drivers/STM32F4xx_HAL_Driver/Src/stm32f4xx_hal_rcc_ex.c ****   /*----------------------------- RTC configuration --------------------------*/
 178:/home/christoschristoforou/STM32Cube/Repository/STM32Cube_FW_F4_V1.27.0/Drivers/STM32F4xx_HAL_Driver/Src/stm32f4xx_hal_rcc_ex.c ****   if(((PeriphClkInit->PeriphClockSelection) & RCC_PERIPHCLK_RTC) == (RCC_PERIPHCLK_RTC))
 225              		.loc 1 178 3 is_stmt 1 view .LVU64
 226              		.loc 1 178 21 is_stmt 0 view .LVU65
 227 010c 2368     		ldr	r3, [r4]
 228              		.loc 1 178 5 view .LVU66
 229 010e 13F0200F 		tst	r3, #32
 230 0112 00F0F980 		beq	.L13
 179:/home/christoschristoforou/STM32Cube/Repository/STM32Cube_FW_F4_V1.27.0/Drivers/STM32F4xx_HAL_Driver/Src/stm32f4xx_hal_rcc_ex.c ****   {
 180:/home/christoschristoforou/STM32Cube/Repository/STM32Cube_FW_F4_V1.27.0/Drivers/STM32F4xx_HAL_Driver/Src/stm32f4xx_hal_rcc_ex.c ****     /* Check for RTC Parameters used to output RTCCLK */
 181:/home/christoschristoforou/STM32Cube/Repository/STM32Cube_FW_F4_V1.27.0/Drivers/STM32F4xx_HAL_Driver/Src/stm32f4xx_hal_rcc_ex.c ****     assert_param(IS_RCC_RTCCLKSOURCE(PeriphClkInit->RTCClockSelection));
 231              		.loc 1 181 5 is_stmt 1 view .LVU67
 232 0116 236C     		ldr	r3, [r4, #64]
 233 0118 B3F5807F 		cmp	r3, #256
 234 011c 79D0     		beq	.L14
 235              		.loc 1 181 5 is_stmt 0 discriminator 1 view .LVU68
 236 011e B3F5007F 		cmp	r3, #512
 237 0122 76D0     		beq	.L14
 238              		.loc 1 181 5 discriminator 2 view .LVU69
 239 0124 5F4A     		ldr	r2, .L122+4
 240 0126 9342     		cmp	r3, r2
 241 0128 73D0     		beq	.L14
 242              		.loc 1 181 5 discriminator 3 view .LVU70
 243 012a 02F58032 		add	r2, r2, #65536
 244 012e 9342     		cmp	r3, r2
 245 0130 6FD0     		beq	.L14
 246              		.loc 1 181 5 discriminator 4 view .LVU71
 247 0132 02F58032 		add	r2, r2, #65536
 248 0136 9342     		cmp	r3, r2
 249 0138 6BD0     		beq	.L14
 250              		.loc 1 181 5 discriminator 5 view .LVU72
 251 013a 02F58032 		add	r2, r2, #65536
 252 013e 9342     		cmp	r3, r2
 253 0140 67D0     		beq	.L14
 254              		.loc 1 181 5 discriminator 6 view .LVU73
 255 0142 02F58032 		add	r2, r2, #65536
 256 0146 9342     		cmp	r3, r2
 257 0148 63D0     		beq	.L14
 258              		.loc 1 181 5 discriminator 7 view .LVU74
 259 014a 02F58032 		add	r2, r2, #65536
 260 014e 9342     		cmp	r3, r2
 261 0150 5FD0     		beq	.L14
 262              		.loc 1 181 5 discriminator 8 view .LVU75
ARM GAS  /tmp/ccbai6tv.s 			page 9


 263 0152 02F58032 		add	r2, r2, #65536
 264 0156 9342     		cmp	r3, r2
 265 0158 5BD0     		beq	.L14
 266              		.loc 1 181 5 discriminator 9 view .LVU76
 267 015a 02F58032 		add	r2, r2, #65536
 268 015e 9342     		cmp	r3, r2
 269 0160 57D0     		beq	.L14
 270              		.loc 1 181 5 discriminator 10 view .LVU77
 271 0162 02F58032 		add	r2, r2, #65536
 272 0166 9342     		cmp	r3, r2
 273 0168 53D0     		beq	.L14
 274              		.loc 1 181 5 discriminator 11 view .LVU78
 275 016a 02F58032 		add	r2, r2, #65536
 276 016e 9342     		cmp	r3, r2
 277 0170 4FD0     		beq	.L14
 278              		.loc 1 181 5 discriminator 12 view .LVU79
 279 0172 02F58032 		add	r2, r2, #65536
 280 0176 9342     		cmp	r3, r2
 281 0178 4BD0     		beq	.L14
 282              		.loc 1 181 5 discriminator 13 view .LVU80
 283 017a 02F58032 		add	r2, r2, #65536
 284 017e 9342     		cmp	r3, r2
 285 0180 47D0     		beq	.L14
 286              		.loc 1 181 5 discriminator 14 view .LVU81
 287 0182 02F58032 		add	r2, r2, #65536
 288 0186 9342     		cmp	r3, r2
 289 0188 43D0     		beq	.L14
 290              		.loc 1 181 5 discriminator 15 view .LVU82
 291 018a 02F58032 		add	r2, r2, #65536
 292 018e 9342     		cmp	r3, r2
 293 0190 3FD0     		beq	.L14
 294              		.loc 1 181 5 discriminator 16 view .LVU83
 295 0192 02F58032 		add	r2, r2, #65536
 296 0196 9342     		cmp	r3, r2
 297 0198 3BD0     		beq	.L14
 298              		.loc 1 181 5 discriminator 17 view .LVU84
 299 019a 02F58032 		add	r2, r2, #65536
 300 019e 9342     		cmp	r3, r2
 301 01a0 37D0     		beq	.L14
 302              		.loc 1 181 5 discriminator 18 view .LVU85
 303 01a2 02F58032 		add	r2, r2, #65536
 304 01a6 9342     		cmp	r3, r2
 305 01a8 33D0     		beq	.L14
 306              		.loc 1 181 5 discriminator 19 view .LVU86
 307 01aa 02F58032 		add	r2, r2, #65536
 308 01ae 9342     		cmp	r3, r2
 309 01b0 2FD0     		beq	.L14
 310              		.loc 1 181 5 discriminator 20 view .LVU87
 311 01b2 02F58032 		add	r2, r2, #65536
 312 01b6 9342     		cmp	r3, r2
 313 01b8 2BD0     		beq	.L14
 314              		.loc 1 181 5 discriminator 21 view .LVU88
 315 01ba 02F58032 		add	r2, r2, #65536
 316 01be 9342     		cmp	r3, r2
 317 01c0 27D0     		beq	.L14
 318              		.loc 1 181 5 discriminator 22 view .LVU89
 319 01c2 02F58032 		add	r2, r2, #65536
ARM GAS  /tmp/ccbai6tv.s 			page 10


 320 01c6 9342     		cmp	r3, r2
 321 01c8 23D0     		beq	.L14
 322              		.loc 1 181 5 discriminator 23 view .LVU90
 323 01ca 02F58032 		add	r2, r2, #65536
 324 01ce 9342     		cmp	r3, r2
 325 01d0 1FD0     		beq	.L14
 326              		.loc 1 181 5 discriminator 24 view .LVU91
 327 01d2 02F58032 		add	r2, r2, #65536
 328 01d6 9342     		cmp	r3, r2
 329 01d8 1BD0     		beq	.L14
 330              		.loc 1 181 5 discriminator 25 view .LVU92
 331 01da 02F58032 		add	r2, r2, #65536
 332 01de 9342     		cmp	r3, r2
 333 01e0 17D0     		beq	.L14
 334              		.loc 1 181 5 discriminator 26 view .LVU93
 335 01e2 02F58032 		add	r2, r2, #65536
 336 01e6 9342     		cmp	r3, r2
 337 01e8 13D0     		beq	.L14
 338              		.loc 1 181 5 discriminator 27 view .LVU94
 339 01ea 02F58032 		add	r2, r2, #65536
 340 01ee 9342     		cmp	r3, r2
 341 01f0 0FD0     		beq	.L14
 342              		.loc 1 181 5 discriminator 28 view .LVU95
 343 01f2 02F58032 		add	r2, r2, #65536
 344 01f6 9342     		cmp	r3, r2
 345 01f8 0BD0     		beq	.L14
 346              		.loc 1 181 5 discriminator 29 view .LVU96
 347 01fa 02F58032 		add	r2, r2, #65536
 348 01fe 9342     		cmp	r3, r2
 349 0200 07D0     		beq	.L14
 350              		.loc 1 181 5 discriminator 30 view .LVU97
 351 0202 02F58032 		add	r2, r2, #65536
 352 0206 9342     		cmp	r3, r2
 353 0208 03D0     		beq	.L14
 354              		.loc 1 181 5 discriminator 31 view .LVU98
 355 020a 02F58032 		add	r2, r2, #65536
 356 020e 9342     		cmp	r3, r2
 357 0210 40D1     		bne	.L92
 358              	.L14:
 182:/home/christoschristoforou/STM32Cube/Repository/STM32Cube_FW_F4_V1.27.0/Drivers/STM32F4xx_HAL_Driver/Src/stm32f4xx_hal_rcc_ex.c **** 
 183:/home/christoschristoforou/STM32Cube/Repository/STM32Cube_FW_F4_V1.27.0/Drivers/STM32F4xx_HAL_Driver/Src/stm32f4xx_hal_rcc_ex.c ****     /* Enable Power Clock*/
 184:/home/christoschristoforou/STM32Cube/Repository/STM32Cube_FW_F4_V1.27.0/Drivers/STM32F4xx_HAL_Driver/Src/stm32f4xx_hal_rcc_ex.c ****     __HAL_RCC_PWR_CLK_ENABLE();
 359              		.loc 1 184 5 is_stmt 1 view .LVU99
 360              	.LBB2:
 361              		.loc 1 184 5 view .LVU100
 362 0212 0023     		movs	r3, #0
 363 0214 0193     		str	r3, [sp, #4]
 364              		.loc 1 184 5 view .LVU101
 365 0216 224B     		ldr	r3, .L122
 366 0218 1A6C     		ldr	r2, [r3, #64]
 367 021a 42F08052 		orr	r2, r2, #268435456
 368 021e 1A64     		str	r2, [r3, #64]
 369              		.loc 1 184 5 view .LVU102
 370 0220 1B6C     		ldr	r3, [r3, #64]
 371 0222 03F08053 		and	r3, r3, #268435456
 372 0226 0193     		str	r3, [sp, #4]
 373              		.loc 1 184 5 view .LVU103
ARM GAS  /tmp/ccbai6tv.s 			page 11


 374 0228 019B     		ldr	r3, [sp, #4]
 375              	.LBE2:
 376              		.loc 1 184 5 view .LVU104
 185:/home/christoschristoforou/STM32Cube/Repository/STM32Cube_FW_F4_V1.27.0/Drivers/STM32F4xx_HAL_Driver/Src/stm32f4xx_hal_rcc_ex.c **** 
 186:/home/christoschristoforou/STM32Cube/Repository/STM32Cube_FW_F4_V1.27.0/Drivers/STM32F4xx_HAL_Driver/Src/stm32f4xx_hal_rcc_ex.c ****     /* Enable write access to Backup domain */
 187:/home/christoschristoforou/STM32Cube/Repository/STM32Cube_FW_F4_V1.27.0/Drivers/STM32F4xx_HAL_Driver/Src/stm32f4xx_hal_rcc_ex.c ****     PWR->CR |= PWR_CR_DBP;
 377              		.loc 1 187 5 view .LVU105
 378              		.loc 1 187 13 is_stmt 0 view .LVU106
 379 022a 1F4A     		ldr	r2, .L122+8
 380 022c 1368     		ldr	r3, [r2]
 381 022e 43F48073 		orr	r3, r3, #256
 382 0232 1360     		str	r3, [r2]
 188:/home/christoschristoforou/STM32Cube/Repository/STM32Cube_FW_F4_V1.27.0/Drivers/STM32F4xx_HAL_Driver/Src/stm32f4xx_hal_rcc_ex.c **** 
 189:/home/christoschristoforou/STM32Cube/Repository/STM32Cube_FW_F4_V1.27.0/Drivers/STM32F4xx_HAL_Driver/Src/stm32f4xx_hal_rcc_ex.c ****     /* Get tick */
 190:/home/christoschristoforou/STM32Cube/Repository/STM32Cube_FW_F4_V1.27.0/Drivers/STM32F4xx_HAL_Driver/Src/stm32f4xx_hal_rcc_ex.c ****     tickstart = HAL_GetTick();
 383              		.loc 1 190 5 is_stmt 1 view .LVU107
 384              		.loc 1 190 17 is_stmt 0 view .LVU108
 385 0234 FFF7FEFF 		bl	HAL_GetTick
 386              	.LVL9:
 387 0238 0646     		mov	r6, r0
 388              	.LVL10:
 191:/home/christoschristoforou/STM32Cube/Repository/STM32Cube_FW_F4_V1.27.0/Drivers/STM32F4xx_HAL_Driver/Src/stm32f4xx_hal_rcc_ex.c **** 
 192:/home/christoschristoforou/STM32Cube/Repository/STM32Cube_FW_F4_V1.27.0/Drivers/STM32F4xx_HAL_Driver/Src/stm32f4xx_hal_rcc_ex.c ****     while((PWR->CR & PWR_CR_DBP) == RESET)
 389              		.loc 1 192 5 is_stmt 1 view .LVU109
 390              	.L15:
 391              		.loc 1 192 10 view .LVU110
 392              		.loc 1 192 15 is_stmt 0 view .LVU111
 393 023a 1B4B     		ldr	r3, .L122+8
 394 023c 1B68     		ldr	r3, [r3]
 395              		.loc 1 192 10 view .LVU112
 396 023e 13F4807F 		tst	r3, #256
 397 0242 35D1     		bne	.L93
 193:/home/christoschristoforou/STM32Cube/Repository/STM32Cube_FW_F4_V1.27.0/Drivers/STM32F4xx_HAL_Driver/Src/stm32f4xx_hal_rcc_ex.c ****     {
 194:/home/christoschristoforou/STM32Cube/Repository/STM32Cube_FW_F4_V1.27.0/Drivers/STM32F4xx_HAL_Driver/Src/stm32f4xx_hal_rcc_ex.c ****       if((HAL_GetTick() - tickstart ) > RCC_DBP_TIMEOUT_VALUE)
 398              		.loc 1 194 7 is_stmt 1 view .LVU113
 399              		.loc 1 194 11 is_stmt 0 view .LVU114
 400 0244 FFF7FEFF 		bl	HAL_GetTick
 401              	.LVL11:
 402              		.loc 1 194 25 view .LVU115
 403 0248 801B     		subs	r0, r0, r6
 404              		.loc 1 194 9 view .LVU116
 405 024a 0228     		cmp	r0, #2
 406 024c F5D9     		bls	.L15
 195:/home/christoschristoforou/STM32Cube/Repository/STM32Cube_FW_F4_V1.27.0/Drivers/STM32F4xx_HAL_Driver/Src/stm32f4xx_hal_rcc_ex.c ****       {
 196:/home/christoschristoforou/STM32Cube/Repository/STM32Cube_FW_F4_V1.27.0/Drivers/STM32F4xx_HAL_Driver/Src/stm32f4xx_hal_rcc_ex.c ****         return HAL_TIMEOUT;
 407              		.loc 1 196 16 view .LVU117
 408 024e 0320     		movs	r0, #3
 409 0250 D2E0     		b	.L16
 410              	.LVL12:
 411              	.L85:
 100:/home/christoschristoforou/STM32Cube/Repository/STM32Cube_FW_F4_V1.27.0/Drivers/STM32F4xx_HAL_Driver/Src/stm32f4xx_hal_rcc_ex.c **** 
 412              		.loc 1 100 3 discriminator 1 view .LVU118
 413 0252 6421     		movs	r1, #100
 414 0254 1548     		ldr	r0, .L122+12
 415              	.LVL13:
 100:/home/christoschristoforou/STM32Cube/Repository/STM32Cube_FW_F4_V1.27.0/Drivers/STM32F4xx_HAL_Driver/Src/stm32f4xx_hal_rcc_ex.c **** 
 416              		.loc 1 100 3 discriminator 1 view .LVU119
ARM GAS  /tmp/ccbai6tv.s 			page 12


 417 0256 FFF7FEFF 		bl	assert_failed
 418              	.LVL14:
 419 025a DBE6     		b	.L2
 420              	.L86:
 106:/home/christoschristoforou/STM32Cube/Repository/STM32Cube_FW_F4_V1.27.0/Drivers/STM32F4xx_HAL_Driver/Src/stm32f4xx_hal_rcc_ex.c **** 
 421              		.loc 1 106 5 discriminator 4 view .LVU120
 422 025c 6A21     		movs	r1, #106
 423 025e 1348     		ldr	r0, .L122+12
 424 0260 FFF7FEFF 		bl	assert_failed
 425              	.LVL15:
 426 0264 E6E6     		b	.L4
 427              	.L70:
 113:/home/christoschristoforou/STM32Cube/Repository/STM32Cube_FW_F4_V1.27.0/Drivers/STM32F4xx_HAL_Driver/Src/stm32f4xx_hal_rcc_ex.c ****     }
 428              		.loc 1 113 18 view .LVU121
 429 0266 0127     		movs	r7, #1
 430 0268 F2E6     		b	.L3
 431              	.LVL16:
 432              	.L87:
 122:/home/christoschristoforou/STM32Cube/Repository/STM32Cube_FW_F4_V1.27.0/Drivers/STM32F4xx_HAL_Driver/Src/stm32f4xx_hal_rcc_ex.c **** 
 433              		.loc 1 122 5 discriminator 4 view .LVU122
 434 026a 7A21     		movs	r1, #122
 435 026c 0F48     		ldr	r0, .L122+12
 436 026e FFF7FEFF 		bl	assert_failed
 437              	.LVL17:
 438 0272 FDE6     		b	.L6
 439              	.L88:
 138:/home/christoschristoforou/STM32Cube/Repository/STM32Cube_FW_F4_V1.27.0/Drivers/STM32F4xx_HAL_Driver/Src/stm32f4xx_hal_rcc_ex.c **** 
 440              		.loc 1 138 5 discriminator 4 view .LVU123
 441 0274 8A21     		movs	r1, #138
 442 0276 0D48     		ldr	r0, .L122+12
 443 0278 FFF7FEFF 		bl	assert_failed
 444              	.LVL18:
 445 027c 14E7     		b	.L8
 446              	.L89:
 145:/home/christoschristoforou/STM32Cube/Repository/STM32Cube_FW_F4_V1.27.0/Drivers/STM32F4xx_HAL_Driver/Src/stm32f4xx_hal_rcc_ex.c ****     }
 447              		.loc 1 145 18 view .LVU124
 448 027e 0127     		movs	r7, #1
 449              	.LVL19:
 145:/home/christoschristoforou/STM32Cube/Repository/STM32Cube_FW_F4_V1.27.0/Drivers/STM32F4xx_HAL_Driver/Src/stm32f4xx_hal_rcc_ex.c ****     }
 450              		.loc 1 145 18 view .LVU125
 451 0280 20E7     		b	.L9
 452              	.LVL20:
 453              	.L73:
 150:/home/christoschristoforou/STM32Cube/Repository/STM32Cube_FW_F4_V1.27.0/Drivers/STM32F4xx_HAL_Driver/Src/stm32f4xx_hal_rcc_ex.c ****     }
 454              		.loc 1 150 18 view .LVU126
 455 0282 0125     		movs	r5, #1
 456 0284 22E7     		b	.L7
 457              	.LVL21:
 458              	.L90:
 159:/home/christoschristoforou/STM32Cube/Repository/STM32Cube_FW_F4_V1.27.0/Drivers/STM32F4xx_HAL_Driver/Src/stm32f4xx_hal_rcc_ex.c **** 
 459              		.loc 1 159 5 discriminator 4 view .LVU127
 460 0286 9F21     		movs	r1, #159
 461 0288 0848     		ldr	r0, .L122+12
 462 028a FFF7FEFF 		bl	assert_failed
 463              	.LVL22:
 464 028e 2DE7     		b	.L11
 465              	.L91:
ARM GAS  /tmp/ccbai6tv.s 			page 13


 167:/home/christoschristoforou/STM32Cube/Repository/STM32Cube_FW_F4_V1.27.0/Drivers/STM32F4xx_HAL_Driver/Src/stm32f4xx_hal_rcc_ex.c ****     }
 466              		.loc 1 167 18 view .LVU128
 467 0290 0127     		movs	r7, #1
 468              	.LVL23:
 167:/home/christoschristoforou/STM32Cube/Repository/STM32Cube_FW_F4_V1.27.0/Drivers/STM32F4xx_HAL_Driver/Src/stm32f4xx_hal_rcc_ex.c ****     }
 469              		.loc 1 167 18 view .LVU129
 470 0292 39E7     		b	.L12
 471              	.LVL24:
 472              	.L92:
 181:/home/christoschristoforou/STM32Cube/Repository/STM32Cube_FW_F4_V1.27.0/Drivers/STM32F4xx_HAL_Driver/Src/stm32f4xx_hal_rcc_ex.c **** 
 473              		.loc 1 181 5 discriminator 32 view .LVU130
 474 0294 B521     		movs	r1, #181
 475 0296 0548     		ldr	r0, .L122+12
 476 0298 FFF7FEFF 		bl	assert_failed
 477              	.LVL25:
 478 029c B9E7     		b	.L14
 479              	.L123:
 480 029e 00BF     		.align	2
 481              	.L122:
 482 02a0 00380240 		.word	1073887232
 483 02a4 00030200 		.word	131840
 484 02a8 00700040 		.word	1073770496
 485 02ac 00000000 		.word	.LC0
 486              	.LVL26:
 487              	.L93:
 197:/home/christoschristoforou/STM32Cube/Repository/STM32Cube_FW_F4_V1.27.0/Drivers/STM32F4xx_HAL_Driver/Src/stm32f4xx_hal_rcc_ex.c ****       }
 198:/home/christoschristoforou/STM32Cube/Repository/STM32Cube_FW_F4_V1.27.0/Drivers/STM32F4xx_HAL_Driver/Src/stm32f4xx_hal_rcc_ex.c ****     }
 199:/home/christoschristoforou/STM32Cube/Repository/STM32Cube_FW_F4_V1.27.0/Drivers/STM32F4xx_HAL_Driver/Src/stm32f4xx_hal_rcc_ex.c ****     /* Reset the Backup domain only if the RTC Clock source selection is modified from reset value 
 200:/home/christoschristoforou/STM32Cube/Repository/STM32Cube_FW_F4_V1.27.0/Drivers/STM32F4xx_HAL_Driver/Src/stm32f4xx_hal_rcc_ex.c ****     tmpreg1 = (RCC->BDCR & RCC_BDCR_RTCSEL);
 488              		.loc 1 200 5 is_stmt 1 view .LVU131
 489              		.loc 1 200 19 is_stmt 0 view .LVU132
 490 02b0 794B     		ldr	r3, .L124
 491 02b2 1B6F     		ldr	r3, [r3, #112]
 492              	.LVL27:
 201:/home/christoschristoforou/STM32Cube/Repository/STM32Cube_FW_F4_V1.27.0/Drivers/STM32F4xx_HAL_Driver/Src/stm32f4xx_hal_rcc_ex.c ****     if((tmpreg1 != 0x00000000U) && ((tmpreg1) != (PeriphClkInit->RTCClockSelection & RCC_BDCR_RTCSE
 493              		.loc 1 201 5 is_stmt 1 view .LVU133
 494              		.loc 1 201 7 is_stmt 0 view .LVU134
 495 02b4 13F44073 		ands	r3, r3, #768
 496              	.LVL28:
 497              		.loc 1 201 7 view .LVU135
 498 02b8 13D0     		beq	.L18
 499              		.loc 1 201 64 discriminator 1 view .LVU136
 500 02ba 226C     		ldr	r2, [r4, #64]
 501              		.loc 1 201 84 discriminator 1 view .LVU137
 502 02bc 02F44072 		and	r2, r2, #768
 503              		.loc 1 201 33 discriminator 1 view .LVU138
 504 02c0 9A42     		cmp	r2, r3
 505 02c2 0ED0     		beq	.L18
 202:/home/christoschristoforou/STM32Cube/Repository/STM32Cube_FW_F4_V1.27.0/Drivers/STM32F4xx_HAL_Driver/Src/stm32f4xx_hal_rcc_ex.c ****     {
 203:/home/christoschristoforou/STM32Cube/Repository/STM32Cube_FW_F4_V1.27.0/Drivers/STM32F4xx_HAL_Driver/Src/stm32f4xx_hal_rcc_ex.c ****       /* Store the content of BDCR register before the reset of Backup Domain */
 204:/home/christoschristoforou/STM32Cube/Repository/STM32Cube_FW_F4_V1.27.0/Drivers/STM32F4xx_HAL_Driver/Src/stm32f4xx_hal_rcc_ex.c ****       tmpreg1 = (RCC->BDCR & ~(RCC_BDCR_RTCSEL));
 506              		.loc 1 204 7 is_stmt 1 view .LVU139
 507              		.loc 1 204 21 is_stmt 0 view .LVU140
 508 02c4 744B     		ldr	r3, .L124
 509              	.LVL29:
 510              		.loc 1 204 21 view .LVU141
 511 02c6 1A6F     		ldr	r2, [r3, #112]
ARM GAS  /tmp/ccbai6tv.s 			page 14


 512              		.loc 1 204 15 view .LVU142
 513 02c8 22F44072 		bic	r2, r2, #768
 514              	.LVL30:
 205:/home/christoschristoforou/STM32Cube/Repository/STM32Cube_FW_F4_V1.27.0/Drivers/STM32F4xx_HAL_Driver/Src/stm32f4xx_hal_rcc_ex.c ****       /* RTC Clock selection can be changed only if the Backup Domain is reset */
 206:/home/christoschristoforou/STM32Cube/Repository/STM32Cube_FW_F4_V1.27.0/Drivers/STM32F4xx_HAL_Driver/Src/stm32f4xx_hal_rcc_ex.c ****       __HAL_RCC_BACKUPRESET_FORCE();
 515              		.loc 1 206 7 is_stmt 1 view .LVU143
 516 02cc 7349     		ldr	r1, .L124+4
 517 02ce 0120     		movs	r0, #1
 518 02d0 0860     		str	r0, [r1]
 207:/home/christoschristoforou/STM32Cube/Repository/STM32Cube_FW_F4_V1.27.0/Drivers/STM32F4xx_HAL_Driver/Src/stm32f4xx_hal_rcc_ex.c ****       __HAL_RCC_BACKUPRESET_RELEASE();
 519              		.loc 1 207 7 view .LVU144
 520 02d2 0020     		movs	r0, #0
 521 02d4 0860     		str	r0, [r1]
 208:/home/christoschristoforou/STM32Cube/Repository/STM32Cube_FW_F4_V1.27.0/Drivers/STM32F4xx_HAL_Driver/Src/stm32f4xx_hal_rcc_ex.c ****       /* Restore the Content of BDCR register */
 209:/home/christoschristoforou/STM32Cube/Repository/STM32Cube_FW_F4_V1.27.0/Drivers/STM32F4xx_HAL_Driver/Src/stm32f4xx_hal_rcc_ex.c ****       RCC->BDCR = tmpreg1;
 522              		.loc 1 209 7 view .LVU145
 523              		.loc 1 209 17 is_stmt 0 view .LVU146
 524 02d6 1A67     		str	r2, [r3, #112]
 210:/home/christoschristoforou/STM32Cube/Repository/STM32Cube_FW_F4_V1.27.0/Drivers/STM32F4xx_HAL_Driver/Src/stm32f4xx_hal_rcc_ex.c **** 
 211:/home/christoschristoforou/STM32Cube/Repository/STM32Cube_FW_F4_V1.27.0/Drivers/STM32F4xx_HAL_Driver/Src/stm32f4xx_hal_rcc_ex.c ****       /* Wait for LSE reactivation if LSE was enable prior to Backup Domain reset */
 212:/home/christoschristoforou/STM32Cube/Repository/STM32Cube_FW_F4_V1.27.0/Drivers/STM32F4xx_HAL_Driver/Src/stm32f4xx_hal_rcc_ex.c ****       if(HAL_IS_BIT_SET(RCC->BDCR, RCC_BDCR_LSEON))
 525              		.loc 1 212 7 is_stmt 1 view .LVU147
 526              		.loc 1 212 10 is_stmt 0 view .LVU148
 527 02d8 1B6F     		ldr	r3, [r3, #112]
 528              		.loc 1 212 9 view .LVU149
 529 02da 13F0010F 		tst	r3, #1
 530 02de 40F08D80 		bne	.L94
 531              	.LVL31:
 532              	.L18:
 213:/home/christoschristoforou/STM32Cube/Repository/STM32Cube_FW_F4_V1.27.0/Drivers/STM32F4xx_HAL_Driver/Src/stm32f4xx_hal_rcc_ex.c ****       {
 214:/home/christoschristoforou/STM32Cube/Repository/STM32Cube_FW_F4_V1.27.0/Drivers/STM32F4xx_HAL_Driver/Src/stm32f4xx_hal_rcc_ex.c ****         /* Get tick */
 215:/home/christoschristoforou/STM32Cube/Repository/STM32Cube_FW_F4_V1.27.0/Drivers/STM32F4xx_HAL_Driver/Src/stm32f4xx_hal_rcc_ex.c ****         tickstart = HAL_GetTick();
 216:/home/christoschristoforou/STM32Cube/Repository/STM32Cube_FW_F4_V1.27.0/Drivers/STM32F4xx_HAL_Driver/Src/stm32f4xx_hal_rcc_ex.c **** 
 217:/home/christoschristoforou/STM32Cube/Repository/STM32Cube_FW_F4_V1.27.0/Drivers/STM32F4xx_HAL_Driver/Src/stm32f4xx_hal_rcc_ex.c ****         /* Wait till LSE is ready */
 218:/home/christoschristoforou/STM32Cube/Repository/STM32Cube_FW_F4_V1.27.0/Drivers/STM32F4xx_HAL_Driver/Src/stm32f4xx_hal_rcc_ex.c ****         while(__HAL_RCC_GET_FLAG(RCC_FLAG_LSERDY) == RESET)
 219:/home/christoschristoforou/STM32Cube/Repository/STM32Cube_FW_F4_V1.27.0/Drivers/STM32F4xx_HAL_Driver/Src/stm32f4xx_hal_rcc_ex.c ****         {
 220:/home/christoschristoforou/STM32Cube/Repository/STM32Cube_FW_F4_V1.27.0/Drivers/STM32F4xx_HAL_Driver/Src/stm32f4xx_hal_rcc_ex.c ****           if((HAL_GetTick() - tickstart ) > RCC_LSE_TIMEOUT_VALUE)
 221:/home/christoschristoforou/STM32Cube/Repository/STM32Cube_FW_F4_V1.27.0/Drivers/STM32F4xx_HAL_Driver/Src/stm32f4xx_hal_rcc_ex.c ****           {
 222:/home/christoschristoforou/STM32Cube/Repository/STM32Cube_FW_F4_V1.27.0/Drivers/STM32F4xx_HAL_Driver/Src/stm32f4xx_hal_rcc_ex.c ****             return HAL_TIMEOUT;
 223:/home/christoschristoforou/STM32Cube/Repository/STM32Cube_FW_F4_V1.27.0/Drivers/STM32F4xx_HAL_Driver/Src/stm32f4xx_hal_rcc_ex.c ****           }
 224:/home/christoschristoforou/STM32Cube/Repository/STM32Cube_FW_F4_V1.27.0/Drivers/STM32F4xx_HAL_Driver/Src/stm32f4xx_hal_rcc_ex.c ****         }
 225:/home/christoschristoforou/STM32Cube/Repository/STM32Cube_FW_F4_V1.27.0/Drivers/STM32F4xx_HAL_Driver/Src/stm32f4xx_hal_rcc_ex.c ****       }
 226:/home/christoschristoforou/STM32Cube/Repository/STM32Cube_FW_F4_V1.27.0/Drivers/STM32F4xx_HAL_Driver/Src/stm32f4xx_hal_rcc_ex.c ****     }
 227:/home/christoschristoforou/STM32Cube/Repository/STM32Cube_FW_F4_V1.27.0/Drivers/STM32F4xx_HAL_Driver/Src/stm32f4xx_hal_rcc_ex.c ****     __HAL_RCC_RTC_CONFIG(PeriphClkInit->RTCClockSelection);
 533              		.loc 1 227 5 is_stmt 1 view .LVU150
 534              		.loc 1 227 5 view .LVU151
 535 02e2 236C     		ldr	r3, [r4, #64]
 536 02e4 03F44072 		and	r2, r3, #768
 537 02e8 B2F5407F 		cmp	r2, #768
 538 02ec 00F09880 		beq	.L95
 539              		.loc 1 227 5 is_stmt 0 discriminator 2 view .LVU152
 540 02f0 694A     		ldr	r2, .L124
 541 02f2 9368     		ldr	r3, [r2, #8]
 542 02f4 23F4F813 		bic	r3, r3, #2031616
 543 02f8 9360     		str	r3, [r2, #8]
 544              	.L22:
 545              		.loc 1 227 5 is_stmt 1 discriminator 4 view .LVU153
ARM GAS  /tmp/ccbai6tv.s 			page 15


 546 02fa 6749     		ldr	r1, .L124
 547 02fc 0B6F     		ldr	r3, [r1, #112]
 548 02fe 226C     		ldr	r2, [r4, #64]
 549 0300 C2F30B02 		ubfx	r2, r2, #0, #12
 550 0304 1343     		orrs	r3, r3, r2
 551 0306 0B67     		str	r3, [r1, #112]
 552              	.LVL32:
 553              	.L13:
 554              		.loc 1 227 5 discriminator 5 view .LVU154
 228:/home/christoschristoforou/STM32Cube/Repository/STM32Cube_FW_F4_V1.27.0/Drivers/STM32F4xx_HAL_Driver/Src/stm32f4xx_hal_rcc_ex.c ****   }
 229:/home/christoschristoforou/STM32Cube/Repository/STM32Cube_FW_F4_V1.27.0/Drivers/STM32F4xx_HAL_Driver/Src/stm32f4xx_hal_rcc_ex.c ****   /*--------------------------------------------------------------------------*/
 230:/home/christoschristoforou/STM32Cube/Repository/STM32Cube_FW_F4_V1.27.0/Drivers/STM32F4xx_HAL_Driver/Src/stm32f4xx_hal_rcc_ex.c **** 
 231:/home/christoschristoforou/STM32Cube/Repository/STM32Cube_FW_F4_V1.27.0/Drivers/STM32F4xx_HAL_Driver/Src/stm32f4xx_hal_rcc_ex.c ****   /*---------------------------- TIM configuration ---------------------------*/
 232:/home/christoschristoforou/STM32Cube/Repository/STM32Cube_FW_F4_V1.27.0/Drivers/STM32F4xx_HAL_Driver/Src/stm32f4xx_hal_rcc_ex.c ****   if(((PeriphClkInit->PeriphClockSelection) & RCC_PERIPHCLK_TIM) == (RCC_PERIPHCLK_TIM))
 555              		.loc 1 232 3 discriminator 5 view .LVU155
 556              		.loc 1 232 21 is_stmt 0 discriminator 5 view .LVU156
 557 0308 2368     		ldr	r3, [r4]
 558              		.loc 1 232 5 discriminator 5 view .LVU157
 559 030a 13F0100F 		tst	r3, #16
 560 030e 03D0     		beq	.L23
 233:/home/christoschristoforou/STM32Cube/Repository/STM32Cube_FW_F4_V1.27.0/Drivers/STM32F4xx_HAL_Driver/Src/stm32f4xx_hal_rcc_ex.c ****   {
 234:/home/christoschristoforou/STM32Cube/Repository/STM32Cube_FW_F4_V1.27.0/Drivers/STM32F4xx_HAL_Driver/Src/stm32f4xx_hal_rcc_ex.c ****     /* Configure Timer Prescaler */
 235:/home/christoschristoforou/STM32Cube/Repository/STM32Cube_FW_F4_V1.27.0/Drivers/STM32F4xx_HAL_Driver/Src/stm32f4xx_hal_rcc_ex.c ****     __HAL_RCC_TIMCLKPRESCALER(PeriphClkInit->TIMPresSelection);
 561              		.loc 1 235 5 is_stmt 1 view .LVU158
 562 0310 94F85820 		ldrb	r2, [r4, #88]	@ zero_extendqisi2
 563 0314 624B     		ldr	r3, .L124+8
 564 0316 1A60     		str	r2, [r3]
 565              	.L23:
 236:/home/christoschristoforou/STM32Cube/Repository/STM32Cube_FW_F4_V1.27.0/Drivers/STM32F4xx_HAL_Driver/Src/stm32f4xx_hal_rcc_ex.c ****   }
 237:/home/christoschristoforou/STM32Cube/Repository/STM32Cube_FW_F4_V1.27.0/Drivers/STM32F4xx_HAL_Driver/Src/stm32f4xx_hal_rcc_ex.c ****   /*--------------------------------------------------------------------------*/
 238:/home/christoschristoforou/STM32Cube/Repository/STM32Cube_FW_F4_V1.27.0/Drivers/STM32F4xx_HAL_Driver/Src/stm32f4xx_hal_rcc_ex.c **** 
 239:/home/christoschristoforou/STM32Cube/Repository/STM32Cube_FW_F4_V1.27.0/Drivers/STM32F4xx_HAL_Driver/Src/stm32f4xx_hal_rcc_ex.c ****   /*---------------------------- FMPI2C1 Configuration -----------------------*/
 240:/home/christoschristoforou/STM32Cube/Repository/STM32Cube_FW_F4_V1.27.0/Drivers/STM32F4xx_HAL_Driver/Src/stm32f4xx_hal_rcc_ex.c ****   if(((PeriphClkInit->PeriphClockSelection) & RCC_PERIPHCLK_FMPI2C1) == RCC_PERIPHCLK_FMPI2C1)
 566              		.loc 1 240 3 view .LVU159
 567              		.loc 1 240 21 is_stmt 0 view .LVU160
 568 0318 2368     		ldr	r3, [r4]
 569              		.loc 1 240 5 view .LVU161
 570 031a 13F0800F 		tst	r3, #128
 571 031e 11D0     		beq	.L24
 241:/home/christoschristoforou/STM32Cube/Repository/STM32Cube_FW_F4_V1.27.0/Drivers/STM32F4xx_HAL_Driver/Src/stm32f4xx_hal_rcc_ex.c ****   {
 242:/home/christoschristoforou/STM32Cube/Repository/STM32Cube_FW_F4_V1.27.0/Drivers/STM32F4xx_HAL_Driver/Src/stm32f4xx_hal_rcc_ex.c ****     /* Check the parameters */
 243:/home/christoschristoforou/STM32Cube/Repository/STM32Cube_FW_F4_V1.27.0/Drivers/STM32F4xx_HAL_Driver/Src/stm32f4xx_hal_rcc_ex.c ****     assert_param(IS_RCC_FMPI2C1CLKSOURCE(PeriphClkInit->Fmpi2c1ClockSelection));
 572              		.loc 1 243 5 is_stmt 1 view .LVU162
 573 0320 E36C     		ldr	r3, [r4, #76]
 574 0322 33B1     		cbz	r3, .L25
 575              		.loc 1 243 5 is_stmt 0 discriminator 1 view .LVU163
 576 0324 B3F5800F 		cmp	r3, #4194304
 577 0328 03D0     		beq	.L25
 578              		.loc 1 243 5 discriminator 2 view .LVU164
 579 032a B3F5000F 		cmp	r3, #8388608
 580 032e 40F08280 		bne	.L96
 581              	.L25:
 244:/home/christoschristoforou/STM32Cube/Repository/STM32Cube_FW_F4_V1.27.0/Drivers/STM32F4xx_HAL_Driver/Src/stm32f4xx_hal_rcc_ex.c **** 
 245:/home/christoschristoforou/STM32Cube/Repository/STM32Cube_FW_F4_V1.27.0/Drivers/STM32F4xx_HAL_Driver/Src/stm32f4xx_hal_rcc_ex.c ****     /* Configure the FMPI2C1 clock source */
 246:/home/christoschristoforou/STM32Cube/Repository/STM32Cube_FW_F4_V1.27.0/Drivers/STM32F4xx_HAL_Driver/Src/stm32f4xx_hal_rcc_ex.c ****     __HAL_RCC_FMPI2C1_CONFIG(PeriphClkInit->Fmpi2c1ClockSelection);
 582              		.loc 1 246 5 is_stmt 1 view .LVU165
 583 0332 594A     		ldr	r2, .L124
ARM GAS  /tmp/ccbai6tv.s 			page 16


 584 0334 D2F89430 		ldr	r3, [r2, #148]
 585 0338 23F44003 		bic	r3, r3, #12582912
 586 033c E16C     		ldr	r1, [r4, #76]
 587 033e 0B43     		orrs	r3, r3, r1
 588 0340 C2F89430 		str	r3, [r2, #148]
 589              	.L24:
 247:/home/christoschristoforou/STM32Cube/Repository/STM32Cube_FW_F4_V1.27.0/Drivers/STM32F4xx_HAL_Driver/Src/stm32f4xx_hal_rcc_ex.c ****   }
 248:/home/christoschristoforou/STM32Cube/Repository/STM32Cube_FW_F4_V1.27.0/Drivers/STM32F4xx_HAL_Driver/Src/stm32f4xx_hal_rcc_ex.c ****   /*--------------------------------------------------------------------------*/
 249:/home/christoschristoforou/STM32Cube/Repository/STM32Cube_FW_F4_V1.27.0/Drivers/STM32F4xx_HAL_Driver/Src/stm32f4xx_hal_rcc_ex.c **** 
 250:/home/christoschristoforou/STM32Cube/Repository/STM32Cube_FW_F4_V1.27.0/Drivers/STM32F4xx_HAL_Driver/Src/stm32f4xx_hal_rcc_ex.c ****   /*------------------------------ CEC Configuration -------------------------*/
 251:/home/christoschristoforou/STM32Cube/Repository/STM32Cube_FW_F4_V1.27.0/Drivers/STM32F4xx_HAL_Driver/Src/stm32f4xx_hal_rcc_ex.c ****   if(((PeriphClkInit->PeriphClockSelection) & RCC_PERIPHCLK_CEC) == RCC_PERIPHCLK_CEC)
 590              		.loc 1 251 3 view .LVU166
 591              		.loc 1 251 21 is_stmt 0 view .LVU167
 592 0344 2368     		ldr	r3, [r4]
 593              		.loc 1 251 5 view .LVU168
 594 0346 13F0400F 		tst	r3, #64
 595 034a 0DD0     		beq	.L26
 252:/home/christoschristoforou/STM32Cube/Repository/STM32Cube_FW_F4_V1.27.0/Drivers/STM32F4xx_HAL_Driver/Src/stm32f4xx_hal_rcc_ex.c ****   {
 253:/home/christoschristoforou/STM32Cube/Repository/STM32Cube_FW_F4_V1.27.0/Drivers/STM32F4xx_HAL_Driver/Src/stm32f4xx_hal_rcc_ex.c ****     /* Check the parameters */
 254:/home/christoschristoforou/STM32Cube/Repository/STM32Cube_FW_F4_V1.27.0/Drivers/STM32F4xx_HAL_Driver/Src/stm32f4xx_hal_rcc_ex.c ****     assert_param(IS_RCC_CECCLKSOURCE(PeriphClkInit->CecClockSelection));
 596              		.loc 1 254 5 is_stmt 1 view .LVU169
 597 034c A36C     		ldr	r3, [r4, #72]
 598 034e 13B1     		cbz	r3, .L27
 599              		.loc 1 254 5 is_stmt 0 discriminator 1 view .LVU170
 600 0350 B3F1806F 		cmp	r3, #67108864
 601 0354 74D1     		bne	.L97
 602              	.L27:
 255:/home/christoschristoforou/STM32Cube/Repository/STM32Cube_FW_F4_V1.27.0/Drivers/STM32F4xx_HAL_Driver/Src/stm32f4xx_hal_rcc_ex.c **** 
 256:/home/christoschristoforou/STM32Cube/Repository/STM32Cube_FW_F4_V1.27.0/Drivers/STM32F4xx_HAL_Driver/Src/stm32f4xx_hal_rcc_ex.c ****     /* Configure the CEC clock source */
 257:/home/christoschristoforou/STM32Cube/Repository/STM32Cube_FW_F4_V1.27.0/Drivers/STM32F4xx_HAL_Driver/Src/stm32f4xx_hal_rcc_ex.c ****     __HAL_RCC_CEC_CONFIG(PeriphClkInit->CecClockSelection);
 603              		.loc 1 257 5 is_stmt 1 view .LVU171
 604 0356 504A     		ldr	r2, .L124
 605 0358 D2F89430 		ldr	r3, [r2, #148]
 606 035c 23F08063 		bic	r3, r3, #67108864
 607 0360 A16C     		ldr	r1, [r4, #72]
 608 0362 0B43     		orrs	r3, r3, r1
 609 0364 C2F89430 		str	r3, [r2, #148]
 610              	.L26:
 258:/home/christoschristoforou/STM32Cube/Repository/STM32Cube_FW_F4_V1.27.0/Drivers/STM32F4xx_HAL_Driver/Src/stm32f4xx_hal_rcc_ex.c ****   }
 259:/home/christoschristoforou/STM32Cube/Repository/STM32Cube_FW_F4_V1.27.0/Drivers/STM32F4xx_HAL_Driver/Src/stm32f4xx_hal_rcc_ex.c ****   /*--------------------------------------------------------------------------*/
 260:/home/christoschristoforou/STM32Cube/Repository/STM32Cube_FW_F4_V1.27.0/Drivers/STM32F4xx_HAL_Driver/Src/stm32f4xx_hal_rcc_ex.c **** 
 261:/home/christoschristoforou/STM32Cube/Repository/STM32Cube_FW_F4_V1.27.0/Drivers/STM32F4xx_HAL_Driver/Src/stm32f4xx_hal_rcc_ex.c ****   /*----------------------------- CLK48 Configuration ------------------------*/
 262:/home/christoschristoforou/STM32Cube/Repository/STM32Cube_FW_F4_V1.27.0/Drivers/STM32F4xx_HAL_Driver/Src/stm32f4xx_hal_rcc_ex.c ****   if(((PeriphClkInit->PeriphClockSelection) & RCC_PERIPHCLK_CLK48) == RCC_PERIPHCLK_CLK48)
 611              		.loc 1 262 3 view .LVU172
 612              		.loc 1 262 21 is_stmt 0 view .LVU173
 613 0368 2368     		ldr	r3, [r4]
 614              		.loc 1 262 5 view .LVU174
 615 036a 13F4807F 		tst	r3, #256
 616 036e 11D0     		beq	.L28
 263:/home/christoschristoforou/STM32Cube/Repository/STM32Cube_FW_F4_V1.27.0/Drivers/STM32F4xx_HAL_Driver/Src/stm32f4xx_hal_rcc_ex.c ****   {
 264:/home/christoschristoforou/STM32Cube/Repository/STM32Cube_FW_F4_V1.27.0/Drivers/STM32F4xx_HAL_Driver/Src/stm32f4xx_hal_rcc_ex.c ****     /* Check the parameters */
 265:/home/christoschristoforou/STM32Cube/Repository/STM32Cube_FW_F4_V1.27.0/Drivers/STM32F4xx_HAL_Driver/Src/stm32f4xx_hal_rcc_ex.c ****     assert_param(IS_RCC_CLK48CLKSOURCE(PeriphClkInit->Clk48ClockSelection));
 617              		.loc 1 265 5 is_stmt 1 view .LVU175
 618 0370 636D     		ldr	r3, [r4, #84]
 619 0372 13B1     		cbz	r3, .L29
 620              		.loc 1 265 5 is_stmt 0 discriminator 1 view .LVU176
 621 0374 B3F1006F 		cmp	r3, #134217728
ARM GAS  /tmp/ccbai6tv.s 			page 17


 622 0378 67D1     		bne	.L98
 623              	.L29:
 266:/home/christoschristoforou/STM32Cube/Repository/STM32Cube_FW_F4_V1.27.0/Drivers/STM32F4xx_HAL_Driver/Src/stm32f4xx_hal_rcc_ex.c **** 
 267:/home/christoschristoforou/STM32Cube/Repository/STM32Cube_FW_F4_V1.27.0/Drivers/STM32F4xx_HAL_Driver/Src/stm32f4xx_hal_rcc_ex.c ****     /* Configure the CLK48 clock source */
 268:/home/christoschristoforou/STM32Cube/Repository/STM32Cube_FW_F4_V1.27.0/Drivers/STM32F4xx_HAL_Driver/Src/stm32f4xx_hal_rcc_ex.c ****     __HAL_RCC_CLK48_CONFIG(PeriphClkInit->Clk48ClockSelection);
 624              		.loc 1 268 5 is_stmt 1 view .LVU177
 625 037a 474A     		ldr	r2, .L124
 626 037c D2F89430 		ldr	r3, [r2, #148]
 627 0380 23F00063 		bic	r3, r3, #134217728
 628 0384 616D     		ldr	r1, [r4, #84]
 629 0386 0B43     		orrs	r3, r3, r1
 630 0388 C2F89430 		str	r3, [r2, #148]
 269:/home/christoschristoforou/STM32Cube/Repository/STM32Cube_FW_F4_V1.27.0/Drivers/STM32F4xx_HAL_Driver/Src/stm32f4xx_hal_rcc_ex.c **** 
 270:/home/christoschristoforou/STM32Cube/Repository/STM32Cube_FW_F4_V1.27.0/Drivers/STM32F4xx_HAL_Driver/Src/stm32f4xx_hal_rcc_ex.c ****     /* Enable the PLLSAI when it's used as clock source for CLK48 */
 271:/home/christoschristoforou/STM32Cube/Repository/STM32Cube_FW_F4_V1.27.0/Drivers/STM32F4xx_HAL_Driver/Src/stm32f4xx_hal_rcc_ex.c ****     if(PeriphClkInit->Clk48ClockSelection == RCC_CLK48CLKSOURCE_PLLSAIP)
 631              		.loc 1 271 5 view .LVU178
 632              		.loc 1 271 21 is_stmt 0 view .LVU179
 633 038c 636D     		ldr	r3, [r4, #84]
 634              		.loc 1 271 7 view .LVU180
 635 038e B3F1006F 		cmp	r3, #134217728
 636 0392 60D0     		beq	.L99
 637              	.LVL33:
 638              	.L28:
 272:/home/christoschristoforou/STM32Cube/Repository/STM32Cube_FW_F4_V1.27.0/Drivers/STM32F4xx_HAL_Driver/Src/stm32f4xx_hal_rcc_ex.c ****     {
 273:/home/christoschristoforou/STM32Cube/Repository/STM32Cube_FW_F4_V1.27.0/Drivers/STM32F4xx_HAL_Driver/Src/stm32f4xx_hal_rcc_ex.c ****       pllsaiused = 1U;
 274:/home/christoschristoforou/STM32Cube/Repository/STM32Cube_FW_F4_V1.27.0/Drivers/STM32F4xx_HAL_Driver/Src/stm32f4xx_hal_rcc_ex.c ****     }
 275:/home/christoschristoforou/STM32Cube/Repository/STM32Cube_FW_F4_V1.27.0/Drivers/STM32F4xx_HAL_Driver/Src/stm32f4xx_hal_rcc_ex.c ****   }
 276:/home/christoschristoforou/STM32Cube/Repository/STM32Cube_FW_F4_V1.27.0/Drivers/STM32F4xx_HAL_Driver/Src/stm32f4xx_hal_rcc_ex.c ****   /*--------------------------------------------------------------------------*/
 277:/home/christoschristoforou/STM32Cube/Repository/STM32Cube_FW_F4_V1.27.0/Drivers/STM32F4xx_HAL_Driver/Src/stm32f4xx_hal_rcc_ex.c **** 
 278:/home/christoschristoforou/STM32Cube/Repository/STM32Cube_FW_F4_V1.27.0/Drivers/STM32F4xx_HAL_Driver/Src/stm32f4xx_hal_rcc_ex.c ****   /*----------------------------- SDIO Configuration -------------------------*/
 279:/home/christoschristoforou/STM32Cube/Repository/STM32Cube_FW_F4_V1.27.0/Drivers/STM32F4xx_HAL_Driver/Src/stm32f4xx_hal_rcc_ex.c ****   if(((PeriphClkInit->PeriphClockSelection) & RCC_PERIPHCLK_SDIO) == RCC_PERIPHCLK_SDIO)
 639              		.loc 1 279 3 is_stmt 1 view .LVU181
 640              		.loc 1 279 21 is_stmt 0 view .LVU182
 641 0394 2368     		ldr	r3, [r4]
 642              		.loc 1 279 5 view .LVU183
 643 0396 13F4007F 		tst	r3, #512
 644 039a 0DD0     		beq	.L30
 280:/home/christoschristoforou/STM32Cube/Repository/STM32Cube_FW_F4_V1.27.0/Drivers/STM32F4xx_HAL_Driver/Src/stm32f4xx_hal_rcc_ex.c ****   {
 281:/home/christoschristoforou/STM32Cube/Repository/STM32Cube_FW_F4_V1.27.0/Drivers/STM32F4xx_HAL_Driver/Src/stm32f4xx_hal_rcc_ex.c ****     /* Check the parameters */
 282:/home/christoschristoforou/STM32Cube/Repository/STM32Cube_FW_F4_V1.27.0/Drivers/STM32F4xx_HAL_Driver/Src/stm32f4xx_hal_rcc_ex.c ****     assert_param(IS_RCC_SDIOCLKSOURCE(PeriphClkInit->SdioClockSelection));
 645              		.loc 1 282 5 is_stmt 1 view .LVU184
 646 039c 636C     		ldr	r3, [r4, #68]
 647 039e 13B1     		cbz	r3, .L31
 648              		.loc 1 282 5 is_stmt 0 discriminator 1 view .LVU185
 649 03a0 B3F1805F 		cmp	r3, #268435456
 650 03a4 59D1     		bne	.L100
 651              	.L31:
 283:/home/christoschristoforou/STM32Cube/Repository/STM32Cube_FW_F4_V1.27.0/Drivers/STM32F4xx_HAL_Driver/Src/stm32f4xx_hal_rcc_ex.c **** 
 284:/home/christoschristoforou/STM32Cube/Repository/STM32Cube_FW_F4_V1.27.0/Drivers/STM32F4xx_HAL_Driver/Src/stm32f4xx_hal_rcc_ex.c ****     /* Configure the SDIO clock source */
 285:/home/christoschristoforou/STM32Cube/Repository/STM32Cube_FW_F4_V1.27.0/Drivers/STM32F4xx_HAL_Driver/Src/stm32f4xx_hal_rcc_ex.c ****     __HAL_RCC_SDIO_CONFIG(PeriphClkInit->SdioClockSelection);
 652              		.loc 1 285 5 is_stmt 1 view .LVU186
 653 03a6 3C4A     		ldr	r2, .L124
 654 03a8 D2F89430 		ldr	r3, [r2, #148]
 655 03ac 23F08053 		bic	r3, r3, #268435456
 656 03b0 616C     		ldr	r1, [r4, #68]
 657 03b2 0B43     		orrs	r3, r3, r1
 658 03b4 C2F89430 		str	r3, [r2, #148]
ARM GAS  /tmp/ccbai6tv.s 			page 18


 659              	.L30:
 286:/home/christoschristoforou/STM32Cube/Repository/STM32Cube_FW_F4_V1.27.0/Drivers/STM32F4xx_HAL_Driver/Src/stm32f4xx_hal_rcc_ex.c ****   }
 287:/home/christoschristoforou/STM32Cube/Repository/STM32Cube_FW_F4_V1.27.0/Drivers/STM32F4xx_HAL_Driver/Src/stm32f4xx_hal_rcc_ex.c ****   /*--------------------------------------------------------------------------*/
 288:/home/christoschristoforou/STM32Cube/Repository/STM32Cube_FW_F4_V1.27.0/Drivers/STM32F4xx_HAL_Driver/Src/stm32f4xx_hal_rcc_ex.c **** 
 289:/home/christoschristoforou/STM32Cube/Repository/STM32Cube_FW_F4_V1.27.0/Drivers/STM32F4xx_HAL_Driver/Src/stm32f4xx_hal_rcc_ex.c ****   /*------------------------------ SPDIFRX Configuration ---------------------*/
 290:/home/christoschristoforou/STM32Cube/Repository/STM32Cube_FW_F4_V1.27.0/Drivers/STM32F4xx_HAL_Driver/Src/stm32f4xx_hal_rcc_ex.c ****   if(((PeriphClkInit->PeriphClockSelection) & RCC_PERIPHCLK_SPDIFRX) == RCC_PERIPHCLK_SPDIFRX)
 660              		.loc 1 290 3 view .LVU187
 661              		.loc 1 290 21 is_stmt 0 view .LVU188
 662 03b8 2368     		ldr	r3, [r4]
 663              		.loc 1 290 5 view .LVU189
 664 03ba 13F4806F 		tst	r3, #1024
 665 03be 11D0     		beq	.L32
 291:/home/christoschristoforou/STM32Cube/Repository/STM32Cube_FW_F4_V1.27.0/Drivers/STM32F4xx_HAL_Driver/Src/stm32f4xx_hal_rcc_ex.c ****   {
 292:/home/christoschristoforou/STM32Cube/Repository/STM32Cube_FW_F4_V1.27.0/Drivers/STM32F4xx_HAL_Driver/Src/stm32f4xx_hal_rcc_ex.c ****     /* Check the parameters */
 293:/home/christoschristoforou/STM32Cube/Repository/STM32Cube_FW_F4_V1.27.0/Drivers/STM32F4xx_HAL_Driver/Src/stm32f4xx_hal_rcc_ex.c ****     assert_param(IS_RCC_SPDIFRXCLKSOURCE(PeriphClkInit->SpdifClockSelection));
 666              		.loc 1 293 5 is_stmt 1 view .LVU190
 667 03c0 236D     		ldr	r3, [r4, #80]
 668 03c2 13B1     		cbz	r3, .L33
 669              		.loc 1 293 5 is_stmt 0 discriminator 1 view .LVU191
 670 03c4 B3F1005F 		cmp	r3, #536870912
 671 03c8 4DD1     		bne	.L101
 672              	.L33:
 294:/home/christoschristoforou/STM32Cube/Repository/STM32Cube_FW_F4_V1.27.0/Drivers/STM32F4xx_HAL_Driver/Src/stm32f4xx_hal_rcc_ex.c **** 
 295:/home/christoschristoforou/STM32Cube/Repository/STM32Cube_FW_F4_V1.27.0/Drivers/STM32F4xx_HAL_Driver/Src/stm32f4xx_hal_rcc_ex.c ****     /* Configure the SPDIFRX clock source */
 296:/home/christoschristoforou/STM32Cube/Repository/STM32Cube_FW_F4_V1.27.0/Drivers/STM32F4xx_HAL_Driver/Src/stm32f4xx_hal_rcc_ex.c ****     __HAL_RCC_SPDIFRX_CONFIG(PeriphClkInit->SpdifClockSelection);
 673              		.loc 1 296 5 is_stmt 1 view .LVU192
 674 03ca 334A     		ldr	r2, .L124
 675 03cc D2F89430 		ldr	r3, [r2, #148]
 676 03d0 23F00053 		bic	r3, r3, #536870912
 677 03d4 216D     		ldr	r1, [r4, #80]
 678 03d6 0B43     		orrs	r3, r3, r1
 679 03d8 C2F89430 		str	r3, [r2, #148]
 297:/home/christoschristoforou/STM32Cube/Repository/STM32Cube_FW_F4_V1.27.0/Drivers/STM32F4xx_HAL_Driver/Src/stm32f4xx_hal_rcc_ex.c ****     /* Enable the PLLI2S when it's used as clock source for SPDIFRX */
 298:/home/christoschristoforou/STM32Cube/Repository/STM32Cube_FW_F4_V1.27.0/Drivers/STM32F4xx_HAL_Driver/Src/stm32f4xx_hal_rcc_ex.c ****     if(PeriphClkInit->SpdifClockSelection == RCC_SPDIFRXCLKSOURCE_PLLI2SP)
 680              		.loc 1 298 5 view .LVU193
 681              		.loc 1 298 21 is_stmt 0 view .LVU194
 682 03dc 236D     		ldr	r3, [r4, #80]
 683              		.loc 1 298 7 view .LVU195
 684 03de B3F1005F 		cmp	r3, #536870912
 685 03e2 46D0     		beq	.L34
 686              	.L32:
 299:/home/christoschristoforou/STM32Cube/Repository/STM32Cube_FW_F4_V1.27.0/Drivers/STM32F4xx_HAL_Driver/Src/stm32f4xx_hal_rcc_ex.c ****     {
 300:/home/christoschristoforou/STM32Cube/Repository/STM32Cube_FW_F4_V1.27.0/Drivers/STM32F4xx_HAL_Driver/Src/stm32f4xx_hal_rcc_ex.c ****       plli2sused = 1U;
 301:/home/christoschristoforou/STM32Cube/Repository/STM32Cube_FW_F4_V1.27.0/Drivers/STM32F4xx_HAL_Driver/Src/stm32f4xx_hal_rcc_ex.c ****     }
 302:/home/christoschristoforou/STM32Cube/Repository/STM32Cube_FW_F4_V1.27.0/Drivers/STM32F4xx_HAL_Driver/Src/stm32f4xx_hal_rcc_ex.c ****   }
 303:/home/christoschristoforou/STM32Cube/Repository/STM32Cube_FW_F4_V1.27.0/Drivers/STM32F4xx_HAL_Driver/Src/stm32f4xx_hal_rcc_ex.c ****   /*--------------------------------------------------------------------------*/
 304:/home/christoschristoforou/STM32Cube/Repository/STM32Cube_FW_F4_V1.27.0/Drivers/STM32F4xx_HAL_Driver/Src/stm32f4xx_hal_rcc_ex.c **** 
 305:/home/christoschristoforou/STM32Cube/Repository/STM32Cube_FW_F4_V1.27.0/Drivers/STM32F4xx_HAL_Driver/Src/stm32f4xx_hal_rcc_ex.c ****   /*---------------------------- PLLI2S Configuration ------------------------*/
 306:/home/christoschristoforou/STM32Cube/Repository/STM32Cube_FW_F4_V1.27.0/Drivers/STM32F4xx_HAL_Driver/Src/stm32f4xx_hal_rcc_ex.c ****   /* PLLI2S is configured when a peripheral will use it as source clock : SAI1, SAI2, I2S on APB1,
 307:/home/christoschristoforou/STM32Cube/Repository/STM32Cube_FW_F4_V1.27.0/Drivers/STM32F4xx_HAL_Driver/Src/stm32f4xx_hal_rcc_ex.c ****      I2S on APB2 or SPDIFRX */
 308:/home/christoschristoforou/STM32Cube/Repository/STM32Cube_FW_F4_V1.27.0/Drivers/STM32F4xx_HAL_Driver/Src/stm32f4xx_hal_rcc_ex.c ****   if((plli2sused == 1U) || (PeriphClkInit->PeriphClockSelection == RCC_PERIPHCLK_PLLI2S))
 687              		.loc 1 308 3 is_stmt 1 view .LVU196
 688              		.loc 1 308 5 is_stmt 0 view .LVU197
 689 03e4 002F     		cmp	r7, #0
 690 03e6 44D1     		bne	.L34
 691              		.loc 1 308 42 discriminator 1 view .LVU198
 692 03e8 2368     		ldr	r3, [r4]
ARM GAS  /tmp/ccbai6tv.s 			page 19


 693              		.loc 1 308 25 discriminator 1 view .LVU199
 694 03ea B3F5006F 		cmp	r3, #2048
 695 03ee 40D0     		beq	.L34
 696              	.LVL34:
 697              	.L35:
 309:/home/christoschristoforou/STM32Cube/Repository/STM32Cube_FW_F4_V1.27.0/Drivers/STM32F4xx_HAL_Driver/Src/stm32f4xx_hal_rcc_ex.c ****   {
 310:/home/christoschristoforou/STM32Cube/Repository/STM32Cube_FW_F4_V1.27.0/Drivers/STM32F4xx_HAL_Driver/Src/stm32f4xx_hal_rcc_ex.c ****     /* Disable the PLLI2S */
 311:/home/christoschristoforou/STM32Cube/Repository/STM32Cube_FW_F4_V1.27.0/Drivers/STM32F4xx_HAL_Driver/Src/stm32f4xx_hal_rcc_ex.c ****     __HAL_RCC_PLLI2S_DISABLE();
 312:/home/christoschristoforou/STM32Cube/Repository/STM32Cube_FW_F4_V1.27.0/Drivers/STM32F4xx_HAL_Driver/Src/stm32f4xx_hal_rcc_ex.c ****     /* Get tick */
 313:/home/christoschristoforou/STM32Cube/Repository/STM32Cube_FW_F4_V1.27.0/Drivers/STM32F4xx_HAL_Driver/Src/stm32f4xx_hal_rcc_ex.c ****     tickstart = HAL_GetTick();
 314:/home/christoschristoforou/STM32Cube/Repository/STM32Cube_FW_F4_V1.27.0/Drivers/STM32F4xx_HAL_Driver/Src/stm32f4xx_hal_rcc_ex.c ****     /* Wait till PLLI2S is disabled */
 315:/home/christoschristoforou/STM32Cube/Repository/STM32Cube_FW_F4_V1.27.0/Drivers/STM32F4xx_HAL_Driver/Src/stm32f4xx_hal_rcc_ex.c ****     while(__HAL_RCC_GET_FLAG(RCC_FLAG_PLLI2SRDY)  != RESET)
 316:/home/christoschristoforou/STM32Cube/Repository/STM32Cube_FW_F4_V1.27.0/Drivers/STM32F4xx_HAL_Driver/Src/stm32f4xx_hal_rcc_ex.c ****     {
 317:/home/christoschristoforou/STM32Cube/Repository/STM32Cube_FW_F4_V1.27.0/Drivers/STM32F4xx_HAL_Driver/Src/stm32f4xx_hal_rcc_ex.c ****       if((HAL_GetTick() - tickstart ) > PLLI2S_TIMEOUT_VALUE)
 318:/home/christoschristoforou/STM32Cube/Repository/STM32Cube_FW_F4_V1.27.0/Drivers/STM32F4xx_HAL_Driver/Src/stm32f4xx_hal_rcc_ex.c ****       {
 319:/home/christoschristoforou/STM32Cube/Repository/STM32Cube_FW_F4_V1.27.0/Drivers/STM32F4xx_HAL_Driver/Src/stm32f4xx_hal_rcc_ex.c ****         /* return in case of Timeout detected */
 320:/home/christoschristoforou/STM32Cube/Repository/STM32Cube_FW_F4_V1.27.0/Drivers/STM32F4xx_HAL_Driver/Src/stm32f4xx_hal_rcc_ex.c ****         return HAL_TIMEOUT;
 321:/home/christoschristoforou/STM32Cube/Repository/STM32Cube_FW_F4_V1.27.0/Drivers/STM32F4xx_HAL_Driver/Src/stm32f4xx_hal_rcc_ex.c ****       }
 322:/home/christoschristoforou/STM32Cube/Repository/STM32Cube_FW_F4_V1.27.0/Drivers/STM32F4xx_HAL_Driver/Src/stm32f4xx_hal_rcc_ex.c ****     }
 323:/home/christoschristoforou/STM32Cube/Repository/STM32Cube_FW_F4_V1.27.0/Drivers/STM32F4xx_HAL_Driver/Src/stm32f4xx_hal_rcc_ex.c **** 
 324:/home/christoschristoforou/STM32Cube/Repository/STM32Cube_FW_F4_V1.27.0/Drivers/STM32F4xx_HAL_Driver/Src/stm32f4xx_hal_rcc_ex.c ****     /* check for common PLLI2S Parameters */
 325:/home/christoschristoforou/STM32Cube/Repository/STM32Cube_FW_F4_V1.27.0/Drivers/STM32F4xx_HAL_Driver/Src/stm32f4xx_hal_rcc_ex.c ****     assert_param(IS_RCC_PLLI2SM_VALUE(PeriphClkInit->PLLI2S.PLLI2SM));
 326:/home/christoschristoforou/STM32Cube/Repository/STM32Cube_FW_F4_V1.27.0/Drivers/STM32F4xx_HAL_Driver/Src/stm32f4xx_hal_rcc_ex.c ****     assert_param(IS_RCC_PLLI2SN_VALUE(PeriphClkInit->PLLI2S.PLLI2SN));
 327:/home/christoschristoforou/STM32Cube/Repository/STM32Cube_FW_F4_V1.27.0/Drivers/STM32F4xx_HAL_Driver/Src/stm32f4xx_hal_rcc_ex.c **** 
 328:/home/christoschristoforou/STM32Cube/Repository/STM32Cube_FW_F4_V1.27.0/Drivers/STM32F4xx_HAL_Driver/Src/stm32f4xx_hal_rcc_ex.c ****     /*------ In Case of PLLI2S is selected as source clock for I2S -----------*/
 329:/home/christoschristoforou/STM32Cube/Repository/STM32Cube_FW_F4_V1.27.0/Drivers/STM32F4xx_HAL_Driver/Src/stm32f4xx_hal_rcc_ex.c ****     if(((((PeriphClkInit->PeriphClockSelection) & RCC_PERIPHCLK_I2S_APB1) == RCC_PERIPHCLK_I2S_APB1
 330:/home/christoschristoforou/STM32Cube/Repository/STM32Cube_FW_F4_V1.27.0/Drivers/STM32F4xx_HAL_Driver/Src/stm32f4xx_hal_rcc_ex.c ****        ((((PeriphClkInit->PeriphClockSelection) & RCC_PERIPHCLK_I2S_APB2) == RCC_PERIPHCLK_I2S_APB2
 331:/home/christoschristoforou/STM32Cube/Repository/STM32Cube_FW_F4_V1.27.0/Drivers/STM32F4xx_HAL_Driver/Src/stm32f4xx_hal_rcc_ex.c ****     {
 332:/home/christoschristoforou/STM32Cube/Repository/STM32Cube_FW_F4_V1.27.0/Drivers/STM32F4xx_HAL_Driver/Src/stm32f4xx_hal_rcc_ex.c ****       /* check for Parameters */
 333:/home/christoschristoforou/STM32Cube/Repository/STM32Cube_FW_F4_V1.27.0/Drivers/STM32F4xx_HAL_Driver/Src/stm32f4xx_hal_rcc_ex.c ****       assert_param(IS_RCC_PLLI2SR_VALUE(PeriphClkInit->PLLI2S.PLLI2SR));
 334:/home/christoschristoforou/STM32Cube/Repository/STM32Cube_FW_F4_V1.27.0/Drivers/STM32F4xx_HAL_Driver/Src/stm32f4xx_hal_rcc_ex.c **** 
 335:/home/christoschristoforou/STM32Cube/Repository/STM32Cube_FW_F4_V1.27.0/Drivers/STM32F4xx_HAL_Driver/Src/stm32f4xx_hal_rcc_ex.c ****       /* Read PLLI2SP/PLLI2SQ value from PLLI2SCFGR register (this value is not needed for I2S conf
 336:/home/christoschristoforou/STM32Cube/Repository/STM32Cube_FW_F4_V1.27.0/Drivers/STM32F4xx_HAL_Driver/Src/stm32f4xx_hal_rcc_ex.c ****       plli2sp = ((((RCC->PLLI2SCFGR & RCC_PLLI2SCFGR_PLLI2SP) >> RCC_PLLI2SCFGR_PLLI2SP_Pos) + 1U) 
 337:/home/christoschristoforou/STM32Cube/Repository/STM32Cube_FW_F4_V1.27.0/Drivers/STM32F4xx_HAL_Driver/Src/stm32f4xx_hal_rcc_ex.c ****       plli2sq = ((RCC->PLLI2SCFGR & RCC_PLLI2SCFGR_PLLI2SQ) >> RCC_PLLI2SCFGR_PLLI2SQ_Pos);
 338:/home/christoschristoforou/STM32Cube/Repository/STM32Cube_FW_F4_V1.27.0/Drivers/STM32F4xx_HAL_Driver/Src/stm32f4xx_hal_rcc_ex.c ****       /* Configure the PLLI2S division factors */
 339:/home/christoschristoforou/STM32Cube/Repository/STM32Cube_FW_F4_V1.27.0/Drivers/STM32F4xx_HAL_Driver/Src/stm32f4xx_hal_rcc_ex.c ****       /* PLLI2S_VCO = f(VCO clock) = f(PLLI2S clock input) * (PLLI2SN/PLLI2SM) */
 340:/home/christoschristoforou/STM32Cube/Repository/STM32Cube_FW_F4_V1.27.0/Drivers/STM32F4xx_HAL_Driver/Src/stm32f4xx_hal_rcc_ex.c ****       /* I2SCLK = f(PLLI2S clock output) = f(VCO clock) / PLLI2SR */
 341:/home/christoschristoforou/STM32Cube/Repository/STM32Cube_FW_F4_V1.27.0/Drivers/STM32F4xx_HAL_Driver/Src/stm32f4xx_hal_rcc_ex.c ****       __HAL_RCC_PLLI2S_CONFIG(PeriphClkInit->PLLI2S.PLLI2SM, PeriphClkInit->PLLI2S.PLLI2SN , plli2s
 342:/home/christoschristoforou/STM32Cube/Repository/STM32Cube_FW_F4_V1.27.0/Drivers/STM32F4xx_HAL_Driver/Src/stm32f4xx_hal_rcc_ex.c ****     }
 343:/home/christoschristoforou/STM32Cube/Repository/STM32Cube_FW_F4_V1.27.0/Drivers/STM32F4xx_HAL_Driver/Src/stm32f4xx_hal_rcc_ex.c **** 
 344:/home/christoschristoforou/STM32Cube/Repository/STM32Cube_FW_F4_V1.27.0/Drivers/STM32F4xx_HAL_Driver/Src/stm32f4xx_hal_rcc_ex.c ****     /*------- In Case of PLLI2S is selected as source clock for SAI ----------*/
 345:/home/christoschristoforou/STM32Cube/Repository/STM32Cube_FW_F4_V1.27.0/Drivers/STM32F4xx_HAL_Driver/Src/stm32f4xx_hal_rcc_ex.c ****     if(((((PeriphClkInit->PeriphClockSelection) & RCC_PERIPHCLK_SAI1) == RCC_PERIPHCLK_SAI1) && (Pe
 346:/home/christoschristoforou/STM32Cube/Repository/STM32Cube_FW_F4_V1.27.0/Drivers/STM32F4xx_HAL_Driver/Src/stm32f4xx_hal_rcc_ex.c ****        ((((PeriphClkInit->PeriphClockSelection) & RCC_PERIPHCLK_SAI2) == RCC_PERIPHCLK_SAI2) && (Pe
 347:/home/christoschristoforou/STM32Cube/Repository/STM32Cube_FW_F4_V1.27.0/Drivers/STM32F4xx_HAL_Driver/Src/stm32f4xx_hal_rcc_ex.c ****     {
 348:/home/christoschristoforou/STM32Cube/Repository/STM32Cube_FW_F4_V1.27.0/Drivers/STM32F4xx_HAL_Driver/Src/stm32f4xx_hal_rcc_ex.c ****       /* Check for PLLI2S Parameters */
 349:/home/christoschristoforou/STM32Cube/Repository/STM32Cube_FW_F4_V1.27.0/Drivers/STM32F4xx_HAL_Driver/Src/stm32f4xx_hal_rcc_ex.c ****       assert_param(IS_RCC_PLLI2SQ_VALUE(PeriphClkInit->PLLI2S.PLLI2SQ));
 350:/home/christoschristoforou/STM32Cube/Repository/STM32Cube_FW_F4_V1.27.0/Drivers/STM32F4xx_HAL_Driver/Src/stm32f4xx_hal_rcc_ex.c ****       /* Check for PLLI2S/DIVQ parameters */
 351:/home/christoschristoforou/STM32Cube/Repository/STM32Cube_FW_F4_V1.27.0/Drivers/STM32F4xx_HAL_Driver/Src/stm32f4xx_hal_rcc_ex.c ****       assert_param(IS_RCC_PLLI2S_DIVQ_VALUE(PeriphClkInit->PLLI2SDivQ));
 352:/home/christoschristoforou/STM32Cube/Repository/STM32Cube_FW_F4_V1.27.0/Drivers/STM32F4xx_HAL_Driver/Src/stm32f4xx_hal_rcc_ex.c **** 
 353:/home/christoschristoforou/STM32Cube/Repository/STM32Cube_FW_F4_V1.27.0/Drivers/STM32F4xx_HAL_Driver/Src/stm32f4xx_hal_rcc_ex.c ****       /* Read PLLI2SP/PLLI2SR value from PLLI2SCFGR register (this value is not needed for SAI conf
 354:/home/christoschristoforou/STM32Cube/Repository/STM32Cube_FW_F4_V1.27.0/Drivers/STM32F4xx_HAL_Driver/Src/stm32f4xx_hal_rcc_ex.c ****       plli2sp = ((((RCC->PLLI2SCFGR & RCC_PLLI2SCFGR_PLLI2SP) >> RCC_PLLI2SCFGR_PLLI2SP_Pos) + 1U) 
 355:/home/christoschristoforou/STM32Cube/Repository/STM32Cube_FW_F4_V1.27.0/Drivers/STM32F4xx_HAL_Driver/Src/stm32f4xx_hal_rcc_ex.c ****       plli2sr = ((RCC->PLLI2SCFGR & RCC_PLLI2SCFGR_PLLI2SR) >> RCC_PLLI2SCFGR_PLLI2SR_Pos);
 356:/home/christoschristoforou/STM32Cube/Repository/STM32Cube_FW_F4_V1.27.0/Drivers/STM32F4xx_HAL_Driver/Src/stm32f4xx_hal_rcc_ex.c ****       /* Configure the PLLI2S division factors */
 357:/home/christoschristoforou/STM32Cube/Repository/STM32Cube_FW_F4_V1.27.0/Drivers/STM32F4xx_HAL_Driver/Src/stm32f4xx_hal_rcc_ex.c ****       /* PLLI2S_VCO Input  = PLL_SOURCE/PLLI2SM */
 358:/home/christoschristoforou/STM32Cube/Repository/STM32Cube_FW_F4_V1.27.0/Drivers/STM32F4xx_HAL_Driver/Src/stm32f4xx_hal_rcc_ex.c ****       /* PLLI2S_VCO Output = PLLI2S_VCO Input * PLLI2SN */
 359:/home/christoschristoforou/STM32Cube/Repository/STM32Cube_FW_F4_V1.27.0/Drivers/STM32F4xx_HAL_Driver/Src/stm32f4xx_hal_rcc_ex.c ****       /* SAI_CLK(first level) = PLLI2S_VCO Output/PLLI2SQ */
 360:/home/christoschristoforou/STM32Cube/Repository/STM32Cube_FW_F4_V1.27.0/Drivers/STM32F4xx_HAL_Driver/Src/stm32f4xx_hal_rcc_ex.c ****       __HAL_RCC_PLLI2S_CONFIG(PeriphClkInit->PLLI2S.PLLI2SM, PeriphClkInit->PLLI2S.PLLI2SN , plli2s
ARM GAS  /tmp/ccbai6tv.s 			page 20


 361:/home/christoschristoforou/STM32Cube/Repository/STM32Cube_FW_F4_V1.27.0/Drivers/STM32F4xx_HAL_Driver/Src/stm32f4xx_hal_rcc_ex.c **** 
 362:/home/christoschristoforou/STM32Cube/Repository/STM32Cube_FW_F4_V1.27.0/Drivers/STM32F4xx_HAL_Driver/Src/stm32f4xx_hal_rcc_ex.c ****       /* SAI_CLK_x = SAI_CLK(first level)/PLLI2SDIVQ */
 363:/home/christoschristoforou/STM32Cube/Repository/STM32Cube_FW_F4_V1.27.0/Drivers/STM32F4xx_HAL_Driver/Src/stm32f4xx_hal_rcc_ex.c ****       __HAL_RCC_PLLI2S_PLLSAICLKDIVQ_CONFIG(PeriphClkInit->PLLI2SDivQ);
 364:/home/christoschristoforou/STM32Cube/Repository/STM32Cube_FW_F4_V1.27.0/Drivers/STM32F4xx_HAL_Driver/Src/stm32f4xx_hal_rcc_ex.c ****     }
 365:/home/christoschristoforou/STM32Cube/Repository/STM32Cube_FW_F4_V1.27.0/Drivers/STM32F4xx_HAL_Driver/Src/stm32f4xx_hal_rcc_ex.c **** 
 366:/home/christoschristoforou/STM32Cube/Repository/STM32Cube_FW_F4_V1.27.0/Drivers/STM32F4xx_HAL_Driver/Src/stm32f4xx_hal_rcc_ex.c ****     /*------ In Case of PLLI2S is selected as source clock for SPDIFRX -------*/
 367:/home/christoschristoforou/STM32Cube/Repository/STM32Cube_FW_F4_V1.27.0/Drivers/STM32F4xx_HAL_Driver/Src/stm32f4xx_hal_rcc_ex.c ****     if((((PeriphClkInit->PeriphClockSelection) & RCC_PERIPHCLK_SPDIFRX) == RCC_PERIPHCLK_SPDIFRX) &
 368:/home/christoschristoforou/STM32Cube/Repository/STM32Cube_FW_F4_V1.27.0/Drivers/STM32F4xx_HAL_Driver/Src/stm32f4xx_hal_rcc_ex.c ****     {
 369:/home/christoschristoforou/STM32Cube/Repository/STM32Cube_FW_F4_V1.27.0/Drivers/STM32F4xx_HAL_Driver/Src/stm32f4xx_hal_rcc_ex.c ****       /* check for Parameters */
 370:/home/christoschristoforou/STM32Cube/Repository/STM32Cube_FW_F4_V1.27.0/Drivers/STM32F4xx_HAL_Driver/Src/stm32f4xx_hal_rcc_ex.c ****       assert_param(IS_RCC_PLLI2SP_VALUE(PeriphClkInit->PLLI2S.PLLI2SP));
 371:/home/christoschristoforou/STM32Cube/Repository/STM32Cube_FW_F4_V1.27.0/Drivers/STM32F4xx_HAL_Driver/Src/stm32f4xx_hal_rcc_ex.c ****       /* Read PLLI2SR value from PLLI2SCFGR register (this value is not need for SAI configuration)
 372:/home/christoschristoforou/STM32Cube/Repository/STM32Cube_FW_F4_V1.27.0/Drivers/STM32F4xx_HAL_Driver/Src/stm32f4xx_hal_rcc_ex.c ****       plli2sq = ((((RCC->PLLI2SCFGR & RCC_PLLI2SCFGR_PLLI2SP) >> RCC_PLLI2SCFGR_PLLI2SP_Pos) + 1U) 
 373:/home/christoschristoforou/STM32Cube/Repository/STM32Cube_FW_F4_V1.27.0/Drivers/STM32F4xx_HAL_Driver/Src/stm32f4xx_hal_rcc_ex.c ****       plli2sr = ((RCC->PLLI2SCFGR & RCC_PLLI2SCFGR_PLLI2SR) >> RCC_PLLI2SCFGR_PLLI2SR_Pos);
 374:/home/christoschristoforou/STM32Cube/Repository/STM32Cube_FW_F4_V1.27.0/Drivers/STM32F4xx_HAL_Driver/Src/stm32f4xx_hal_rcc_ex.c ****       /* Configure the PLLI2S division factors */
 375:/home/christoschristoforou/STM32Cube/Repository/STM32Cube_FW_F4_V1.27.0/Drivers/STM32F4xx_HAL_Driver/Src/stm32f4xx_hal_rcc_ex.c ****       /* PLLI2S_VCO = f(VCO clock) = f(PLLI2S clock input) * (PLLI2SN/PLLI2SM) */
 376:/home/christoschristoforou/STM32Cube/Repository/STM32Cube_FW_F4_V1.27.0/Drivers/STM32F4xx_HAL_Driver/Src/stm32f4xx_hal_rcc_ex.c ****       /* SPDIFRXCLK = f(PLLI2S clock output) = f(VCO clock) / PLLI2SP */
 377:/home/christoschristoforou/STM32Cube/Repository/STM32Cube_FW_F4_V1.27.0/Drivers/STM32F4xx_HAL_Driver/Src/stm32f4xx_hal_rcc_ex.c ****       __HAL_RCC_PLLI2S_CONFIG(PeriphClkInit->PLLI2S.PLLI2SM, PeriphClkInit->PLLI2S.PLLI2SN , Periph
 378:/home/christoschristoforou/STM32Cube/Repository/STM32Cube_FW_F4_V1.27.0/Drivers/STM32F4xx_HAL_Driver/Src/stm32f4xx_hal_rcc_ex.c ****     }
 379:/home/christoschristoforou/STM32Cube/Repository/STM32Cube_FW_F4_V1.27.0/Drivers/STM32F4xx_HAL_Driver/Src/stm32f4xx_hal_rcc_ex.c **** 
 380:/home/christoschristoforou/STM32Cube/Repository/STM32Cube_FW_F4_V1.27.0/Drivers/STM32F4xx_HAL_Driver/Src/stm32f4xx_hal_rcc_ex.c ****      /*----------------- In Case of PLLI2S is just selected  -----------------*/
 381:/home/christoschristoforou/STM32Cube/Repository/STM32Cube_FW_F4_V1.27.0/Drivers/STM32F4xx_HAL_Driver/Src/stm32f4xx_hal_rcc_ex.c ****     if((PeriphClkInit->PeriphClockSelection & RCC_PERIPHCLK_PLLI2S) == RCC_PERIPHCLK_PLLI2S)
 382:/home/christoschristoforou/STM32Cube/Repository/STM32Cube_FW_F4_V1.27.0/Drivers/STM32F4xx_HAL_Driver/Src/stm32f4xx_hal_rcc_ex.c ****     {
 383:/home/christoschristoforou/STM32Cube/Repository/STM32Cube_FW_F4_V1.27.0/Drivers/STM32F4xx_HAL_Driver/Src/stm32f4xx_hal_rcc_ex.c ****       /* Check for Parameters */
 384:/home/christoschristoforou/STM32Cube/Repository/STM32Cube_FW_F4_V1.27.0/Drivers/STM32F4xx_HAL_Driver/Src/stm32f4xx_hal_rcc_ex.c ****       assert_param(IS_RCC_PLLI2SP_VALUE(PeriphClkInit->PLLI2S.PLLI2SP));
 385:/home/christoschristoforou/STM32Cube/Repository/STM32Cube_FW_F4_V1.27.0/Drivers/STM32F4xx_HAL_Driver/Src/stm32f4xx_hal_rcc_ex.c ****       assert_param(IS_RCC_PLLI2SR_VALUE(PeriphClkInit->PLLI2S.PLLI2SR));
 386:/home/christoschristoforou/STM32Cube/Repository/STM32Cube_FW_F4_V1.27.0/Drivers/STM32F4xx_HAL_Driver/Src/stm32f4xx_hal_rcc_ex.c ****       assert_param(IS_RCC_PLLI2SQ_VALUE(PeriphClkInit->PLLI2S.PLLI2SQ));
 387:/home/christoschristoforou/STM32Cube/Repository/STM32Cube_FW_F4_V1.27.0/Drivers/STM32F4xx_HAL_Driver/Src/stm32f4xx_hal_rcc_ex.c **** 
 388:/home/christoschristoforou/STM32Cube/Repository/STM32Cube_FW_F4_V1.27.0/Drivers/STM32F4xx_HAL_Driver/Src/stm32f4xx_hal_rcc_ex.c ****       /* Configure the PLLI2S division factors */
 389:/home/christoschristoforou/STM32Cube/Repository/STM32Cube_FW_F4_V1.27.0/Drivers/STM32F4xx_HAL_Driver/Src/stm32f4xx_hal_rcc_ex.c ****       /* PLLI2S_VCO = f(VCO clock) = f(PLLI2S clock input) * (PLLI2SN/PLLI2SM) */
 390:/home/christoschristoforou/STM32Cube/Repository/STM32Cube_FW_F4_V1.27.0/Drivers/STM32F4xx_HAL_Driver/Src/stm32f4xx_hal_rcc_ex.c ****       __HAL_RCC_PLLI2S_CONFIG(PeriphClkInit->PLLI2S.PLLI2SM, PeriphClkInit->PLLI2S.PLLI2SN , Periph
 391:/home/christoschristoforou/STM32Cube/Repository/STM32Cube_FW_F4_V1.27.0/Drivers/STM32F4xx_HAL_Driver/Src/stm32f4xx_hal_rcc_ex.c ****     }
 392:/home/christoschristoforou/STM32Cube/Repository/STM32Cube_FW_F4_V1.27.0/Drivers/STM32F4xx_HAL_Driver/Src/stm32f4xx_hal_rcc_ex.c **** 
 393:/home/christoschristoforou/STM32Cube/Repository/STM32Cube_FW_F4_V1.27.0/Drivers/STM32F4xx_HAL_Driver/Src/stm32f4xx_hal_rcc_ex.c ****     /* Enable the PLLI2S */
 394:/home/christoschristoforou/STM32Cube/Repository/STM32Cube_FW_F4_V1.27.0/Drivers/STM32F4xx_HAL_Driver/Src/stm32f4xx_hal_rcc_ex.c ****     __HAL_RCC_PLLI2S_ENABLE();
 395:/home/christoschristoforou/STM32Cube/Repository/STM32Cube_FW_F4_V1.27.0/Drivers/STM32F4xx_HAL_Driver/Src/stm32f4xx_hal_rcc_ex.c ****     /* Get tick */
 396:/home/christoschristoforou/STM32Cube/Repository/STM32Cube_FW_F4_V1.27.0/Drivers/STM32F4xx_HAL_Driver/Src/stm32f4xx_hal_rcc_ex.c ****     tickstart = HAL_GetTick();
 397:/home/christoschristoforou/STM32Cube/Repository/STM32Cube_FW_F4_V1.27.0/Drivers/STM32F4xx_HAL_Driver/Src/stm32f4xx_hal_rcc_ex.c ****     /* Wait till PLLI2S is ready */
 398:/home/christoschristoforou/STM32Cube/Repository/STM32Cube_FW_F4_V1.27.0/Drivers/STM32F4xx_HAL_Driver/Src/stm32f4xx_hal_rcc_ex.c ****     while(__HAL_RCC_GET_FLAG(RCC_FLAG_PLLI2SRDY)  == RESET)
 399:/home/christoschristoforou/STM32Cube/Repository/STM32Cube_FW_F4_V1.27.0/Drivers/STM32F4xx_HAL_Driver/Src/stm32f4xx_hal_rcc_ex.c ****     {
 400:/home/christoschristoforou/STM32Cube/Repository/STM32Cube_FW_F4_V1.27.0/Drivers/STM32F4xx_HAL_Driver/Src/stm32f4xx_hal_rcc_ex.c ****       if((HAL_GetTick() - tickstart ) > PLLI2S_TIMEOUT_VALUE)
 401:/home/christoschristoforou/STM32Cube/Repository/STM32Cube_FW_F4_V1.27.0/Drivers/STM32F4xx_HAL_Driver/Src/stm32f4xx_hal_rcc_ex.c ****       {
 402:/home/christoschristoforou/STM32Cube/Repository/STM32Cube_FW_F4_V1.27.0/Drivers/STM32F4xx_HAL_Driver/Src/stm32f4xx_hal_rcc_ex.c ****         /* return in case of Timeout detected */
 403:/home/christoschristoforou/STM32Cube/Repository/STM32Cube_FW_F4_V1.27.0/Drivers/STM32F4xx_HAL_Driver/Src/stm32f4xx_hal_rcc_ex.c ****         return HAL_TIMEOUT;
 404:/home/christoschristoforou/STM32Cube/Repository/STM32Cube_FW_F4_V1.27.0/Drivers/STM32F4xx_HAL_Driver/Src/stm32f4xx_hal_rcc_ex.c ****       }
 405:/home/christoschristoforou/STM32Cube/Repository/STM32Cube_FW_F4_V1.27.0/Drivers/STM32F4xx_HAL_Driver/Src/stm32f4xx_hal_rcc_ex.c ****     }
 406:/home/christoschristoforou/STM32Cube/Repository/STM32Cube_FW_F4_V1.27.0/Drivers/STM32F4xx_HAL_Driver/Src/stm32f4xx_hal_rcc_ex.c ****   }
 407:/home/christoschristoforou/STM32Cube/Repository/STM32Cube_FW_F4_V1.27.0/Drivers/STM32F4xx_HAL_Driver/Src/stm32f4xx_hal_rcc_ex.c ****   /*--------------------------------------------------------------------------*/
 408:/home/christoschristoforou/STM32Cube/Repository/STM32Cube_FW_F4_V1.27.0/Drivers/STM32F4xx_HAL_Driver/Src/stm32f4xx_hal_rcc_ex.c **** 
 409:/home/christoschristoforou/STM32Cube/Repository/STM32Cube_FW_F4_V1.27.0/Drivers/STM32F4xx_HAL_Driver/Src/stm32f4xx_hal_rcc_ex.c ****   /*----------------------------- PLLSAI Configuration -----------------------*/
 410:/home/christoschristoforou/STM32Cube/Repository/STM32Cube_FW_F4_V1.27.0/Drivers/STM32F4xx_HAL_Driver/Src/stm32f4xx_hal_rcc_ex.c ****   /* PLLSAI is configured when a peripheral will use it as source clock : SAI1, SAI2, CLK48 or SDIO
 411:/home/christoschristoforou/STM32Cube/Repository/STM32Cube_FW_F4_V1.27.0/Drivers/STM32F4xx_HAL_Driver/Src/stm32f4xx_hal_rcc_ex.c ****   if(pllsaiused == 1U)
 698              		.loc 1 411 3 is_stmt 1 view .LVU200
 699              		.loc 1 411 5 is_stmt 0 view .LVU201
 700 03f0 012D     		cmp	r5, #1
 701 03f2 00F05881 		beq	.L102
 412:/home/christoschristoforou/STM32Cube/Repository/STM32Cube_FW_F4_V1.27.0/Drivers/STM32F4xx_HAL_Driver/Src/stm32f4xx_hal_rcc_ex.c ****   {
 413:/home/christoschristoforou/STM32Cube/Repository/STM32Cube_FW_F4_V1.27.0/Drivers/STM32F4xx_HAL_Driver/Src/stm32f4xx_hal_rcc_ex.c ****     /* Disable PLLSAI Clock */
ARM GAS  /tmp/ccbai6tv.s 			page 21


 414:/home/christoschristoforou/STM32Cube/Repository/STM32Cube_FW_F4_V1.27.0/Drivers/STM32F4xx_HAL_Driver/Src/stm32f4xx_hal_rcc_ex.c ****     __HAL_RCC_PLLSAI_DISABLE();
 415:/home/christoschristoforou/STM32Cube/Repository/STM32Cube_FW_F4_V1.27.0/Drivers/STM32F4xx_HAL_Driver/Src/stm32f4xx_hal_rcc_ex.c ****     /* Get tick */
 416:/home/christoschristoforou/STM32Cube/Repository/STM32Cube_FW_F4_V1.27.0/Drivers/STM32F4xx_HAL_Driver/Src/stm32f4xx_hal_rcc_ex.c ****     tickstart = HAL_GetTick();
 417:/home/christoschristoforou/STM32Cube/Repository/STM32Cube_FW_F4_V1.27.0/Drivers/STM32F4xx_HAL_Driver/Src/stm32f4xx_hal_rcc_ex.c ****     /* Wait till PLLSAI is disabled */
 418:/home/christoschristoforou/STM32Cube/Repository/STM32Cube_FW_F4_V1.27.0/Drivers/STM32F4xx_HAL_Driver/Src/stm32f4xx_hal_rcc_ex.c ****     while(__HAL_RCC_PLLSAI_GET_FLAG() != RESET)
 419:/home/christoschristoforou/STM32Cube/Repository/STM32Cube_FW_F4_V1.27.0/Drivers/STM32F4xx_HAL_Driver/Src/stm32f4xx_hal_rcc_ex.c ****     {
 420:/home/christoschristoforou/STM32Cube/Repository/STM32Cube_FW_F4_V1.27.0/Drivers/STM32F4xx_HAL_Driver/Src/stm32f4xx_hal_rcc_ex.c ****       if((HAL_GetTick() - tickstart ) > PLLSAI_TIMEOUT_VALUE)
 421:/home/christoschristoforou/STM32Cube/Repository/STM32Cube_FW_F4_V1.27.0/Drivers/STM32F4xx_HAL_Driver/Src/stm32f4xx_hal_rcc_ex.c ****       {
 422:/home/christoschristoforou/STM32Cube/Repository/STM32Cube_FW_F4_V1.27.0/Drivers/STM32F4xx_HAL_Driver/Src/stm32f4xx_hal_rcc_ex.c ****         /* return in case of Timeout detected */
 423:/home/christoschristoforou/STM32Cube/Repository/STM32Cube_FW_F4_V1.27.0/Drivers/STM32F4xx_HAL_Driver/Src/stm32f4xx_hal_rcc_ex.c ****         return HAL_TIMEOUT;
 424:/home/christoschristoforou/STM32Cube/Repository/STM32Cube_FW_F4_V1.27.0/Drivers/STM32F4xx_HAL_Driver/Src/stm32f4xx_hal_rcc_ex.c ****       }
 425:/home/christoschristoforou/STM32Cube/Repository/STM32Cube_FW_F4_V1.27.0/Drivers/STM32F4xx_HAL_Driver/Src/stm32f4xx_hal_rcc_ex.c ****     }
 426:/home/christoschristoforou/STM32Cube/Repository/STM32Cube_FW_F4_V1.27.0/Drivers/STM32F4xx_HAL_Driver/Src/stm32f4xx_hal_rcc_ex.c **** 
 427:/home/christoschristoforou/STM32Cube/Repository/STM32Cube_FW_F4_V1.27.0/Drivers/STM32F4xx_HAL_Driver/Src/stm32f4xx_hal_rcc_ex.c ****     /* Check the PLLSAI division factors */
 428:/home/christoschristoforou/STM32Cube/Repository/STM32Cube_FW_F4_V1.27.0/Drivers/STM32F4xx_HAL_Driver/Src/stm32f4xx_hal_rcc_ex.c ****     assert_param(IS_RCC_PLLSAIM_VALUE(PeriphClkInit->PLLSAI.PLLSAIM));
 429:/home/christoschristoforou/STM32Cube/Repository/STM32Cube_FW_F4_V1.27.0/Drivers/STM32F4xx_HAL_Driver/Src/stm32f4xx_hal_rcc_ex.c ****     assert_param(IS_RCC_PLLSAIN_VALUE(PeriphClkInit->PLLSAI.PLLSAIN));
 430:/home/christoschristoforou/STM32Cube/Repository/STM32Cube_FW_F4_V1.27.0/Drivers/STM32F4xx_HAL_Driver/Src/stm32f4xx_hal_rcc_ex.c **** 
 431:/home/christoschristoforou/STM32Cube/Repository/STM32Cube_FW_F4_V1.27.0/Drivers/STM32F4xx_HAL_Driver/Src/stm32f4xx_hal_rcc_ex.c ****     /*------ In Case of PLLSAI is selected as source clock for SAI -----------*/
 432:/home/christoschristoforou/STM32Cube/Repository/STM32Cube_FW_F4_V1.27.0/Drivers/STM32F4xx_HAL_Driver/Src/stm32f4xx_hal_rcc_ex.c ****     if(((((PeriphClkInit->PeriphClockSelection) & RCC_PERIPHCLK_SAI1) == RCC_PERIPHCLK_SAI1) && (Pe
 433:/home/christoschristoforou/STM32Cube/Repository/STM32Cube_FW_F4_V1.27.0/Drivers/STM32F4xx_HAL_Driver/Src/stm32f4xx_hal_rcc_ex.c ****        ((((PeriphClkInit->PeriphClockSelection) & RCC_PERIPHCLK_SAI2) == RCC_PERIPHCLK_SAI2) && (Pe
 434:/home/christoschristoforou/STM32Cube/Repository/STM32Cube_FW_F4_V1.27.0/Drivers/STM32F4xx_HAL_Driver/Src/stm32f4xx_hal_rcc_ex.c ****     {
 435:/home/christoschristoforou/STM32Cube/Repository/STM32Cube_FW_F4_V1.27.0/Drivers/STM32F4xx_HAL_Driver/Src/stm32f4xx_hal_rcc_ex.c ****       /* check for PLLSAIQ Parameter */
 436:/home/christoschristoforou/STM32Cube/Repository/STM32Cube_FW_F4_V1.27.0/Drivers/STM32F4xx_HAL_Driver/Src/stm32f4xx_hal_rcc_ex.c ****       assert_param(IS_RCC_PLLSAIQ_VALUE(PeriphClkInit->PLLSAI.PLLSAIQ));
 437:/home/christoschristoforou/STM32Cube/Repository/STM32Cube_FW_F4_V1.27.0/Drivers/STM32F4xx_HAL_Driver/Src/stm32f4xx_hal_rcc_ex.c ****       /* check for PLLSAI/DIVQ Parameter */
 438:/home/christoschristoforou/STM32Cube/Repository/STM32Cube_FW_F4_V1.27.0/Drivers/STM32F4xx_HAL_Driver/Src/stm32f4xx_hal_rcc_ex.c ****       assert_param(IS_RCC_PLLSAI_DIVQ_VALUE(PeriphClkInit->PLLSAIDivQ));
 439:/home/christoschristoforou/STM32Cube/Repository/STM32Cube_FW_F4_V1.27.0/Drivers/STM32F4xx_HAL_Driver/Src/stm32f4xx_hal_rcc_ex.c **** 
 440:/home/christoschristoforou/STM32Cube/Repository/STM32Cube_FW_F4_V1.27.0/Drivers/STM32F4xx_HAL_Driver/Src/stm32f4xx_hal_rcc_ex.c ****       /* Read PLLSAIP value from PLLSAICFGR register (this value is not needed for SAI configuratio
 441:/home/christoschristoforou/STM32Cube/Repository/STM32Cube_FW_F4_V1.27.0/Drivers/STM32F4xx_HAL_Driver/Src/stm32f4xx_hal_rcc_ex.c ****       pllsaip = ((((RCC->PLLSAICFGR & RCC_PLLSAICFGR_PLLSAIP) >> RCC_PLLSAICFGR_PLLSAIP_Pos) + 1U) 
 442:/home/christoschristoforou/STM32Cube/Repository/STM32Cube_FW_F4_V1.27.0/Drivers/STM32F4xx_HAL_Driver/Src/stm32f4xx_hal_rcc_ex.c ****       /* PLLSAI_VCO Input  = PLL_SOURCE/PLLM */
 443:/home/christoschristoforou/STM32Cube/Repository/STM32Cube_FW_F4_V1.27.0/Drivers/STM32F4xx_HAL_Driver/Src/stm32f4xx_hal_rcc_ex.c ****       /* PLLSAI_VCO Output = PLLSAI_VCO Input * PLLSAIN */
 444:/home/christoschristoforou/STM32Cube/Repository/STM32Cube_FW_F4_V1.27.0/Drivers/STM32F4xx_HAL_Driver/Src/stm32f4xx_hal_rcc_ex.c ****       /* SAI_CLK(first level) = PLLSAI_VCO Output/PLLSAIQ */
 445:/home/christoschristoforou/STM32Cube/Repository/STM32Cube_FW_F4_V1.27.0/Drivers/STM32F4xx_HAL_Driver/Src/stm32f4xx_hal_rcc_ex.c ****       __HAL_RCC_PLLSAI_CONFIG(PeriphClkInit->PLLSAI.PLLSAIM, PeriphClkInit->PLLSAI.PLLSAIN , pllsai
 446:/home/christoschristoforou/STM32Cube/Repository/STM32Cube_FW_F4_V1.27.0/Drivers/STM32F4xx_HAL_Driver/Src/stm32f4xx_hal_rcc_ex.c **** 
 447:/home/christoschristoforou/STM32Cube/Repository/STM32Cube_FW_F4_V1.27.0/Drivers/STM32F4xx_HAL_Driver/Src/stm32f4xx_hal_rcc_ex.c ****       /* SAI_CLK_x = SAI_CLK(first level)/PLLSAIDIVQ */
 448:/home/christoschristoforou/STM32Cube/Repository/STM32Cube_FW_F4_V1.27.0/Drivers/STM32F4xx_HAL_Driver/Src/stm32f4xx_hal_rcc_ex.c ****       __HAL_RCC_PLLSAI_PLLSAICLKDIVQ_CONFIG(PeriphClkInit->PLLSAIDivQ);
 449:/home/christoschristoforou/STM32Cube/Repository/STM32Cube_FW_F4_V1.27.0/Drivers/STM32F4xx_HAL_Driver/Src/stm32f4xx_hal_rcc_ex.c ****     }
 450:/home/christoschristoforou/STM32Cube/Repository/STM32Cube_FW_F4_V1.27.0/Drivers/STM32F4xx_HAL_Driver/Src/stm32f4xx_hal_rcc_ex.c **** 
 451:/home/christoschristoforou/STM32Cube/Repository/STM32Cube_FW_F4_V1.27.0/Drivers/STM32F4xx_HAL_Driver/Src/stm32f4xx_hal_rcc_ex.c ****     /*------ In Case of PLLSAI is selected as source clock for CLK48 ---------*/
 452:/home/christoschristoforou/STM32Cube/Repository/STM32Cube_FW_F4_V1.27.0/Drivers/STM32F4xx_HAL_Driver/Src/stm32f4xx_hal_rcc_ex.c ****     /* In Case of PLLI2S is selected as source clock for CLK48 */
 453:/home/christoschristoforou/STM32Cube/Repository/STM32Cube_FW_F4_V1.27.0/Drivers/STM32F4xx_HAL_Driver/Src/stm32f4xx_hal_rcc_ex.c ****     if((((PeriphClkInit->PeriphClockSelection) & RCC_PERIPHCLK_CLK48) == RCC_PERIPHCLK_CLK48) && (P
 454:/home/christoschristoforou/STM32Cube/Repository/STM32Cube_FW_F4_V1.27.0/Drivers/STM32F4xx_HAL_Driver/Src/stm32f4xx_hal_rcc_ex.c ****     {
 455:/home/christoschristoforou/STM32Cube/Repository/STM32Cube_FW_F4_V1.27.0/Drivers/STM32F4xx_HAL_Driver/Src/stm32f4xx_hal_rcc_ex.c ****       /* check for Parameters */
 456:/home/christoschristoforou/STM32Cube/Repository/STM32Cube_FW_F4_V1.27.0/Drivers/STM32F4xx_HAL_Driver/Src/stm32f4xx_hal_rcc_ex.c ****       assert_param(IS_RCC_PLLSAIP_VALUE(PeriphClkInit->PLLSAI.PLLSAIP));
 457:/home/christoschristoforou/STM32Cube/Repository/STM32Cube_FW_F4_V1.27.0/Drivers/STM32F4xx_HAL_Driver/Src/stm32f4xx_hal_rcc_ex.c ****       /* Read PLLSAIQ value from PLLI2SCFGR register (this value is not need for SAI configuration)
 458:/home/christoschristoforou/STM32Cube/Repository/STM32Cube_FW_F4_V1.27.0/Drivers/STM32F4xx_HAL_Driver/Src/stm32f4xx_hal_rcc_ex.c ****       pllsaiq = ((RCC->PLLSAICFGR & RCC_PLLSAICFGR_PLLSAIQ) >> RCC_PLLSAICFGR_PLLSAIQ_Pos);
 459:/home/christoschristoforou/STM32Cube/Repository/STM32Cube_FW_F4_V1.27.0/Drivers/STM32F4xx_HAL_Driver/Src/stm32f4xx_hal_rcc_ex.c ****       /* Configure the PLLSAI division factors */
 460:/home/christoschristoforou/STM32Cube/Repository/STM32Cube_FW_F4_V1.27.0/Drivers/STM32F4xx_HAL_Driver/Src/stm32f4xx_hal_rcc_ex.c ****       /* PLLSAI_VCO = f(VCO clock) = f(PLLSAI clock input) * (PLLI2SN/PLLSAIM) */
 461:/home/christoschristoforou/STM32Cube/Repository/STM32Cube_FW_F4_V1.27.0/Drivers/STM32F4xx_HAL_Driver/Src/stm32f4xx_hal_rcc_ex.c ****       /* 48CLK = f(PLLSAI clock output) = f(VCO clock) / PLLSAIP */
 462:/home/christoschristoforou/STM32Cube/Repository/STM32Cube_FW_F4_V1.27.0/Drivers/STM32F4xx_HAL_Driver/Src/stm32f4xx_hal_rcc_ex.c ****       __HAL_RCC_PLLSAI_CONFIG(PeriphClkInit->PLLSAI.PLLSAIM, PeriphClkInit->PLLSAI.PLLSAIN , Periph
 463:/home/christoschristoforou/STM32Cube/Repository/STM32Cube_FW_F4_V1.27.0/Drivers/STM32F4xx_HAL_Driver/Src/stm32f4xx_hal_rcc_ex.c ****     }
 464:/home/christoschristoforou/STM32Cube/Repository/STM32Cube_FW_F4_V1.27.0/Drivers/STM32F4xx_HAL_Driver/Src/stm32f4xx_hal_rcc_ex.c **** 
 465:/home/christoschristoforou/STM32Cube/Repository/STM32Cube_FW_F4_V1.27.0/Drivers/STM32F4xx_HAL_Driver/Src/stm32f4xx_hal_rcc_ex.c ****     /* Enable PLLSAI Clock */
 466:/home/christoschristoforou/STM32Cube/Repository/STM32Cube_FW_F4_V1.27.0/Drivers/STM32F4xx_HAL_Driver/Src/stm32f4xx_hal_rcc_ex.c ****     __HAL_RCC_PLLSAI_ENABLE();
 467:/home/christoschristoforou/STM32Cube/Repository/STM32Cube_FW_F4_V1.27.0/Drivers/STM32F4xx_HAL_Driver/Src/stm32f4xx_hal_rcc_ex.c ****     /* Get tick */
 468:/home/christoschristoforou/STM32Cube/Repository/STM32Cube_FW_F4_V1.27.0/Drivers/STM32F4xx_HAL_Driver/Src/stm32f4xx_hal_rcc_ex.c ****     tickstart = HAL_GetTick();
 469:/home/christoschristoforou/STM32Cube/Repository/STM32Cube_FW_F4_V1.27.0/Drivers/STM32F4xx_HAL_Driver/Src/stm32f4xx_hal_rcc_ex.c ****     /* Wait till PLLSAI is ready */
 470:/home/christoschristoforou/STM32Cube/Repository/STM32Cube_FW_F4_V1.27.0/Drivers/STM32F4xx_HAL_Driver/Src/stm32f4xx_hal_rcc_ex.c ****     while(__HAL_RCC_PLLSAI_GET_FLAG() == RESET)
ARM GAS  /tmp/ccbai6tv.s 			page 22


 471:/home/christoschristoforou/STM32Cube/Repository/STM32Cube_FW_F4_V1.27.0/Drivers/STM32F4xx_HAL_Driver/Src/stm32f4xx_hal_rcc_ex.c ****     {
 472:/home/christoschristoforou/STM32Cube/Repository/STM32Cube_FW_F4_V1.27.0/Drivers/STM32F4xx_HAL_Driver/Src/stm32f4xx_hal_rcc_ex.c ****       if((HAL_GetTick() - tickstart ) > PLLSAI_TIMEOUT_VALUE)
 473:/home/christoschristoforou/STM32Cube/Repository/STM32Cube_FW_F4_V1.27.0/Drivers/STM32F4xx_HAL_Driver/Src/stm32f4xx_hal_rcc_ex.c ****       {
 474:/home/christoschristoforou/STM32Cube/Repository/STM32Cube_FW_F4_V1.27.0/Drivers/STM32F4xx_HAL_Driver/Src/stm32f4xx_hal_rcc_ex.c ****         /* return in case of Timeout detected */
 475:/home/christoschristoforou/STM32Cube/Repository/STM32Cube_FW_F4_V1.27.0/Drivers/STM32F4xx_HAL_Driver/Src/stm32f4xx_hal_rcc_ex.c ****         return HAL_TIMEOUT;
 476:/home/christoschristoforou/STM32Cube/Repository/STM32Cube_FW_F4_V1.27.0/Drivers/STM32F4xx_HAL_Driver/Src/stm32f4xx_hal_rcc_ex.c ****       }
 477:/home/christoschristoforou/STM32Cube/Repository/STM32Cube_FW_F4_V1.27.0/Drivers/STM32F4xx_HAL_Driver/Src/stm32f4xx_hal_rcc_ex.c ****     }
 478:/home/christoschristoforou/STM32Cube/Repository/STM32Cube_FW_F4_V1.27.0/Drivers/STM32F4xx_HAL_Driver/Src/stm32f4xx_hal_rcc_ex.c ****   }
 479:/home/christoschristoforou/STM32Cube/Repository/STM32Cube_FW_F4_V1.27.0/Drivers/STM32F4xx_HAL_Driver/Src/stm32f4xx_hal_rcc_ex.c ****   return HAL_OK;
 702              		.loc 1 479 10 view .LVU202
 703 03f6 0020     		movs	r0, #0
 704              	.LVL35:
 705              	.L16:
 480:/home/christoschristoforou/STM32Cube/Repository/STM32Cube_FW_F4_V1.27.0/Drivers/STM32F4xx_HAL_Driver/Src/stm32f4xx_hal_rcc_ex.c **** }
 706              		.loc 1 480 1 view .LVU203
 707 03f8 03B0     		add	sp, sp, #12
 708              	.LCFI2:
 709              		.cfi_remember_state
 710              		.cfi_def_cfa_offset 20
 711              		@ sp needed
 712 03fa F0BD     		pop	{r4, r5, r6, r7, pc}
 713              	.LVL36:
 714              	.L94:
 715              	.LCFI3:
 716              		.cfi_restore_state
 215:/home/christoschristoforou/STM32Cube/Repository/STM32Cube_FW_F4_V1.27.0/Drivers/STM32F4xx_HAL_Driver/Src/stm32f4xx_hal_rcc_ex.c **** 
 717              		.loc 1 215 9 is_stmt 1 view .LVU204
 215:/home/christoschristoforou/STM32Cube/Repository/STM32Cube_FW_F4_V1.27.0/Drivers/STM32F4xx_HAL_Driver/Src/stm32f4xx_hal_rcc_ex.c **** 
 718              		.loc 1 215 21 is_stmt 0 view .LVU205
 719 03fc FFF7FEFF 		bl	HAL_GetTick
 720              	.LVL37:
 215:/home/christoschristoforou/STM32Cube/Repository/STM32Cube_FW_F4_V1.27.0/Drivers/STM32F4xx_HAL_Driver/Src/stm32f4xx_hal_rcc_ex.c **** 
 721              		.loc 1 215 21 view .LVU206
 722 0400 0646     		mov	r6, r0
 723              	.LVL38:
 218:/home/christoschristoforou/STM32Cube/Repository/STM32Cube_FW_F4_V1.27.0/Drivers/STM32F4xx_HAL_Driver/Src/stm32f4xx_hal_rcc_ex.c ****         {
 724              		.loc 1 218 9 is_stmt 1 view .LVU207
 725              	.L19:
 218:/home/christoschristoforou/STM32Cube/Repository/STM32Cube_FW_F4_V1.27.0/Drivers/STM32F4xx_HAL_Driver/Src/stm32f4xx_hal_rcc_ex.c ****         {
 726              		.loc 1 218 14 view .LVU208
 218:/home/christoschristoforou/STM32Cube/Repository/STM32Cube_FW_F4_V1.27.0/Drivers/STM32F4xx_HAL_Driver/Src/stm32f4xx_hal_rcc_ex.c ****         {
 727              		.loc 1 218 15 is_stmt 0 view .LVU209
 728 0402 254B     		ldr	r3, .L124
 729 0404 1B6F     		ldr	r3, [r3, #112]
 218:/home/christoschristoforou/STM32Cube/Repository/STM32Cube_FW_F4_V1.27.0/Drivers/STM32F4xx_HAL_Driver/Src/stm32f4xx_hal_rcc_ex.c ****         {
 730              		.loc 1 218 14 view .LVU210
 731 0406 13F0020F 		tst	r3, #2
 732 040a 7FF46AAF 		bne	.L18
 220:/home/christoschristoforou/STM32Cube/Repository/STM32Cube_FW_F4_V1.27.0/Drivers/STM32F4xx_HAL_Driver/Src/stm32f4xx_hal_rcc_ex.c ****           {
 733              		.loc 1 220 11 is_stmt 1 view .LVU211
 220:/home/christoschristoforou/STM32Cube/Repository/STM32Cube_FW_F4_V1.27.0/Drivers/STM32F4xx_HAL_Driver/Src/stm32f4xx_hal_rcc_ex.c ****           {
 734              		.loc 1 220 15 is_stmt 0 view .LVU212
 735 040e FFF7FEFF 		bl	HAL_GetTick
 736              	.LVL39:
 220:/home/christoschristoforou/STM32Cube/Repository/STM32Cube_FW_F4_V1.27.0/Drivers/STM32F4xx_HAL_Driver/Src/stm32f4xx_hal_rcc_ex.c ****           {
 737              		.loc 1 220 29 view .LVU213
 738 0412 801B     		subs	r0, r0, r6
ARM GAS  /tmp/ccbai6tv.s 			page 23


 220:/home/christoschristoforou/STM32Cube/Repository/STM32Cube_FW_F4_V1.27.0/Drivers/STM32F4xx_HAL_Driver/Src/stm32f4xx_hal_rcc_ex.c ****           {
 739              		.loc 1 220 13 view .LVU214
 740 0414 41F28833 		movw	r3, #5000
 741 0418 9842     		cmp	r0, r3
 742 041a F2D9     		bls	.L19
 222:/home/christoschristoforou/STM32Cube/Repository/STM32Cube_FW_F4_V1.27.0/Drivers/STM32F4xx_HAL_Driver/Src/stm32f4xx_hal_rcc_ex.c ****           }
 743              		.loc 1 222 20 view .LVU215
 744 041c 0320     		movs	r0, #3
 745 041e EBE7     		b	.L16
 746              	.L95:
 227:/home/christoschristoforou/STM32Cube/Repository/STM32Cube_FW_F4_V1.27.0/Drivers/STM32F4xx_HAL_Driver/Src/stm32f4xx_hal_rcc_ex.c ****   }
 747              		.loc 1 227 5 discriminator 1 view .LVU216
 748 0420 1D49     		ldr	r1, .L124
 749 0422 8A68     		ldr	r2, [r1, #8]
 750 0424 22F4F812 		bic	r2, r2, #2031616
 751 0428 23F07043 		bic	r3, r3, #-268435456
 752 042c 23F44073 		bic	r3, r3, #768
 753 0430 1343     		orrs	r3, r3, r2
 754 0432 8B60     		str	r3, [r1, #8]
 755 0434 61E7     		b	.L22
 756              	.LVL40:
 757              	.L96:
 243:/home/christoschristoforou/STM32Cube/Repository/STM32Cube_FW_F4_V1.27.0/Drivers/STM32F4xx_HAL_Driver/Src/stm32f4xx_hal_rcc_ex.c **** 
 758              		.loc 1 243 5 discriminator 3 view .LVU217
 759 0436 F321     		movs	r1, #243
 760 0438 1A48     		ldr	r0, .L124+12
 761 043a FFF7FEFF 		bl	assert_failed
 762              	.LVL41:
 763 043e 78E7     		b	.L25
 764              	.L97:
 254:/home/christoschristoforou/STM32Cube/Repository/STM32Cube_FW_F4_V1.27.0/Drivers/STM32F4xx_HAL_Driver/Src/stm32f4xx_hal_rcc_ex.c **** 
 765              		.loc 1 254 5 discriminator 2 view .LVU218
 766 0440 FE21     		movs	r1, #254
 767 0442 1848     		ldr	r0, .L124+12
 768 0444 FFF7FEFF 		bl	assert_failed
 769              	.LVL42:
 770 0448 85E7     		b	.L27
 771              	.L98:
 265:/home/christoschristoforou/STM32Cube/Repository/STM32Cube_FW_F4_V1.27.0/Drivers/STM32F4xx_HAL_Driver/Src/stm32f4xx_hal_rcc_ex.c **** 
 772              		.loc 1 265 5 discriminator 2 view .LVU219
 773 044a 40F20911 		movw	r1, #265
 774 044e 1548     		ldr	r0, .L124+12
 775 0450 FFF7FEFF 		bl	assert_failed
 776              	.LVL43:
 777 0454 91E7     		b	.L29
 778              	.L99:
 273:/home/christoschristoforou/STM32Cube/Repository/STM32Cube_FW_F4_V1.27.0/Drivers/STM32F4xx_HAL_Driver/Src/stm32f4xx_hal_rcc_ex.c ****     }
 779              		.loc 1 273 18 view .LVU220
 780 0456 0125     		movs	r5, #1
 781              	.LVL44:
 273:/home/christoschristoforou/STM32Cube/Repository/STM32Cube_FW_F4_V1.27.0/Drivers/STM32F4xx_HAL_Driver/Src/stm32f4xx_hal_rcc_ex.c ****     }
 782              		.loc 1 273 18 view .LVU221
 783 0458 9CE7     		b	.L28
 784              	.LVL45:
 785              	.L100:
 282:/home/christoschristoforou/STM32Cube/Repository/STM32Cube_FW_F4_V1.27.0/Drivers/STM32F4xx_HAL_Driver/Src/stm32f4xx_hal_rcc_ex.c **** 
 786              		.loc 1 282 5 discriminator 2 view .LVU222
ARM GAS  /tmp/ccbai6tv.s 			page 24


 787 045a 4FF48D71 		mov	r1, #282
 788 045e 1148     		ldr	r0, .L124+12
 789 0460 FFF7FEFF 		bl	assert_failed
 790              	.LVL46:
 791 0464 9FE7     		b	.L31
 792              	.L101:
 293:/home/christoschristoforou/STM32Cube/Repository/STM32Cube_FW_F4_V1.27.0/Drivers/STM32F4xx_HAL_Driver/Src/stm32f4xx_hal_rcc_ex.c **** 
 793              		.loc 1 293 5 discriminator 2 view .LVU223
 794 0466 40F22511 		movw	r1, #293
 795 046a 0E48     		ldr	r0, .L124+12
 796 046c FFF7FEFF 		bl	assert_failed
 797              	.LVL47:
 798 0470 ABE7     		b	.L33
 799              	.L34:
 800              	.LVL48:
 311:/home/christoschristoforou/STM32Cube/Repository/STM32Cube_FW_F4_V1.27.0/Drivers/STM32F4xx_HAL_Driver/Src/stm32f4xx_hal_rcc_ex.c ****     /* Get tick */
 801              		.loc 1 311 5 is_stmt 1 view .LVU224
 802 0472 0D4B     		ldr	r3, .L124+16
 803 0474 0022     		movs	r2, #0
 804 0476 1A60     		str	r2, [r3]
 313:/home/christoschristoforou/STM32Cube/Repository/STM32Cube_FW_F4_V1.27.0/Drivers/STM32F4xx_HAL_Driver/Src/stm32f4xx_hal_rcc_ex.c ****     /* Wait till PLLI2S is disabled */
 805              		.loc 1 313 5 view .LVU225
 313:/home/christoschristoforou/STM32Cube/Repository/STM32Cube_FW_F4_V1.27.0/Drivers/STM32F4xx_HAL_Driver/Src/stm32f4xx_hal_rcc_ex.c ****     /* Wait till PLLI2S is disabled */
 806              		.loc 1 313 17 is_stmt 0 view .LVU226
 807 0478 FFF7FEFF 		bl	HAL_GetTick
 808              	.LVL49:
 809 047c 0646     		mov	r6, r0
 810              	.LVL50:
 315:/home/christoschristoforou/STM32Cube/Repository/STM32Cube_FW_F4_V1.27.0/Drivers/STM32F4xx_HAL_Driver/Src/stm32f4xx_hal_rcc_ex.c ****     {
 811              		.loc 1 315 5 is_stmt 1 view .LVU227
 812              	.L36:
 315:/home/christoschristoforou/STM32Cube/Repository/STM32Cube_FW_F4_V1.27.0/Drivers/STM32F4xx_HAL_Driver/Src/stm32f4xx_hal_rcc_ex.c ****     {
 813              		.loc 1 315 10 view .LVU228
 315:/home/christoschristoforou/STM32Cube/Repository/STM32Cube_FW_F4_V1.27.0/Drivers/STM32F4xx_HAL_Driver/Src/stm32f4xx_hal_rcc_ex.c ****     {
 814              		.loc 1 315 11 is_stmt 0 view .LVU229
 815 047e 064B     		ldr	r3, .L124
 816 0480 1B68     		ldr	r3, [r3]
 315:/home/christoschristoforou/STM32Cube/Repository/STM32Cube_FW_F4_V1.27.0/Drivers/STM32F4xx_HAL_Driver/Src/stm32f4xx_hal_rcc_ex.c ****     {
 817              		.loc 1 315 10 view .LVU230
 818 0482 13F0006F 		tst	r3, #134217728
 819 0486 11D0     		beq	.L103
 317:/home/christoschristoforou/STM32Cube/Repository/STM32Cube_FW_F4_V1.27.0/Drivers/STM32F4xx_HAL_Driver/Src/stm32f4xx_hal_rcc_ex.c ****       {
 820              		.loc 1 317 7 is_stmt 1 view .LVU231
 317:/home/christoschristoforou/STM32Cube/Repository/STM32Cube_FW_F4_V1.27.0/Drivers/STM32F4xx_HAL_Driver/Src/stm32f4xx_hal_rcc_ex.c ****       {
 821              		.loc 1 317 11 is_stmt 0 view .LVU232
 822 0488 FFF7FEFF 		bl	HAL_GetTick
 823              	.LVL51:
 317:/home/christoschristoforou/STM32Cube/Repository/STM32Cube_FW_F4_V1.27.0/Drivers/STM32F4xx_HAL_Driver/Src/stm32f4xx_hal_rcc_ex.c ****       {
 824              		.loc 1 317 25 view .LVU233
 825 048c 801B     		subs	r0, r0, r6
 317:/home/christoschristoforou/STM32Cube/Repository/STM32Cube_FW_F4_V1.27.0/Drivers/STM32F4xx_HAL_Driver/Src/stm32f4xx_hal_rcc_ex.c ****       {
 826              		.loc 1 317 9 view .LVU234
 827 048e 0228     		cmp	r0, #2
 828 0490 F5D9     		bls	.L36
 320:/home/christoschristoforou/STM32Cube/Repository/STM32Cube_FW_F4_V1.27.0/Drivers/STM32F4xx_HAL_Driver/Src/stm32f4xx_hal_rcc_ex.c ****       }
 829              		.loc 1 320 16 view .LVU235
 830 0492 0320     		movs	r0, #3
ARM GAS  /tmp/ccbai6tv.s 			page 25


 831 0494 B0E7     		b	.L16
 832              	.L125:
 833 0496 00BF     		.align	2
 834              	.L124:
 835 0498 00380240 		.word	1073887232
 836 049c 400E4742 		.word	1111952960
 837 04a0 E0114742 		.word	1111953888
 838 04a4 00000000 		.word	.LC0
 839 04a8 68004742 		.word	1111949416
 840              	.L103:
 325:/home/christoschristoforou/STM32Cube/Repository/STM32Cube_FW_F4_V1.27.0/Drivers/STM32F4xx_HAL_Driver/Src/stm32f4xx_hal_rcc_ex.c ****     assert_param(IS_RCC_PLLI2SN_VALUE(PeriphClkInit->PLLI2S.PLLI2SN));
 841              		.loc 1 325 5 is_stmt 1 view .LVU236
 842 04ac 6368     		ldr	r3, [r4, #4]
 843 04ae 023B     		subs	r3, r3, #2
 844 04b0 3D2B     		cmp	r3, #61
 845 04b2 00F2A080 		bhi	.L104
 846              	.L38:
 326:/home/christoschristoforou/STM32Cube/Repository/STM32Cube_FW_F4_V1.27.0/Drivers/STM32F4xx_HAL_Driver/Src/stm32f4xx_hal_rcc_ex.c **** 
 847              		.loc 1 326 5 view .LVU237
 848 04b6 A368     		ldr	r3, [r4, #8]
 849 04b8 323B     		subs	r3, r3, #50
 850 04ba B3F5BF7F 		cmp	r3, #382
 851 04be 00F2A080 		bhi	.L105
 852              	.L39:
 329:/home/christoschristoforou/STM32Cube/Repository/STM32Cube_FW_F4_V1.27.0/Drivers/STM32F4xx_HAL_Driver/Src/stm32f4xx_hal_rcc_ex.c ****        ((((PeriphClkInit->PeriphClockSelection) & RCC_PERIPHCLK_I2S_APB2) == RCC_PERIPHCLK_I2S_APB2
 853              		.loc 1 329 5 view .LVU238
 329:/home/christoschristoforou/STM32Cube/Repository/STM32Cube_FW_F4_V1.27.0/Drivers/STM32F4xx_HAL_Driver/Src/stm32f4xx_hal_rcc_ex.c ****        ((((PeriphClkInit->PeriphClockSelection) & RCC_PERIPHCLK_I2S_APB2) == RCC_PERIPHCLK_I2S_APB2
 854              		.loc 1 329 25 is_stmt 0 view .LVU239
 855 04c2 2368     		ldr	r3, [r4]
 329:/home/christoschristoforou/STM32Cube/Repository/STM32Cube_FW_F4_V1.27.0/Drivers/STM32F4xx_HAL_Driver/Src/stm32f4xx_hal_rcc_ex.c ****        ((((PeriphClkInit->PeriphClockSelection) & RCC_PERIPHCLK_I2S_APB2) == RCC_PERIPHCLK_I2S_APB2
 856              		.loc 1 329 7 view .LVU240
 857 04c4 13F0010F 		tst	r3, #1
 858 04c8 01D0     		beq	.L40
 329:/home/christoschristoforou/STM32Cube/Repository/STM32Cube_FW_F4_V1.27.0/Drivers/STM32F4xx_HAL_Driver/Src/stm32f4xx_hal_rcc_ex.c ****        ((((PeriphClkInit->PeriphClockSelection) & RCC_PERIPHCLK_I2S_APB2) == RCC_PERIPHCLK_I2S_APB2
 859              		.loc 1 329 119 discriminator 1 view .LVU241
 860 04ca A26B     		ldr	r2, [r4, #56]
 329:/home/christoschristoforou/STM32Cube/Repository/STM32Cube_FW_F4_V1.27.0/Drivers/STM32F4xx_HAL_Driver/Src/stm32f4xx_hal_rcc_ex.c ****        ((((PeriphClkInit->PeriphClockSelection) & RCC_PERIPHCLK_I2S_APB2) == RCC_PERIPHCLK_I2S_APB2
 861              		.loc 1 329 102 discriminator 1 view .LVU242
 862 04cc 22B1     		cbz	r2, .L41
 863              	.L40:
 329:/home/christoschristoforou/STM32Cube/Repository/STM32Cube_FW_F4_V1.27.0/Drivers/STM32F4xx_HAL_Driver/Src/stm32f4xx_hal_rcc_ex.c ****        ((((PeriphClkInit->PeriphClockSelection) & RCC_PERIPHCLK_I2S_APB2) == RCC_PERIPHCLK_I2S_APB2
 864              		.loc 1 329 176 discriminator 3 view .LVU243
 865 04ce 13F0020F 		tst	r3, #2
 866 04d2 1AD0     		beq	.L42
 330:/home/christoschristoforou/STM32Cube/Repository/STM32Cube_FW_F4_V1.27.0/Drivers/STM32F4xx_HAL_Driver/Src/stm32f4xx_hal_rcc_ex.c ****     {
 867              		.loc 1 330 119 view .LVU244
 868 04d4 E36B     		ldr	r3, [r4, #60]
 330:/home/christoschristoforou/STM32Cube/Repository/STM32Cube_FW_F4_V1.27.0/Drivers/STM32F4xx_HAL_Driver/Src/stm32f4xx_hal_rcc_ex.c ****     {
 869              		.loc 1 330 102 view .LVU245
 870 04d6 C3B9     		cbnz	r3, .L42
 871              	.L41:
 333:/home/christoschristoforou/STM32Cube/Repository/STM32Cube_FW_F4_V1.27.0/Drivers/STM32F4xx_HAL_Driver/Src/stm32f4xx_hal_rcc_ex.c **** 
 872              		.loc 1 333 7 is_stmt 1 view .LVU246
 873 04d8 6369     		ldr	r3, [r4, #20]
 874 04da 023B     		subs	r3, r3, #2
 875 04dc 052B     		cmp	r3, #5
 876 04de 00F29680 		bhi	.L106
ARM GAS  /tmp/ccbai6tv.s 			page 26


 877              	.L43:
 336:/home/christoschristoforou/STM32Cube/Repository/STM32Cube_FW_F4_V1.27.0/Drivers/STM32F4xx_HAL_Driver/Src/stm32f4xx_hal_rcc_ex.c ****       plli2sq = ((RCC->PLLI2SCFGR & RCC_PLLI2SCFGR_PLLI2SQ) >> RCC_PLLI2SCFGR_PLLI2SQ_Pos);
 878              		.loc 1 336 7 view .LVU247
 336:/home/christoschristoforou/STM32Cube/Repository/STM32Cube_FW_F4_V1.27.0/Drivers/STM32F4xx_HAL_Driver/Src/stm32f4xx_hal_rcc_ex.c ****       plli2sq = ((RCC->PLLI2SCFGR & RCC_PLLI2SCFGR_PLLI2SQ) >> RCC_PLLI2SCFGR_PLLI2SQ_Pos);
 879              		.loc 1 336 24 is_stmt 0 view .LVU248
 880 04e2 BA4A     		ldr	r2, .L126
 881 04e4 D2F88400 		ldr	r0, [r2, #132]
 882              	.LVL52:
 337:/home/christoschristoforou/STM32Cube/Repository/STM32Cube_FW_F4_V1.27.0/Drivers/STM32F4xx_HAL_Driver/Src/stm32f4xx_hal_rcc_ex.c ****       /* Configure the PLLI2S division factors */
 883              		.loc 1 337 7 is_stmt 1 view .LVU249
 337:/home/christoschristoforou/STM32Cube/Repository/STM32Cube_FW_F4_V1.27.0/Drivers/STM32F4xx_HAL_Driver/Src/stm32f4xx_hal_rcc_ex.c ****       /* Configure the PLLI2S division factors */
 884              		.loc 1 337 22 is_stmt 0 view .LVU250
 885 04e8 D2F88410 		ldr	r1, [r2, #132]
 886              	.LVL53:
 341:/home/christoschristoforou/STM32Cube/Repository/STM32Cube_FW_F4_V1.27.0/Drivers/STM32F4xx_HAL_Driver/Src/stm32f4xx_hal_rcc_ex.c ****     }
 887              		.loc 1 341 7 is_stmt 1 view .LVU251
 888 04ec 6368     		ldr	r3, [r4, #4]
 889 04ee A668     		ldr	r6, [r4, #8]
 890              	.LVL54:
 341:/home/christoschristoforou/STM32Cube/Repository/STM32Cube_FW_F4_V1.27.0/Drivers/STM32F4xx_HAL_Driver/Src/stm32f4xx_hal_rcc_ex.c ****     }
 891              		.loc 1 341 7 is_stmt 0 view .LVU252
 892 04f0 43EA8613 		orr	r3, r3, r6, lsl #6
 893 04f4 00F44030 		and	r0, r0, #196608
 894              	.LVL55:
 341:/home/christoschristoforou/STM32Cube/Repository/STM32Cube_FW_F4_V1.27.0/Drivers/STM32F4xx_HAL_Driver/Src/stm32f4xx_hal_rcc_ex.c ****     }
 895              		.loc 1 341 7 view .LVU253
 896 04f8 0343     		orrs	r3, r3, r0
 897 04fa 01F07061 		and	r1, r1, #251658240
 898              	.LVL56:
 341:/home/christoschristoforou/STM32Cube/Repository/STM32Cube_FW_F4_V1.27.0/Drivers/STM32F4xx_HAL_Driver/Src/stm32f4xx_hal_rcc_ex.c ****     }
 899              		.loc 1 341 7 view .LVU254
 900 04fe 0B43     		orrs	r3, r3, r1
 901 0500 6169     		ldr	r1, [r4, #20]
 902 0502 43EA0173 		orr	r3, r3, r1, lsl #28
 903 0506 C2F88430 		str	r3, [r2, #132]
 904              	.L42:
 345:/home/christoschristoforou/STM32Cube/Repository/STM32Cube_FW_F4_V1.27.0/Drivers/STM32F4xx_HAL_Driver/Src/stm32f4xx_hal_rcc_ex.c ****        ((((PeriphClkInit->PeriphClockSelection) & RCC_PERIPHCLK_SAI2) == RCC_PERIPHCLK_SAI2) && (Pe
 905              		.loc 1 345 5 is_stmt 1 view .LVU255
 345:/home/christoschristoforou/STM32Cube/Repository/STM32Cube_FW_F4_V1.27.0/Drivers/STM32F4xx_HAL_Driver/Src/stm32f4xx_hal_rcc_ex.c ****        ((((PeriphClkInit->PeriphClockSelection) & RCC_PERIPHCLK_SAI2) == RCC_PERIPHCLK_SAI2) && (Pe
 906              		.loc 1 345 25 is_stmt 0 view .LVU256
 907 050a 2368     		ldr	r3, [r4]
 345:/home/christoschristoforou/STM32Cube/Repository/STM32Cube_FW_F4_V1.27.0/Drivers/STM32F4xx_HAL_Driver/Src/stm32f4xx_hal_rcc_ex.c ****        ((((PeriphClkInit->PeriphClockSelection) & RCC_PERIPHCLK_SAI2) == RCC_PERIPHCLK_SAI2) && (Pe
 908              		.loc 1 345 7 view .LVU257
 909 050c 13F0040F 		tst	r3, #4
 910 0510 03D0     		beq	.L44
 345:/home/christoschristoforou/STM32Cube/Repository/STM32Cube_FW_F4_V1.27.0/Drivers/STM32F4xx_HAL_Driver/Src/stm32f4xx_hal_rcc_ex.c ****        ((((PeriphClkInit->PeriphClockSelection) & RCC_PERIPHCLK_SAI2) == RCC_PERIPHCLK_SAI2) && (Pe
 911              		.loc 1 345 111 discriminator 1 view .LVU258
 912 0512 226B     		ldr	r2, [r4, #48]
 345:/home/christoschristoforou/STM32Cube/Repository/STM32Cube_FW_F4_V1.27.0/Drivers/STM32F4xx_HAL_Driver/Src/stm32f4xx_hal_rcc_ex.c ****        ((((PeriphClkInit->PeriphClockSelection) & RCC_PERIPHCLK_SAI2) == RCC_PERIPHCLK_SAI2) && (Pe
 913              		.loc 1 345 94 discriminator 1 view .LVU259
 914 0514 B2F5801F 		cmp	r2, #1048576
 915 0518 06D0     		beq	.L45
 916              	.L44:
 345:/home/christoschristoforou/STM32Cube/Repository/STM32Cube_FW_F4_V1.27.0/Drivers/STM32F4xx_HAL_Driver/Src/stm32f4xx_hal_rcc_ex.c ****        ((((PeriphClkInit->PeriphClockSelection) & RCC_PERIPHCLK_SAI2) == RCC_PERIPHCLK_SAI2) && (Pe
 917              		.loc 1 345 162 discriminator 3 view .LVU260
 918 051a 13F0080F 		tst	r3, #8
 919 051e 28D0     		beq	.L46
ARM GAS  /tmp/ccbai6tv.s 			page 27


 346:/home/christoschristoforou/STM32Cube/Repository/STM32Cube_FW_F4_V1.27.0/Drivers/STM32F4xx_HAL_Driver/Src/stm32f4xx_hal_rcc_ex.c ****     {
 920              		.loc 1 346 111 view .LVU261
 921 0520 636B     		ldr	r3, [r4, #52]
 346:/home/christoschristoforou/STM32Cube/Repository/STM32Cube_FW_F4_V1.27.0/Drivers/STM32F4xx_HAL_Driver/Src/stm32f4xx_hal_rcc_ex.c ****     {
 922              		.loc 1 346 94 view .LVU262
 923 0522 B3F5800F 		cmp	r3, #4194304
 924 0526 24D1     		bne	.L46
 925              	.L45:
 349:/home/christoschristoforou/STM32Cube/Repository/STM32Cube_FW_F4_V1.27.0/Drivers/STM32F4xx_HAL_Driver/Src/stm32f4xx_hal_rcc_ex.c ****       /* Check for PLLI2S/DIVQ parameters */
 926              		.loc 1 349 7 is_stmt 1 view .LVU263
 927 0528 2369     		ldr	r3, [r4, #16]
 928 052a 023B     		subs	r3, r3, #2
 929 052c 0D2B     		cmp	r3, #13
 930 052e 74D8     		bhi	.L107
 931              	.L47:
 351:/home/christoschristoforou/STM32Cube/Repository/STM32Cube_FW_F4_V1.27.0/Drivers/STM32F4xx_HAL_Driver/Src/stm32f4xx_hal_rcc_ex.c **** 
 932              		.loc 1 351 7 view .LVU264
 933 0530 A36A     		ldr	r3, [r4, #40]
 934 0532 013B     		subs	r3, r3, #1
 935 0534 1F2B     		cmp	r3, #31
 936 0536 76D8     		bhi	.L108
 937              	.L48:
 354:/home/christoschristoforou/STM32Cube/Repository/STM32Cube_FW_F4_V1.27.0/Drivers/STM32F4xx_HAL_Driver/Src/stm32f4xx_hal_rcc_ex.c ****       plli2sr = ((RCC->PLLI2SCFGR & RCC_PLLI2SCFGR_PLLI2SR) >> RCC_PLLI2SCFGR_PLLI2SR_Pos);
 938              		.loc 1 354 7 view .LVU265
 354:/home/christoschristoforou/STM32Cube/Repository/STM32Cube_FW_F4_V1.27.0/Drivers/STM32F4xx_HAL_Driver/Src/stm32f4xx_hal_rcc_ex.c ****       plli2sr = ((RCC->PLLI2SCFGR & RCC_PLLI2SCFGR_PLLI2SR) >> RCC_PLLI2SCFGR_PLLI2SR_Pos);
 939              		.loc 1 354 24 is_stmt 0 view .LVU266
 940 0538 A44A     		ldr	r2, .L126
 941 053a D2F88400 		ldr	r0, [r2, #132]
 942              	.LVL57:
 355:/home/christoschristoforou/STM32Cube/Repository/STM32Cube_FW_F4_V1.27.0/Drivers/STM32F4xx_HAL_Driver/Src/stm32f4xx_hal_rcc_ex.c ****       /* Configure the PLLI2S division factors */
 943              		.loc 1 355 7 is_stmt 1 view .LVU267
 355:/home/christoschristoforou/STM32Cube/Repository/STM32Cube_FW_F4_V1.27.0/Drivers/STM32F4xx_HAL_Driver/Src/stm32f4xx_hal_rcc_ex.c ****       /* Configure the PLLI2S division factors */
 944              		.loc 1 355 22 is_stmt 0 view .LVU268
 945 053e D2F88410 		ldr	r1, [r2, #132]
 946              	.LVL58:
 360:/home/christoschristoforou/STM32Cube/Repository/STM32Cube_FW_F4_V1.27.0/Drivers/STM32F4xx_HAL_Driver/Src/stm32f4xx_hal_rcc_ex.c **** 
 947              		.loc 1 360 7 is_stmt 1 view .LVU269
 948 0542 6368     		ldr	r3, [r4, #4]
 949 0544 A668     		ldr	r6, [r4, #8]
 950 0546 43EA8613 		orr	r3, r3, r6, lsl #6
 951 054a 00F44030 		and	r0, r0, #196608
 952              	.LVL59:
 360:/home/christoschristoforou/STM32Cube/Repository/STM32Cube_FW_F4_V1.27.0/Drivers/STM32F4xx_HAL_Driver/Src/stm32f4xx_hal_rcc_ex.c **** 
 953              		.loc 1 360 7 is_stmt 0 view .LVU270
 954 054e 0343     		orrs	r3, r3, r0
 955 0550 2069     		ldr	r0, [r4, #16]
 956 0552 43EA0063 		orr	r3, r3, r0, lsl #24
 957 0556 01F0E041 		and	r1, r1, #1879048192
 958              	.LVL60:
 360:/home/christoschristoforou/STM32Cube/Repository/STM32Cube_FW_F4_V1.27.0/Drivers/STM32F4xx_HAL_Driver/Src/stm32f4xx_hal_rcc_ex.c **** 
 959              		.loc 1 360 7 view .LVU271
 960 055a 0B43     		orrs	r3, r3, r1
 961 055c C2F88430 		str	r3, [r2, #132]
 363:/home/christoschristoforou/STM32Cube/Repository/STM32Cube_FW_F4_V1.27.0/Drivers/STM32F4xx_HAL_Driver/Src/stm32f4xx_hal_rcc_ex.c ****     }
 962              		.loc 1 363 7 is_stmt 1 view .LVU272
 963 0560 D2F88C30 		ldr	r3, [r2, #140]
 964 0564 23F01F03 		bic	r3, r3, #31
ARM GAS  /tmp/ccbai6tv.s 			page 28


 965 0568 A16A     		ldr	r1, [r4, #40]
 966 056a 0139     		subs	r1, r1, #1
 967 056c 0B43     		orrs	r3, r3, r1
 968 056e C2F88C30 		str	r3, [r2, #140]
 969              	.L46:
 367:/home/christoschristoforou/STM32Cube/Repository/STM32Cube_FW_F4_V1.27.0/Drivers/STM32F4xx_HAL_Driver/Src/stm32f4xx_hal_rcc_ex.c ****     {
 970              		.loc 1 367 5 view .LVU273
 367:/home/christoschristoforou/STM32Cube/Repository/STM32Cube_FW_F4_V1.27.0/Drivers/STM32F4xx_HAL_Driver/Src/stm32f4xx_hal_rcc_ex.c ****     {
 971              		.loc 1 367 24 is_stmt 0 view .LVU274
 972 0572 2368     		ldr	r3, [r4]
 367:/home/christoschristoforou/STM32Cube/Repository/STM32Cube_FW_F4_V1.27.0/Drivers/STM32F4xx_HAL_Driver/Src/stm32f4xx_hal_rcc_ex.c ****     {
 973              		.loc 1 367 7 view .LVU275
 974 0574 13F4806F 		tst	r3, #1024
 975 0578 03D0     		beq	.L49
 367:/home/christoschristoforou/STM32Cube/Repository/STM32Cube_FW_F4_V1.27.0/Drivers/STM32F4xx_HAL_Driver/Src/stm32f4xx_hal_rcc_ex.c ****     {
 976              		.loc 1 367 116 discriminator 1 view .LVU276
 977 057a 236D     		ldr	r3, [r4, #80]
 367:/home/christoschristoforou/STM32Cube/Repository/STM32Cube_FW_F4_V1.27.0/Drivers/STM32F4xx_HAL_Driver/Src/stm32f4xx_hal_rcc_ex.c ****     {
 978              		.loc 1 367 99 discriminator 1 view .LVU277
 979 057c B3F1005F 		cmp	r3, #536870912
 980 0580 57D0     		beq	.L109
 981              	.L49:
 381:/home/christoschristoforou/STM32Cube/Repository/STM32Cube_FW_F4_V1.27.0/Drivers/STM32F4xx_HAL_Driver/Src/stm32f4xx_hal_rcc_ex.c ****     {
 982              		.loc 1 381 5 is_stmt 1 view .LVU278
 381:/home/christoschristoforou/STM32Cube/Repository/STM32Cube_FW_F4_V1.27.0/Drivers/STM32F4xx_HAL_Driver/Src/stm32f4xx_hal_rcc_ex.c ****     {
 983              		.loc 1 381 22 is_stmt 0 view .LVU279
 984 0582 2368     		ldr	r3, [r4]
 381:/home/christoschristoforou/STM32Cube/Repository/STM32Cube_FW_F4_V1.27.0/Drivers/STM32F4xx_HAL_Driver/Src/stm32f4xx_hal_rcc_ex.c ****     {
 985              		.loc 1 381 7 view .LVU280
 986 0584 13F4006F 		tst	r3, #2048
 987 0588 22D0     		beq	.L51
 384:/home/christoschristoforou/STM32Cube/Repository/STM32Cube_FW_F4_V1.27.0/Drivers/STM32F4xx_HAL_Driver/Src/stm32f4xx_hal_rcc_ex.c ****       assert_param(IS_RCC_PLLI2SR_VALUE(PeriphClkInit->PLLI2S.PLLI2SR));
 988              		.loc 1 384 7 is_stmt 1 view .LVU281
 989 058a E368     		ldr	r3, [r4, #12]
 990 058c 022B     		cmp	r3, #2
 991 058e 05D0     		beq	.L52
 384:/home/christoschristoforou/STM32Cube/Repository/STM32Cube_FW_F4_V1.27.0/Drivers/STM32F4xx_HAL_Driver/Src/stm32f4xx_hal_rcc_ex.c ****       assert_param(IS_RCC_PLLI2SR_VALUE(PeriphClkInit->PLLI2S.PLLI2SR));
 992              		.loc 1 384 7 is_stmt 0 discriminator 1 view .LVU282
 993 0590 042B     		cmp	r3, #4
 994 0592 03D0     		beq	.L52
 384:/home/christoschristoforou/STM32Cube/Repository/STM32Cube_FW_F4_V1.27.0/Drivers/STM32F4xx_HAL_Driver/Src/stm32f4xx_hal_rcc_ex.c ****       assert_param(IS_RCC_PLLI2SR_VALUE(PeriphClkInit->PLLI2S.PLLI2SR));
 995              		.loc 1 384 7 discriminator 2 view .LVU283
 996 0594 062B     		cmp	r3, #6
 997 0596 01D0     		beq	.L52
 384:/home/christoschristoforou/STM32Cube/Repository/STM32Cube_FW_F4_V1.27.0/Drivers/STM32F4xx_HAL_Driver/Src/stm32f4xx_hal_rcc_ex.c ****       assert_param(IS_RCC_PLLI2SR_VALUE(PeriphClkInit->PLLI2S.PLLI2SR));
 998              		.loc 1 384 7 discriminator 3 view .LVU284
 999 0598 082B     		cmp	r3, #8
 1000 059a 72D1     		bne	.L110
 1001              	.L52:
 385:/home/christoschristoforou/STM32Cube/Repository/STM32Cube_FW_F4_V1.27.0/Drivers/STM32F4xx_HAL_Driver/Src/stm32f4xx_hal_rcc_ex.c ****       assert_param(IS_RCC_PLLI2SQ_VALUE(PeriphClkInit->PLLI2S.PLLI2SQ));
 1002              		.loc 1 385 7 is_stmt 1 view .LVU285
 1003 059c 6369     		ldr	r3, [r4, #20]
 1004 059e 023B     		subs	r3, r3, #2
 1005 05a0 052B     		cmp	r3, #5
 1006 05a2 74D8     		bhi	.L111
 1007              	.L53:
 386:/home/christoschristoforou/STM32Cube/Repository/STM32Cube_FW_F4_V1.27.0/Drivers/STM32F4xx_HAL_Driver/Src/stm32f4xx_hal_rcc_ex.c **** 
ARM GAS  /tmp/ccbai6tv.s 			page 29


 1008              		.loc 1 386 7 view .LVU286
 1009 05a4 2369     		ldr	r3, [r4, #16]
 1010 05a6 023B     		subs	r3, r3, #2
 1011 05a8 0D2B     		cmp	r3, #13
 1012 05aa 76D8     		bhi	.L112
 1013              	.L54:
 390:/home/christoschristoforou/STM32Cube/Repository/STM32Cube_FW_F4_V1.27.0/Drivers/STM32F4xx_HAL_Driver/Src/stm32f4xx_hal_rcc_ex.c ****     }
 1014              		.loc 1 390 7 view .LVU287
 1015 05ac 6368     		ldr	r3, [r4, #4]
 1016 05ae A268     		ldr	r2, [r4, #8]
 1017 05b0 43EA8213 		orr	r3, r3, r2, lsl #6
 1018 05b4 E268     		ldr	r2, [r4, #12]
 1019 05b6 5208     		lsrs	r2, r2, #1
 1020 05b8 013A     		subs	r2, r2, #1
 1021 05ba 43EA0243 		orr	r3, r3, r2, lsl #16
 1022 05be 2269     		ldr	r2, [r4, #16]
 1023 05c0 43EA0263 		orr	r3, r3, r2, lsl #24
 1024 05c4 6269     		ldr	r2, [r4, #20]
 1025 05c6 43EA0273 		orr	r3, r3, r2, lsl #28
 1026 05ca 804A     		ldr	r2, .L126
 1027 05cc C2F88430 		str	r3, [r2, #132]
 1028              	.L51:
 394:/home/christoschristoforou/STM32Cube/Repository/STM32Cube_FW_F4_V1.27.0/Drivers/STM32F4xx_HAL_Driver/Src/stm32f4xx_hal_rcc_ex.c ****     /* Get tick */
 1029              		.loc 1 394 5 view .LVU288
 1030 05d0 7F4B     		ldr	r3, .L126+4
 1031 05d2 0122     		movs	r2, #1
 1032 05d4 1A60     		str	r2, [r3]
 396:/home/christoschristoforou/STM32Cube/Repository/STM32Cube_FW_F4_V1.27.0/Drivers/STM32F4xx_HAL_Driver/Src/stm32f4xx_hal_rcc_ex.c ****     /* Wait till PLLI2S is ready */
 1033              		.loc 1 396 5 view .LVU289
 396:/home/christoschristoforou/STM32Cube/Repository/STM32Cube_FW_F4_V1.27.0/Drivers/STM32F4xx_HAL_Driver/Src/stm32f4xx_hal_rcc_ex.c ****     /* Wait till PLLI2S is ready */
 1034              		.loc 1 396 17 is_stmt 0 view .LVU290
 1035 05d6 FFF7FEFF 		bl	HAL_GetTick
 1036              	.LVL61:
 1037 05da 0646     		mov	r6, r0
 1038              	.LVL62:
 398:/home/christoschristoforou/STM32Cube/Repository/STM32Cube_FW_F4_V1.27.0/Drivers/STM32F4xx_HAL_Driver/Src/stm32f4xx_hal_rcc_ex.c ****     {
 1039              		.loc 1 398 5 is_stmt 1 view .LVU291
 1040              	.L55:
 398:/home/christoschristoforou/STM32Cube/Repository/STM32Cube_FW_F4_V1.27.0/Drivers/STM32F4xx_HAL_Driver/Src/stm32f4xx_hal_rcc_ex.c ****     {
 1041              		.loc 1 398 10 view .LVU292
 398:/home/christoschristoforou/STM32Cube/Repository/STM32Cube_FW_F4_V1.27.0/Drivers/STM32F4xx_HAL_Driver/Src/stm32f4xx_hal_rcc_ex.c ****     {
 1042              		.loc 1 398 11 is_stmt 0 view .LVU293
 1043 05dc 7B4B     		ldr	r3, .L126
 1044 05de 1B68     		ldr	r3, [r3]
 398:/home/christoschristoforou/STM32Cube/Repository/STM32Cube_FW_F4_V1.27.0/Drivers/STM32F4xx_HAL_Driver/Src/stm32f4xx_hal_rcc_ex.c ****     {
 1045              		.loc 1 398 10 view .LVU294
 1046 05e0 13F0006F 		tst	r3, #134217728
 1047 05e4 7FF404AF 		bne	.L35
 400:/home/christoschristoforou/STM32Cube/Repository/STM32Cube_FW_F4_V1.27.0/Drivers/STM32F4xx_HAL_Driver/Src/stm32f4xx_hal_rcc_ex.c ****       {
 1048              		.loc 1 400 7 is_stmt 1 view .LVU295
 400:/home/christoschristoforou/STM32Cube/Repository/STM32Cube_FW_F4_V1.27.0/Drivers/STM32F4xx_HAL_Driver/Src/stm32f4xx_hal_rcc_ex.c ****       {
 1049              		.loc 1 400 11 is_stmt 0 view .LVU296
 1050 05e8 FFF7FEFF 		bl	HAL_GetTick
 1051              	.LVL63:
 400:/home/christoschristoforou/STM32Cube/Repository/STM32Cube_FW_F4_V1.27.0/Drivers/STM32F4xx_HAL_Driver/Src/stm32f4xx_hal_rcc_ex.c ****       {
 1052              		.loc 1 400 25 view .LVU297
 1053 05ec 801B     		subs	r0, r0, r6
ARM GAS  /tmp/ccbai6tv.s 			page 30


 400:/home/christoschristoforou/STM32Cube/Repository/STM32Cube_FW_F4_V1.27.0/Drivers/STM32F4xx_HAL_Driver/Src/stm32f4xx_hal_rcc_ex.c ****       {
 1054              		.loc 1 400 9 view .LVU298
 1055 05ee 0228     		cmp	r0, #2
 1056 05f0 F4D9     		bls	.L55
 403:/home/christoschristoforou/STM32Cube/Repository/STM32Cube_FW_F4_V1.27.0/Drivers/STM32F4xx_HAL_Driver/Src/stm32f4xx_hal_rcc_ex.c ****       }
 1057              		.loc 1 403 16 view .LVU299
 1058 05f2 0320     		movs	r0, #3
 1059 05f4 00E7     		b	.L16
 1060              	.LVL64:
 1061              	.L104:
 325:/home/christoschristoforou/STM32Cube/Repository/STM32Cube_FW_F4_V1.27.0/Drivers/STM32F4xx_HAL_Driver/Src/stm32f4xx_hal_rcc_ex.c ****     assert_param(IS_RCC_PLLI2SN_VALUE(PeriphClkInit->PLLI2S.PLLI2SN));
 1062              		.loc 1 325 5 discriminator 1 view .LVU300
 1063 05f6 40F24511 		movw	r1, #325
 1064 05fa 7648     		ldr	r0, .L126+8
 1065 05fc FFF7FEFF 		bl	assert_failed
 1066              	.LVL65:
 1067 0600 59E7     		b	.L38
 1068              	.L105:
 326:/home/christoschristoforou/STM32Cube/Repository/STM32Cube_FW_F4_V1.27.0/Drivers/STM32F4xx_HAL_Driver/Src/stm32f4xx_hal_rcc_ex.c **** 
 1069              		.loc 1 326 5 discriminator 1 view .LVU301
 1070 0602 4FF4A371 		mov	r1, #326
 1071 0606 7348     		ldr	r0, .L126+8
 1072 0608 FFF7FEFF 		bl	assert_failed
 1073              	.LVL66:
 1074 060c 59E7     		b	.L39
 1075              	.L106:
 333:/home/christoschristoforou/STM32Cube/Repository/STM32Cube_FW_F4_V1.27.0/Drivers/STM32F4xx_HAL_Driver/Src/stm32f4xx_hal_rcc_ex.c **** 
 1076              		.loc 1 333 7 discriminator 1 view .LVU302
 1077 060e 40F24D11 		movw	r1, #333
 1078 0612 7048     		ldr	r0, .L126+8
 1079 0614 FFF7FEFF 		bl	assert_failed
 1080              	.LVL67:
 1081 0618 63E7     		b	.L43
 1082              	.LVL68:
 1083              	.L107:
 349:/home/christoschristoforou/STM32Cube/Repository/STM32Cube_FW_F4_V1.27.0/Drivers/STM32F4xx_HAL_Driver/Src/stm32f4xx_hal_rcc_ex.c ****       /* Check for PLLI2S/DIVQ parameters */
 1084              		.loc 1 349 7 discriminator 1 view .LVU303
 1085 061a 40F25D11 		movw	r1, #349
 1086 061e 6D48     		ldr	r0, .L126+8
 1087 0620 FFF7FEFF 		bl	assert_failed
 1088              	.LVL69:
 1089 0624 84E7     		b	.L47
 1090              	.L108:
 351:/home/christoschristoforou/STM32Cube/Repository/STM32Cube_FW_F4_V1.27.0/Drivers/STM32F4xx_HAL_Driver/Src/stm32f4xx_hal_rcc_ex.c **** 
 1091              		.loc 1 351 7 discriminator 1 view .LVU304
 1092 0626 40F25F11 		movw	r1, #351
 1093 062a 6A48     		ldr	r0, .L126+8
 1094 062c FFF7FEFF 		bl	assert_failed
 1095              	.LVL70:
 1096 0630 82E7     		b	.L48
 1097              	.LVL71:
 1098              	.L109:
 370:/home/christoschristoforou/STM32Cube/Repository/STM32Cube_FW_F4_V1.27.0/Drivers/STM32F4xx_HAL_Driver/Src/stm32f4xx_hal_rcc_ex.c ****       /* Read PLLI2SR value from PLLI2SCFGR register (this value is not need for SAI configuration)
 1099              		.loc 1 370 7 is_stmt 1 view .LVU305
 1100 0632 E368     		ldr	r3, [r4, #12]
 1101 0634 022B     		cmp	r3, #2
 1102 0636 05D0     		beq	.L50
ARM GAS  /tmp/ccbai6tv.s 			page 31


 370:/home/christoschristoforou/STM32Cube/Repository/STM32Cube_FW_F4_V1.27.0/Drivers/STM32F4xx_HAL_Driver/Src/stm32f4xx_hal_rcc_ex.c ****       /* Read PLLI2SR value from PLLI2SCFGR register (this value is not need for SAI configuration)
 1103              		.loc 1 370 7 is_stmt 0 discriminator 1 view .LVU306
 1104 0638 042B     		cmp	r3, #4
 1105 063a 03D0     		beq	.L50
 370:/home/christoschristoforou/STM32Cube/Repository/STM32Cube_FW_F4_V1.27.0/Drivers/STM32F4xx_HAL_Driver/Src/stm32f4xx_hal_rcc_ex.c ****       /* Read PLLI2SR value from PLLI2SCFGR register (this value is not need for SAI configuration)
 1106              		.loc 1 370 7 discriminator 2 view .LVU307
 1107 063c 062B     		cmp	r3, #6
 1108 063e 01D0     		beq	.L50
 370:/home/christoschristoforou/STM32Cube/Repository/STM32Cube_FW_F4_V1.27.0/Drivers/STM32F4xx_HAL_Driver/Src/stm32f4xx_hal_rcc_ex.c ****       /* Read PLLI2SR value from PLLI2SCFGR register (this value is not need for SAI configuration)
 1109              		.loc 1 370 7 discriminator 3 view .LVU308
 1110 0640 082B     		cmp	r3, #8
 1111 0642 18D1     		bne	.L113
 1112              	.L50:
 372:/home/christoschristoforou/STM32Cube/Repository/STM32Cube_FW_F4_V1.27.0/Drivers/STM32F4xx_HAL_Driver/Src/stm32f4xx_hal_rcc_ex.c ****       plli2sr = ((RCC->PLLI2SCFGR & RCC_PLLI2SCFGR_PLLI2SR) >> RCC_PLLI2SCFGR_PLLI2SR_Pos);
 1113              		.loc 1 372 7 is_stmt 1 view .LVU309
 372:/home/christoschristoforou/STM32Cube/Repository/STM32Cube_FW_F4_V1.27.0/Drivers/STM32F4xx_HAL_Driver/Src/stm32f4xx_hal_rcc_ex.c ****       plli2sr = ((RCC->PLLI2SCFGR & RCC_PLLI2SCFGR_PLLI2SR) >> RCC_PLLI2SCFGR_PLLI2SR_Pos);
 1114              		.loc 1 372 24 is_stmt 0 view .LVU310
 1115 0644 6148     		ldr	r0, .L126
 1116 0646 D0F88430 		ldr	r3, [r0, #132]
 372:/home/christoschristoforou/STM32Cube/Repository/STM32Cube_FW_F4_V1.27.0/Drivers/STM32F4xx_HAL_Driver/Src/stm32f4xx_hal_rcc_ex.c ****       plli2sr = ((RCC->PLLI2SCFGR & RCC_PLLI2SCFGR_PLLI2SR) >> RCC_PLLI2SCFGR_PLLI2SR_Pos);
 1117              		.loc 1 372 63 view .LVU311
 1118 064a C3F30143 		ubfx	r3, r3, #16, #2
 372:/home/christoschristoforou/STM32Cube/Repository/STM32Cube_FW_F4_V1.27.0/Drivers/STM32F4xx_HAL_Driver/Src/stm32f4xx_hal_rcc_ex.c ****       plli2sr = ((RCC->PLLI2SCFGR & RCC_PLLI2SCFGR_PLLI2SR) >> RCC_PLLI2SCFGR_PLLI2SR_Pos);
 1119              		.loc 1 372 94 view .LVU312
 1120 064e 5A1C     		adds	r2, r3, #1
 1121              	.LVL72:
 373:/home/christoschristoforou/STM32Cube/Repository/STM32Cube_FW_F4_V1.27.0/Drivers/STM32F4xx_HAL_Driver/Src/stm32f4xx_hal_rcc_ex.c ****       /* Configure the PLLI2S division factors */
 1122              		.loc 1 373 7 is_stmt 1 view .LVU313
 373:/home/christoschristoforou/STM32Cube/Repository/STM32Cube_FW_F4_V1.27.0/Drivers/STM32F4xx_HAL_Driver/Src/stm32f4xx_hal_rcc_ex.c ****       /* Configure the PLLI2S division factors */
 1123              		.loc 1 373 22 is_stmt 0 view .LVU314
 1124 0650 D0F88460 		ldr	r6, [r0, #132]
 1125              	.LVL73:
 377:/home/christoschristoforou/STM32Cube/Repository/STM32Cube_FW_F4_V1.27.0/Drivers/STM32F4xx_HAL_Driver/Src/stm32f4xx_hal_rcc_ex.c ****     }
 1126              		.loc 1 377 7 is_stmt 1 view .LVU315
 1127 0654 6368     		ldr	r3, [r4, #4]
 1128 0656 A168     		ldr	r1, [r4, #8]
 1129 0658 43EA8113 		orr	r3, r3, r1, lsl #6
 1130 065c E168     		ldr	r1, [r4, #12]
 1131 065e 4908     		lsrs	r1, r1, #1
 1132 0660 0139     		subs	r1, r1, #1
 1133 0662 43EA0143 		orr	r3, r3, r1, lsl #16
 1134 0666 43EA4263 		orr	r3, r3, r2, lsl #25
 1135 066a 06F0E042 		and	r2, r6, #1879048192
 1136              	.LVL74:
 377:/home/christoschristoforou/STM32Cube/Repository/STM32Cube_FW_F4_V1.27.0/Drivers/STM32F4xx_HAL_Driver/Src/stm32f4xx_hal_rcc_ex.c ****     }
 1137              		.loc 1 377 7 is_stmt 0 view .LVU316
 1138 066e 1343     		orrs	r3, r3, r2
 1139 0670 C0F88430 		str	r3, [r0, #132]
 1140 0674 85E7     		b	.L49
 1141              	.LVL75:
 1142              	.L113:
 370:/home/christoschristoforou/STM32Cube/Repository/STM32Cube_FW_F4_V1.27.0/Drivers/STM32F4xx_HAL_Driver/Src/stm32f4xx_hal_rcc_ex.c ****       /* Read PLLI2SR value from PLLI2SCFGR register (this value is not need for SAI configuration)
 1143              		.loc 1 370 7 discriminator 4 view .LVU317
 1144 0676 4FF4B971 		mov	r1, #370
 1145 067a 5648     		ldr	r0, .L126+8
 1146 067c FFF7FEFF 		bl	assert_failed
 1147              	.LVL76:
ARM GAS  /tmp/ccbai6tv.s 			page 32


 1148 0680 E0E7     		b	.L50
 1149              	.L110:
 384:/home/christoschristoforou/STM32Cube/Repository/STM32Cube_FW_F4_V1.27.0/Drivers/STM32F4xx_HAL_Driver/Src/stm32f4xx_hal_rcc_ex.c ****       assert_param(IS_RCC_PLLI2SR_VALUE(PeriphClkInit->PLLI2S.PLLI2SR));
 1150              		.loc 1 384 7 discriminator 4 view .LVU318
 1151 0682 4FF4C071 		mov	r1, #384
 1152 0686 5348     		ldr	r0, .L126+8
 1153 0688 FFF7FEFF 		bl	assert_failed
 1154              	.LVL77:
 1155 068c 86E7     		b	.L52
 1156              	.L111:
 385:/home/christoschristoforou/STM32Cube/Repository/STM32Cube_FW_F4_V1.27.0/Drivers/STM32F4xx_HAL_Driver/Src/stm32f4xx_hal_rcc_ex.c ****       assert_param(IS_RCC_PLLI2SQ_VALUE(PeriphClkInit->PLLI2S.PLLI2SQ));
 1157              		.loc 1 385 7 discriminator 1 view .LVU319
 1158 068e 40F28111 		movw	r1, #385
 1159 0692 5048     		ldr	r0, .L126+8
 1160 0694 FFF7FEFF 		bl	assert_failed
 1161              	.LVL78:
 1162 0698 84E7     		b	.L53
 1163              	.L112:
 386:/home/christoschristoforou/STM32Cube/Repository/STM32Cube_FW_F4_V1.27.0/Drivers/STM32F4xx_HAL_Driver/Src/stm32f4xx_hal_rcc_ex.c **** 
 1164              		.loc 1 386 7 discriminator 1 view .LVU320
 1165 069a 4FF4C171 		mov	r1, #386
 1166 069e 4D48     		ldr	r0, .L126+8
 1167 06a0 FFF7FEFF 		bl	assert_failed
 1168              	.LVL79:
 1169 06a4 82E7     		b	.L54
 1170              	.L102:
 414:/home/christoschristoforou/STM32Cube/Repository/STM32Cube_FW_F4_V1.27.0/Drivers/STM32F4xx_HAL_Driver/Src/stm32f4xx_hal_rcc_ex.c ****     /* Get tick */
 1171              		.loc 1 414 5 is_stmt 1 view .LVU321
 1172 06a6 4C4B     		ldr	r3, .L126+12
 1173 06a8 0022     		movs	r2, #0
 1174 06aa 1A60     		str	r2, [r3]
 416:/home/christoschristoforou/STM32Cube/Repository/STM32Cube_FW_F4_V1.27.0/Drivers/STM32F4xx_HAL_Driver/Src/stm32f4xx_hal_rcc_ex.c ****     /* Wait till PLLSAI is disabled */
 1175              		.loc 1 416 5 view .LVU322
 416:/home/christoschristoforou/STM32Cube/Repository/STM32Cube_FW_F4_V1.27.0/Drivers/STM32F4xx_HAL_Driver/Src/stm32f4xx_hal_rcc_ex.c ****     /* Wait till PLLSAI is disabled */
 1176              		.loc 1 416 17 is_stmt 0 view .LVU323
 1177 06ac FFF7FEFF 		bl	HAL_GetTick
 1178              	.LVL80:
 1179 06b0 0546     		mov	r5, r0
 1180              	.LVL81:
 418:/home/christoschristoforou/STM32Cube/Repository/STM32Cube_FW_F4_V1.27.0/Drivers/STM32F4xx_HAL_Driver/Src/stm32f4xx_hal_rcc_ex.c ****     {
 1181              		.loc 1 418 5 is_stmt 1 view .LVU324
 1182              	.L57:
 418:/home/christoschristoforou/STM32Cube/Repository/STM32Cube_FW_F4_V1.27.0/Drivers/STM32F4xx_HAL_Driver/Src/stm32f4xx_hal_rcc_ex.c ****     {
 1183              		.loc 1 418 10 view .LVU325
 418:/home/christoschristoforou/STM32Cube/Repository/STM32Cube_FW_F4_V1.27.0/Drivers/STM32F4xx_HAL_Driver/Src/stm32f4xx_hal_rcc_ex.c ****     {
 1184              		.loc 1 418 11 is_stmt 0 view .LVU326
 1185 06b2 464B     		ldr	r3, .L126
 1186 06b4 1B68     		ldr	r3, [r3]
 418:/home/christoschristoforou/STM32Cube/Repository/STM32Cube_FW_F4_V1.27.0/Drivers/STM32F4xx_HAL_Driver/Src/stm32f4xx_hal_rcc_ex.c ****     {
 1187              		.loc 1 418 10 view .LVU327
 1188 06b6 13F0005F 		tst	r3, #536870912
 1189 06ba 06D0     		beq	.L114
 420:/home/christoschristoforou/STM32Cube/Repository/STM32Cube_FW_F4_V1.27.0/Drivers/STM32F4xx_HAL_Driver/Src/stm32f4xx_hal_rcc_ex.c ****       {
 1190              		.loc 1 420 7 is_stmt 1 view .LVU328
 420:/home/christoschristoforou/STM32Cube/Repository/STM32Cube_FW_F4_V1.27.0/Drivers/STM32F4xx_HAL_Driver/Src/stm32f4xx_hal_rcc_ex.c ****       {
 1191              		.loc 1 420 11 is_stmt 0 view .LVU329
 1192 06bc FFF7FEFF 		bl	HAL_GetTick
ARM GAS  /tmp/ccbai6tv.s 			page 33


 1193              	.LVL82:
 420:/home/christoschristoforou/STM32Cube/Repository/STM32Cube_FW_F4_V1.27.0/Drivers/STM32F4xx_HAL_Driver/Src/stm32f4xx_hal_rcc_ex.c ****       {
 1194              		.loc 1 420 25 view .LVU330
 1195 06c0 401B     		subs	r0, r0, r5
 420:/home/christoschristoforou/STM32Cube/Repository/STM32Cube_FW_F4_V1.27.0/Drivers/STM32F4xx_HAL_Driver/Src/stm32f4xx_hal_rcc_ex.c ****       {
 1196              		.loc 1 420 9 view .LVU331
 1197 06c2 0228     		cmp	r0, #2
 1198 06c4 F5D9     		bls	.L57
 423:/home/christoschristoforou/STM32Cube/Repository/STM32Cube_FW_F4_V1.27.0/Drivers/STM32F4xx_HAL_Driver/Src/stm32f4xx_hal_rcc_ex.c ****       }
 1199              		.loc 1 423 16 view .LVU332
 1200 06c6 0320     		movs	r0, #3
 1201 06c8 96E6     		b	.L16
 1202              	.L114:
 428:/home/christoschristoforou/STM32Cube/Repository/STM32Cube_FW_F4_V1.27.0/Drivers/STM32F4xx_HAL_Driver/Src/stm32f4xx_hal_rcc_ex.c ****     assert_param(IS_RCC_PLLSAIN_VALUE(PeriphClkInit->PLLSAI.PLLSAIN));
 1203              		.loc 1 428 5 is_stmt 1 view .LVU333
 1204 06ca A369     		ldr	r3, [r4, #24]
 1205 06cc 3F2B     		cmp	r3, #63
 1206 06ce 4AD8     		bhi	.L115
 1207              	.L59:
 429:/home/christoschristoforou/STM32Cube/Repository/STM32Cube_FW_F4_V1.27.0/Drivers/STM32F4xx_HAL_Driver/Src/stm32f4xx_hal_rcc_ex.c **** 
 1208              		.loc 1 429 5 view .LVU334
 1209 06d0 E369     		ldr	r3, [r4, #28]
 1210 06d2 323B     		subs	r3, r3, #50
 1211 06d4 B3F5BF7F 		cmp	r3, #382
 1212 06d8 4BD8     		bhi	.L116
 1213              	.L60:
 432:/home/christoschristoforou/STM32Cube/Repository/STM32Cube_FW_F4_V1.27.0/Drivers/STM32F4xx_HAL_Driver/Src/stm32f4xx_hal_rcc_ex.c ****        ((((PeriphClkInit->PeriphClockSelection) & RCC_PERIPHCLK_SAI2) == RCC_PERIPHCLK_SAI2) && (Pe
 1214              		.loc 1 432 5 view .LVU335
 432:/home/christoschristoforou/STM32Cube/Repository/STM32Cube_FW_F4_V1.27.0/Drivers/STM32F4xx_HAL_Driver/Src/stm32f4xx_hal_rcc_ex.c ****        ((((PeriphClkInit->PeriphClockSelection) & RCC_PERIPHCLK_SAI2) == RCC_PERIPHCLK_SAI2) && (Pe
 1215              		.loc 1 432 25 is_stmt 0 view .LVU336
 1216 06da 2368     		ldr	r3, [r4]
 432:/home/christoschristoforou/STM32Cube/Repository/STM32Cube_FW_F4_V1.27.0/Drivers/STM32F4xx_HAL_Driver/Src/stm32f4xx_hal_rcc_ex.c ****        ((((PeriphClkInit->PeriphClockSelection) & RCC_PERIPHCLK_SAI2) == RCC_PERIPHCLK_SAI2) && (Pe
 1217              		.loc 1 432 7 view .LVU337
 1218 06dc 13F0040F 		tst	r3, #4
 1219 06e0 01D0     		beq	.L61
 432:/home/christoschristoforou/STM32Cube/Repository/STM32Cube_FW_F4_V1.27.0/Drivers/STM32F4xx_HAL_Driver/Src/stm32f4xx_hal_rcc_ex.c ****        ((((PeriphClkInit->PeriphClockSelection) & RCC_PERIPHCLK_SAI2) == RCC_PERIPHCLK_SAI2) && (Pe
 1220              		.loc 1 432 111 discriminator 1 view .LVU338
 1221 06e2 226B     		ldr	r2, [r4, #48]
 432:/home/christoschristoforou/STM32Cube/Repository/STM32Cube_FW_F4_V1.27.0/Drivers/STM32F4xx_HAL_Driver/Src/stm32f4xx_hal_rcc_ex.c ****        ((((PeriphClkInit->PeriphClockSelection) & RCC_PERIPHCLK_SAI2) == RCC_PERIPHCLK_SAI2) && (Pe
 1222              		.loc 1 432 94 discriminator 1 view .LVU339
 1223 06e4 22B1     		cbz	r2, .L62
 1224              	.L61:
 432:/home/christoschristoforou/STM32Cube/Repository/STM32Cube_FW_F4_V1.27.0/Drivers/STM32F4xx_HAL_Driver/Src/stm32f4xx_hal_rcc_ex.c ****        ((((PeriphClkInit->PeriphClockSelection) & RCC_PERIPHCLK_SAI2) == RCC_PERIPHCLK_SAI2) && (Pe
 1225              		.loc 1 432 162 discriminator 3 view .LVU340
 1226 06e6 13F0080F 		tst	r3, #8
 1227 06ea 22D0     		beq	.L63
 433:/home/christoschristoforou/STM32Cube/Repository/STM32Cube_FW_F4_V1.27.0/Drivers/STM32F4xx_HAL_Driver/Src/stm32f4xx_hal_rcc_ex.c ****     {
 1228              		.loc 1 433 111 view .LVU341
 1229 06ec 636B     		ldr	r3, [r4, #52]
 433:/home/christoschristoforou/STM32Cube/Repository/STM32Cube_FW_F4_V1.27.0/Drivers/STM32F4xx_HAL_Driver/Src/stm32f4xx_hal_rcc_ex.c ****     {
 1230              		.loc 1 433 94 view .LVU342
 1231 06ee 03BB     		cbnz	r3, .L63
 1232              	.L62:
 436:/home/christoschristoforou/STM32Cube/Repository/STM32Cube_FW_F4_V1.27.0/Drivers/STM32F4xx_HAL_Driver/Src/stm32f4xx_hal_rcc_ex.c ****       /* check for PLLSAI/DIVQ Parameter */
 1233              		.loc 1 436 7 is_stmt 1 view .LVU343
 1234 06f0 636A     		ldr	r3, [r4, #36]
 1235 06f2 023B     		subs	r3, r3, #2
ARM GAS  /tmp/ccbai6tv.s 			page 34


 1236 06f4 0D2B     		cmp	r3, #13
 1237 06f6 42D8     		bhi	.L117
 1238              	.L64:
 438:/home/christoschristoforou/STM32Cube/Repository/STM32Cube_FW_F4_V1.27.0/Drivers/STM32F4xx_HAL_Driver/Src/stm32f4xx_hal_rcc_ex.c **** 
 1239              		.loc 1 438 7 view .LVU344
 1240 06f8 E36A     		ldr	r3, [r4, #44]
 1241 06fa 013B     		subs	r3, r3, #1
 1242 06fc 1F2B     		cmp	r3, #31
 1243 06fe 44D8     		bhi	.L118
 1244              	.L65:
 441:/home/christoschristoforou/STM32Cube/Repository/STM32Cube_FW_F4_V1.27.0/Drivers/STM32F4xx_HAL_Driver/Src/stm32f4xx_hal_rcc_ex.c ****       /* PLLSAI_VCO Input  = PLL_SOURCE/PLLM */
 1245              		.loc 1 441 7 view .LVU345
 441:/home/christoschristoforou/STM32Cube/Repository/STM32Cube_FW_F4_V1.27.0/Drivers/STM32F4xx_HAL_Driver/Src/stm32f4xx_hal_rcc_ex.c ****       /* PLLSAI_VCO Input  = PLL_SOURCE/PLLM */
 1246              		.loc 1 441 24 is_stmt 0 view .LVU346
 1247 0700 324A     		ldr	r2, .L126
 1248 0702 D2F88810 		ldr	r1, [r2, #136]
 1249              	.LVL83:
 445:/home/christoschristoforou/STM32Cube/Repository/STM32Cube_FW_F4_V1.27.0/Drivers/STM32F4xx_HAL_Driver/Src/stm32f4xx_hal_rcc_ex.c **** 
 1250              		.loc 1 445 7 is_stmt 1 view .LVU347
 1251 0706 A369     		ldr	r3, [r4, #24]
 1252 0708 E069     		ldr	r0, [r4, #28]
 1253 070a 43EA8013 		orr	r3, r3, r0, lsl #6
 1254 070e 01F44031 		and	r1, r1, #196608
 1255              	.LVL84:
 445:/home/christoschristoforou/STM32Cube/Repository/STM32Cube_FW_F4_V1.27.0/Drivers/STM32F4xx_HAL_Driver/Src/stm32f4xx_hal_rcc_ex.c **** 
 1256              		.loc 1 445 7 is_stmt 0 view .LVU348
 1257 0712 0B43     		orrs	r3, r3, r1
 1258 0714 616A     		ldr	r1, [r4, #36]
 1259 0716 43EA0163 		orr	r3, r3, r1, lsl #24
 1260 071a C2F88830 		str	r3, [r2, #136]
 448:/home/christoschristoforou/STM32Cube/Repository/STM32Cube_FW_F4_V1.27.0/Drivers/STM32F4xx_HAL_Driver/Src/stm32f4xx_hal_rcc_ex.c ****     }
 1261              		.loc 1 448 7 is_stmt 1 view .LVU349
 1262 071e D2F88C30 		ldr	r3, [r2, #140]
 1263 0722 23F4F853 		bic	r3, r3, #7936
 1264 0726 E16A     		ldr	r1, [r4, #44]
 1265 0728 0139     		subs	r1, r1, #1
 1266 072a 43EA0123 		orr	r3, r3, r1, lsl #8
 1267 072e C2F88C30 		str	r3, [r2, #140]
 1268              	.L63:
 453:/home/christoschristoforou/STM32Cube/Repository/STM32Cube_FW_F4_V1.27.0/Drivers/STM32F4xx_HAL_Driver/Src/stm32f4xx_hal_rcc_ex.c ****     {
 1269              		.loc 1 453 5 view .LVU350
 453:/home/christoschristoforou/STM32Cube/Repository/STM32Cube_FW_F4_V1.27.0/Drivers/STM32F4xx_HAL_Driver/Src/stm32f4xx_hal_rcc_ex.c ****     {
 1270              		.loc 1 453 24 is_stmt 0 view .LVU351
 1271 0732 2368     		ldr	r3, [r4]
 453:/home/christoschristoforou/STM32Cube/Repository/STM32Cube_FW_F4_V1.27.0/Drivers/STM32F4xx_HAL_Driver/Src/stm32f4xx_hal_rcc_ex.c ****     {
 1272              		.loc 1 453 7 view .LVU352
 1273 0734 13F4807F 		tst	r3, #256
 1274 0738 03D0     		beq	.L66
 453:/home/christoschristoforou/STM32Cube/Repository/STM32Cube_FW_F4_V1.27.0/Drivers/STM32F4xx_HAL_Driver/Src/stm32f4xx_hal_rcc_ex.c ****     {
 1275              		.loc 1 453 112 discriminator 1 view .LVU353
 1276 073a 636D     		ldr	r3, [r4, #84]
 453:/home/christoschristoforou/STM32Cube/Repository/STM32Cube_FW_F4_V1.27.0/Drivers/STM32F4xx_HAL_Driver/Src/stm32f4xx_hal_rcc_ex.c ****     {
 1277              		.loc 1 453 95 discriminator 1 view .LVU354
 1278 073c B3F1006F 		cmp	r3, #134217728
 1279 0740 29D0     		beq	.L119
 1280              	.LVL85:
 1281              	.L66:
ARM GAS  /tmp/ccbai6tv.s 			page 35


 466:/home/christoschristoforou/STM32Cube/Repository/STM32Cube_FW_F4_V1.27.0/Drivers/STM32F4xx_HAL_Driver/Src/stm32f4xx_hal_rcc_ex.c ****     /* Get tick */
 1282              		.loc 1 466 5 is_stmt 1 view .LVU355
 1283 0742 254B     		ldr	r3, .L126+12
 1284 0744 0122     		movs	r2, #1
 1285 0746 1A60     		str	r2, [r3]
 468:/home/christoschristoforou/STM32Cube/Repository/STM32Cube_FW_F4_V1.27.0/Drivers/STM32F4xx_HAL_Driver/Src/stm32f4xx_hal_rcc_ex.c ****     /* Wait till PLLSAI is ready */
 1286              		.loc 1 468 5 view .LVU356
 468:/home/christoschristoforou/STM32Cube/Repository/STM32Cube_FW_F4_V1.27.0/Drivers/STM32F4xx_HAL_Driver/Src/stm32f4xx_hal_rcc_ex.c ****     /* Wait till PLLSAI is ready */
 1287              		.loc 1 468 17 is_stmt 0 view .LVU357
 1288 0748 FFF7FEFF 		bl	HAL_GetTick
 1289              	.LVL86:
 1290 074c 0446     		mov	r4, r0
 1291              	.LVL87:
 470:/home/christoschristoforou/STM32Cube/Repository/STM32Cube_FW_F4_V1.27.0/Drivers/STM32F4xx_HAL_Driver/Src/stm32f4xx_hal_rcc_ex.c ****     {
 1292              		.loc 1 470 5 is_stmt 1 view .LVU358
 1293              	.L68:
 470:/home/christoschristoforou/STM32Cube/Repository/STM32Cube_FW_F4_V1.27.0/Drivers/STM32F4xx_HAL_Driver/Src/stm32f4xx_hal_rcc_ex.c ****     {
 1294              		.loc 1 470 10 view .LVU359
 470:/home/christoschristoforou/STM32Cube/Repository/STM32Cube_FW_F4_V1.27.0/Drivers/STM32F4xx_HAL_Driver/Src/stm32f4xx_hal_rcc_ex.c ****     {
 1295              		.loc 1 470 11 is_stmt 0 view .LVU360
 1296 074e 1F4B     		ldr	r3, .L126
 1297 0750 1B68     		ldr	r3, [r3]
 470:/home/christoschristoforou/STM32Cube/Repository/STM32Cube_FW_F4_V1.27.0/Drivers/STM32F4xx_HAL_Driver/Src/stm32f4xx_hal_rcc_ex.c ****     {
 1298              		.loc 1 470 10 view .LVU361
 1299 0752 13F0005F 		tst	r3, #536870912
 1300 0756 47D1     		bne	.L120
 472:/home/christoschristoforou/STM32Cube/Repository/STM32Cube_FW_F4_V1.27.0/Drivers/STM32F4xx_HAL_Driver/Src/stm32f4xx_hal_rcc_ex.c ****       {
 1301              		.loc 1 472 7 is_stmt 1 view .LVU362
 472:/home/christoschristoforou/STM32Cube/Repository/STM32Cube_FW_F4_V1.27.0/Drivers/STM32F4xx_HAL_Driver/Src/stm32f4xx_hal_rcc_ex.c ****       {
 1302              		.loc 1 472 11 is_stmt 0 view .LVU363
 1303 0758 FFF7FEFF 		bl	HAL_GetTick
 1304              	.LVL88:
 472:/home/christoschristoforou/STM32Cube/Repository/STM32Cube_FW_F4_V1.27.0/Drivers/STM32F4xx_HAL_Driver/Src/stm32f4xx_hal_rcc_ex.c ****       {
 1305              		.loc 1 472 25 view .LVU364
 1306 075c 001B     		subs	r0, r0, r4
 472:/home/christoschristoforou/STM32Cube/Repository/STM32Cube_FW_F4_V1.27.0/Drivers/STM32F4xx_HAL_Driver/Src/stm32f4xx_hal_rcc_ex.c ****       {
 1307              		.loc 1 472 9 view .LVU365
 1308 075e 0228     		cmp	r0, #2
 1309 0760 F5D9     		bls	.L68
 475:/home/christoschristoforou/STM32Cube/Repository/STM32Cube_FW_F4_V1.27.0/Drivers/STM32F4xx_HAL_Driver/Src/stm32f4xx_hal_rcc_ex.c ****       }
 1310              		.loc 1 475 16 view .LVU366
 1311 0762 0320     		movs	r0, #3
 1312 0764 48E6     		b	.L16
 1313              	.LVL89:
 1314              	.L115:
 428:/home/christoschristoforou/STM32Cube/Repository/STM32Cube_FW_F4_V1.27.0/Drivers/STM32F4xx_HAL_Driver/Src/stm32f4xx_hal_rcc_ex.c ****     assert_param(IS_RCC_PLLSAIN_VALUE(PeriphClkInit->PLLSAI.PLLSAIN));
 1315              		.loc 1 428 5 discriminator 1 view .LVU367
 1316 0766 4FF4D671 		mov	r1, #428
 1317 076a 1A48     		ldr	r0, .L126+8
 1318 076c FFF7FEFF 		bl	assert_failed
 1319              	.LVL90:
 1320 0770 AEE7     		b	.L59
 1321              	.L116:
 429:/home/christoschristoforou/STM32Cube/Repository/STM32Cube_FW_F4_V1.27.0/Drivers/STM32F4xx_HAL_Driver/Src/stm32f4xx_hal_rcc_ex.c **** 
 1322              		.loc 1 429 5 discriminator 1 view .LVU368
 1323 0772 40F2AD11 		movw	r1, #429
 1324 0776 1748     		ldr	r0, .L126+8
ARM GAS  /tmp/ccbai6tv.s 			page 36


 1325 0778 FFF7FEFF 		bl	assert_failed
 1326              	.LVL91:
 1327 077c ADE7     		b	.L60
 1328              	.L117:
 436:/home/christoschristoforou/STM32Cube/Repository/STM32Cube_FW_F4_V1.27.0/Drivers/STM32F4xx_HAL_Driver/Src/stm32f4xx_hal_rcc_ex.c ****       /* check for PLLSAI/DIVQ Parameter */
 1329              		.loc 1 436 7 discriminator 1 view .LVU369
 1330 077e 4FF4DA71 		mov	r1, #436
 1331 0782 1448     		ldr	r0, .L126+8
 1332 0784 FFF7FEFF 		bl	assert_failed
 1333              	.LVL92:
 1334 0788 B6E7     		b	.L64
 1335              	.L118:
 438:/home/christoschristoforou/STM32Cube/Repository/STM32Cube_FW_F4_V1.27.0/Drivers/STM32F4xx_HAL_Driver/Src/stm32f4xx_hal_rcc_ex.c **** 
 1336              		.loc 1 438 7 discriminator 1 view .LVU370
 1337 078a 4FF4DB71 		mov	r1, #438
 1338 078e 1148     		ldr	r0, .L126+8
 1339 0790 FFF7FEFF 		bl	assert_failed
 1340              	.LVL93:
 1341 0794 B4E7     		b	.L65
 1342              	.LVL94:
 1343              	.L119:
 456:/home/christoschristoforou/STM32Cube/Repository/STM32Cube_FW_F4_V1.27.0/Drivers/STM32F4xx_HAL_Driver/Src/stm32f4xx_hal_rcc_ex.c ****       /* Read PLLSAIQ value from PLLI2SCFGR register (this value is not need for SAI configuration)
 1344              		.loc 1 456 7 is_stmt 1 view .LVU371
 1345 0796 236A     		ldr	r3, [r4, #32]
 1346 0798 022B     		cmp	r3, #2
 1347 079a 05D0     		beq	.L67
 456:/home/christoschristoforou/STM32Cube/Repository/STM32Cube_FW_F4_V1.27.0/Drivers/STM32F4xx_HAL_Driver/Src/stm32f4xx_hal_rcc_ex.c ****       /* Read PLLSAIQ value from PLLI2SCFGR register (this value is not need for SAI configuration)
 1348              		.loc 1 456 7 is_stmt 0 discriminator 1 view .LVU372
 1349 079c 042B     		cmp	r3, #4
 1350 079e 03D0     		beq	.L67
 456:/home/christoschristoforou/STM32Cube/Repository/STM32Cube_FW_F4_V1.27.0/Drivers/STM32F4xx_HAL_Driver/Src/stm32f4xx_hal_rcc_ex.c ****       /* Read PLLSAIQ value from PLLI2SCFGR register (this value is not need for SAI configuration)
 1351              		.loc 1 456 7 discriminator 2 view .LVU373
 1352 07a0 062B     		cmp	r3, #6
 1353 07a2 01D0     		beq	.L67
 456:/home/christoschristoforou/STM32Cube/Repository/STM32Cube_FW_F4_V1.27.0/Drivers/STM32F4xx_HAL_Driver/Src/stm32f4xx_hal_rcc_ex.c ****       /* Read PLLSAIQ value from PLLI2SCFGR register (this value is not need for SAI configuration)
 1354              		.loc 1 456 7 discriminator 3 view .LVU374
 1355 07a4 082B     		cmp	r3, #8
 1356 07a6 19D1     		bne	.L121
 1357              	.L67:
 458:/home/christoschristoforou/STM32Cube/Repository/STM32Cube_FW_F4_V1.27.0/Drivers/STM32F4xx_HAL_Driver/Src/stm32f4xx_hal_rcc_ex.c ****       /* Configure the PLLSAI division factors */
 1358              		.loc 1 458 7 is_stmt 1 view .LVU375
 458:/home/christoschristoforou/STM32Cube/Repository/STM32Cube_FW_F4_V1.27.0/Drivers/STM32F4xx_HAL_Driver/Src/stm32f4xx_hal_rcc_ex.c ****       /* Configure the PLLSAI division factors */
 1359              		.loc 1 458 22 is_stmt 0 view .LVU376
 1360 07a8 0848     		ldr	r0, .L126
 1361 07aa D0F88810 		ldr	r1, [r0, #136]
 1362              	.LVL95:
 462:/home/christoschristoforou/STM32Cube/Repository/STM32Cube_FW_F4_V1.27.0/Drivers/STM32F4xx_HAL_Driver/Src/stm32f4xx_hal_rcc_ex.c ****     }
 1363              		.loc 1 462 7 is_stmt 1 view .LVU377
 1364 07ae A369     		ldr	r3, [r4, #24]
 1365 07b0 E269     		ldr	r2, [r4, #28]
 1366 07b2 43EA8213 		orr	r3, r3, r2, lsl #6
 1367 07b6 226A     		ldr	r2, [r4, #32]
 1368 07b8 5208     		lsrs	r2, r2, #1
 1369 07ba 013A     		subs	r2, r2, #1
 1370 07bc 43EA0243 		orr	r3, r3, r2, lsl #16
 1371 07c0 01F07062 		and	r2, r1, #251658240
 1372 07c4 1343     		orrs	r3, r3, r2
ARM GAS  /tmp/ccbai6tv.s 			page 37


 1373 07c6 C0F88830 		str	r3, [r0, #136]
 1374 07ca BAE7     		b	.L66
 1375              	.L127:
 1376              		.align	2
 1377              	.L126:
 1378 07cc 00380240 		.word	1073887232
 1379 07d0 68004742 		.word	1111949416
 1380 07d4 00000000 		.word	.LC0
 1381 07d8 70004742 		.word	1111949424
 1382              	.LVL96:
 1383              	.L121:
 456:/home/christoschristoforou/STM32Cube/Repository/STM32Cube_FW_F4_V1.27.0/Drivers/STM32F4xx_HAL_Driver/Src/stm32f4xx_hal_rcc_ex.c ****       /* Read PLLSAIQ value from PLLI2SCFGR register (this value is not need for SAI configuration)
 1384              		.loc 1 456 7 is_stmt 0 discriminator 4 view .LVU378
 1385 07dc 4FF4E471 		mov	r1, #456
 1386 07e0 0248     		ldr	r0, .L128
 1387 07e2 FFF7FEFF 		bl	assert_failed
 1388              	.LVL97:
 1389 07e6 DFE7     		b	.L67
 1390              	.LVL98:
 1391              	.L120:
 479:/home/christoschristoforou/STM32Cube/Repository/STM32Cube_FW_F4_V1.27.0/Drivers/STM32F4xx_HAL_Driver/Src/stm32f4xx_hal_rcc_ex.c **** }
 1392              		.loc 1 479 10 view .LVU379
 1393 07e8 0020     		movs	r0, #0
 1394 07ea 05E6     		b	.L16
 1395              	.L129:
 1396              		.align	2
 1397              	.L128:
 1398 07ec 00000000 		.word	.LC0
 1399              		.cfi_endproc
 1400              	.LFE130:
 1402              		.section	.text.HAL_RCCEx_GetPeriphCLKConfig,"ax",%progbits
 1403              		.align	1
 1404              		.global	HAL_RCCEx_GetPeriphCLKConfig
 1405              		.syntax unified
 1406              		.thumb
 1407              		.thumb_func
 1408              		.fpu fpv4-sp-d16
 1410              	HAL_RCCEx_GetPeriphCLKConfig:
 1411              	.LVL99:
 1412              	.LFB131:
 481:/home/christoschristoforou/STM32Cube/Repository/STM32Cube_FW_F4_V1.27.0/Drivers/STM32F4xx_HAL_Driver/Src/stm32f4xx_hal_rcc_ex.c **** 
 482:/home/christoschristoforou/STM32Cube/Repository/STM32Cube_FW_F4_V1.27.0/Drivers/STM32F4xx_HAL_Driver/Src/stm32f4xx_hal_rcc_ex.c **** /**
 483:/home/christoschristoforou/STM32Cube/Repository/STM32Cube_FW_F4_V1.27.0/Drivers/STM32F4xx_HAL_Driver/Src/stm32f4xx_hal_rcc_ex.c ****   * @brief  Get the RCC_PeriphCLKInitTypeDef according to the internal
 484:/home/christoschristoforou/STM32Cube/Repository/STM32Cube_FW_F4_V1.27.0/Drivers/STM32F4xx_HAL_Driver/Src/stm32f4xx_hal_rcc_ex.c ****   *         RCC configuration registers.
 485:/home/christoschristoforou/STM32Cube/Repository/STM32Cube_FW_F4_V1.27.0/Drivers/STM32F4xx_HAL_Driver/Src/stm32f4xx_hal_rcc_ex.c ****   * @param  PeriphClkInit pointer to an RCC_PeriphCLKInitTypeDef structure that
 486:/home/christoschristoforou/STM32Cube/Repository/STM32Cube_FW_F4_V1.27.0/Drivers/STM32F4xx_HAL_Driver/Src/stm32f4xx_hal_rcc_ex.c ****   *         will be configured.
 487:/home/christoschristoforou/STM32Cube/Repository/STM32Cube_FW_F4_V1.27.0/Drivers/STM32F4xx_HAL_Driver/Src/stm32f4xx_hal_rcc_ex.c ****   * @retval None
 488:/home/christoschristoforou/STM32Cube/Repository/STM32Cube_FW_F4_V1.27.0/Drivers/STM32F4xx_HAL_Driver/Src/stm32f4xx_hal_rcc_ex.c ****   */
 489:/home/christoschristoforou/STM32Cube/Repository/STM32Cube_FW_F4_V1.27.0/Drivers/STM32F4xx_HAL_Driver/Src/stm32f4xx_hal_rcc_ex.c **** void HAL_RCCEx_GetPeriphCLKConfig(RCC_PeriphCLKInitTypeDef  *PeriphClkInit)
 490:/home/christoschristoforou/STM32Cube/Repository/STM32Cube_FW_F4_V1.27.0/Drivers/STM32F4xx_HAL_Driver/Src/stm32f4xx_hal_rcc_ex.c **** {
 1413              		.loc 1 490 1 is_stmt 1 view -0
 1414              		.cfi_startproc
 1415              		@ args = 0, pretend = 0, frame = 0
 1416              		@ frame_needed = 0, uses_anonymous_args = 0
 1417              		@ link register save eliminated.
 491:/home/christoschristoforou/STM32Cube/Repository/STM32Cube_FW_F4_V1.27.0/Drivers/STM32F4xx_HAL_Driver/Src/stm32f4xx_hal_rcc_ex.c ****   uint32_t tempreg;
 1418              		.loc 1 491 3 view .LVU381
ARM GAS  /tmp/ccbai6tv.s 			page 38


 492:/home/christoschristoforou/STM32Cube/Repository/STM32Cube_FW_F4_V1.27.0/Drivers/STM32F4xx_HAL_Driver/Src/stm32f4xx_hal_rcc_ex.c **** 
 493:/home/christoschristoforou/STM32Cube/Repository/STM32Cube_FW_F4_V1.27.0/Drivers/STM32F4xx_HAL_Driver/Src/stm32f4xx_hal_rcc_ex.c ****   /* Set all possible values for the extended clock type parameter------------*/
 494:/home/christoschristoforou/STM32Cube/Repository/STM32Cube_FW_F4_V1.27.0/Drivers/STM32F4xx_HAL_Driver/Src/stm32f4xx_hal_rcc_ex.c ****   PeriphClkInit->PeriphClockSelection = RCC_PERIPHCLK_I2S_APB1 | RCC_PERIPHCLK_I2S_APB2 |\
 1419              		.loc 1 494 3 view .LVU382
 1420              		.loc 1 494 39 is_stmt 0 view .LVU383
 1421 0000 40F2FF73 		movw	r3, #2047
 1422 0004 0360     		str	r3, [r0]
 495:/home/christoschristoforou/STM32Cube/Repository/STM32Cube_FW_F4_V1.27.0/Drivers/STM32F4xx_HAL_Driver/Src/stm32f4xx_hal_rcc_ex.c ****                                         RCC_PERIPHCLK_SAI1     | RCC_PERIPHCLK_SAI2     |\
 496:/home/christoschristoforou/STM32Cube/Repository/STM32Cube_FW_F4_V1.27.0/Drivers/STM32F4xx_HAL_Driver/Src/stm32f4xx_hal_rcc_ex.c ****                                         RCC_PERIPHCLK_TIM      | RCC_PERIPHCLK_RTC      |\
 497:/home/christoschristoforou/STM32Cube/Repository/STM32Cube_FW_F4_V1.27.0/Drivers/STM32F4xx_HAL_Driver/Src/stm32f4xx_hal_rcc_ex.c ****                                         RCC_PERIPHCLK_CEC      | RCC_PERIPHCLK_FMPI2C1  |\
 498:/home/christoschristoforou/STM32Cube/Repository/STM32Cube_FW_F4_V1.27.0/Drivers/STM32F4xx_HAL_Driver/Src/stm32f4xx_hal_rcc_ex.c ****                                         RCC_PERIPHCLK_CLK48     | RCC_PERIPHCLK_SDIO     |\
 499:/home/christoschristoforou/STM32Cube/Repository/STM32Cube_FW_F4_V1.27.0/Drivers/STM32F4xx_HAL_Driver/Src/stm32f4xx_hal_rcc_ex.c ****                                         RCC_PERIPHCLK_SPDIFRX;
 500:/home/christoschristoforou/STM32Cube/Repository/STM32Cube_FW_F4_V1.27.0/Drivers/STM32F4xx_HAL_Driver/Src/stm32f4xx_hal_rcc_ex.c **** 
 501:/home/christoschristoforou/STM32Cube/Repository/STM32Cube_FW_F4_V1.27.0/Drivers/STM32F4xx_HAL_Driver/Src/stm32f4xx_hal_rcc_ex.c ****   /* Get the PLLI2S Clock configuration --------------------------------------*/
 502:/home/christoschristoforou/STM32Cube/Repository/STM32Cube_FW_F4_V1.27.0/Drivers/STM32F4xx_HAL_Driver/Src/stm32f4xx_hal_rcc_ex.c ****   PeriphClkInit->PLLI2S.PLLI2SM = (uint32_t)((RCC->PLLI2SCFGR & RCC_PLLI2SCFGR_PLLI2SM) >> RCC_PLLI
 1423              		.loc 1 502 3 is_stmt 1 view .LVU384
 1424              		.loc 1 502 50 is_stmt 0 view .LVU385
 1425 0006 3F4B     		ldr	r3, .L133
 1426 0008 D3F88420 		ldr	r2, [r3, #132]
 1427              		.loc 1 502 35 view .LVU386
 1428 000c 02F03F02 		and	r2, r2, #63
 1429              		.loc 1 502 33 view .LVU387
 1430 0010 4260     		str	r2, [r0, #4]
 503:/home/christoschristoforou/STM32Cube/Repository/STM32Cube_FW_F4_V1.27.0/Drivers/STM32F4xx_HAL_Driver/Src/stm32f4xx_hal_rcc_ex.c ****   PeriphClkInit->PLLI2S.PLLI2SN = (uint32_t)((RCC->PLLI2SCFGR & RCC_PLLI2SCFGR_PLLI2SN) >> RCC_PLLI
 1431              		.loc 1 503 3 is_stmt 1 view .LVU388
 1432              		.loc 1 503 50 is_stmt 0 view .LVU389
 1433 0012 D3F88420 		ldr	r2, [r3, #132]
 1434              		.loc 1 503 35 view .LVU390
 1435 0016 C2F38812 		ubfx	r2, r2, #6, #9
 1436              		.loc 1 503 33 view .LVU391
 1437 001a 8260     		str	r2, [r0, #8]
 504:/home/christoschristoforou/STM32Cube/Repository/STM32Cube_FW_F4_V1.27.0/Drivers/STM32F4xx_HAL_Driver/Src/stm32f4xx_hal_rcc_ex.c ****   PeriphClkInit->PLLI2S.PLLI2SP = (uint32_t)((((RCC->PLLI2SCFGR & RCC_PLLI2SCFGR_PLLI2SP) >> RCC_PL
 1438              		.loc 1 504 3 is_stmt 1 view .LVU392
 1439              		.loc 1 504 52 is_stmt 0 view .LVU393
 1440 001c D3F88420 		ldr	r2, [r3, #132]
 1441              		.loc 1 504 91 view .LVU394
 1442 0020 C2F30142 		ubfx	r2, r2, #16, #2
 1443              		.loc 1 504 122 view .LVU395
 1444 0024 0132     		adds	r2, r2, #1
 1445              		.loc 1 504 35 view .LVU396
 1446 0026 5200     		lsls	r2, r2, #1
 1447              		.loc 1 504 33 view .LVU397
 1448 0028 C260     		str	r2, [r0, #12]
 505:/home/christoschristoforou/STM32Cube/Repository/STM32Cube_FW_F4_V1.27.0/Drivers/STM32F4xx_HAL_Driver/Src/stm32f4xx_hal_rcc_ex.c ****   PeriphClkInit->PLLI2S.PLLI2SQ = (uint32_t)((RCC->PLLI2SCFGR & RCC_PLLI2SCFGR_PLLI2SQ) >> RCC_PLLI
 1449              		.loc 1 505 3 is_stmt 1 view .LVU398
 1450              		.loc 1 505 50 is_stmt 0 view .LVU399
 1451 002a D3F88420 		ldr	r2, [r3, #132]
 1452              		.loc 1 505 35 view .LVU400
 1453 002e C2F30362 		ubfx	r2, r2, #24, #4
 1454              		.loc 1 505 33 view .LVU401
 1455 0032 0261     		str	r2, [r0, #16]
 506:/home/christoschristoforou/STM32Cube/Repository/STM32Cube_FW_F4_V1.27.0/Drivers/STM32F4xx_HAL_Driver/Src/stm32f4xx_hal_rcc_ex.c ****   PeriphClkInit->PLLI2S.PLLI2SR = (uint32_t)((RCC->PLLI2SCFGR & RCC_PLLI2SCFGR_PLLI2SR) >> RCC_PLLI
 1456              		.loc 1 506 3 is_stmt 1 view .LVU402
 1457              		.loc 1 506 50 is_stmt 0 view .LVU403
 1458 0034 D3F88420 		ldr	r2, [r3, #132]
 1459              		.loc 1 506 35 view .LVU404
 1460 0038 C2F30272 		ubfx	r2, r2, #28, #3
ARM GAS  /tmp/ccbai6tv.s 			page 39


 1461              		.loc 1 506 33 view .LVU405
 1462 003c 4261     		str	r2, [r0, #20]
 507:/home/christoschristoforou/STM32Cube/Repository/STM32Cube_FW_F4_V1.27.0/Drivers/STM32F4xx_HAL_Driver/Src/stm32f4xx_hal_rcc_ex.c ****   /* Get the PLLSAI Clock configuration --------------------------------------*/
 508:/home/christoschristoforou/STM32Cube/Repository/STM32Cube_FW_F4_V1.27.0/Drivers/STM32F4xx_HAL_Driver/Src/stm32f4xx_hal_rcc_ex.c ****   PeriphClkInit->PLLSAI.PLLSAIM = (uint32_t)((RCC->PLLSAICFGR & RCC_PLLSAICFGR_PLLSAIM) >> RCC_PLLS
 1463              		.loc 1 508 3 is_stmt 1 view .LVU406
 1464              		.loc 1 508 50 is_stmt 0 view .LVU407
 1465 003e D3F88820 		ldr	r2, [r3, #136]
 1466              		.loc 1 508 35 view .LVU408
 1467 0042 02F03F02 		and	r2, r2, #63
 1468              		.loc 1 508 33 view .LVU409
 1469 0046 8261     		str	r2, [r0, #24]
 509:/home/christoschristoforou/STM32Cube/Repository/STM32Cube_FW_F4_V1.27.0/Drivers/STM32F4xx_HAL_Driver/Src/stm32f4xx_hal_rcc_ex.c ****   PeriphClkInit->PLLSAI.PLLSAIN = (uint32_t)((RCC->PLLSAICFGR & RCC_PLLSAICFGR_PLLSAIN) >> RCC_PLLS
 1470              		.loc 1 509 3 is_stmt 1 view .LVU410
 1471              		.loc 1 509 50 is_stmt 0 view .LVU411
 1472 0048 D3F88820 		ldr	r2, [r3, #136]
 1473              		.loc 1 509 35 view .LVU412
 1474 004c C2F38812 		ubfx	r2, r2, #6, #9
 1475              		.loc 1 509 33 view .LVU413
 1476 0050 C261     		str	r2, [r0, #28]
 510:/home/christoschristoforou/STM32Cube/Repository/STM32Cube_FW_F4_V1.27.0/Drivers/STM32F4xx_HAL_Driver/Src/stm32f4xx_hal_rcc_ex.c ****   PeriphClkInit->PLLSAI.PLLSAIP = (uint32_t)((((RCC->PLLSAICFGR & RCC_PLLSAICFGR_PLLSAIP) >> RCC_PL
 1477              		.loc 1 510 3 is_stmt 1 view .LVU414
 1478              		.loc 1 510 52 is_stmt 0 view .LVU415
 1479 0052 D3F88820 		ldr	r2, [r3, #136]
 1480              		.loc 1 510 91 view .LVU416
 1481 0056 C2F30142 		ubfx	r2, r2, #16, #2
 1482              		.loc 1 510 122 view .LVU417
 1483 005a 0132     		adds	r2, r2, #1
 1484              		.loc 1 510 35 view .LVU418
 1485 005c 5200     		lsls	r2, r2, #1
 1486              		.loc 1 510 33 view .LVU419
 1487 005e 0262     		str	r2, [r0, #32]
 511:/home/christoschristoforou/STM32Cube/Repository/STM32Cube_FW_F4_V1.27.0/Drivers/STM32F4xx_HAL_Driver/Src/stm32f4xx_hal_rcc_ex.c ****   PeriphClkInit->PLLSAI.PLLSAIQ = (uint32_t)((RCC->PLLSAICFGR & RCC_PLLSAICFGR_PLLSAIQ) >> RCC_PLLS
 1488              		.loc 1 511 3 is_stmt 1 view .LVU420
 1489              		.loc 1 511 50 is_stmt 0 view .LVU421
 1490 0060 D3F88820 		ldr	r2, [r3, #136]
 1491              		.loc 1 511 35 view .LVU422
 1492 0064 C2F30362 		ubfx	r2, r2, #24, #4
 1493              		.loc 1 511 33 view .LVU423
 1494 0068 4262     		str	r2, [r0, #36]
 512:/home/christoschristoforou/STM32Cube/Repository/STM32Cube_FW_F4_V1.27.0/Drivers/STM32F4xx_HAL_Driver/Src/stm32f4xx_hal_rcc_ex.c ****   /* Get the PLLSAI/PLLI2S division factors ----------------------------------*/
 513:/home/christoschristoforou/STM32Cube/Repository/STM32Cube_FW_F4_V1.27.0/Drivers/STM32F4xx_HAL_Driver/Src/stm32f4xx_hal_rcc_ex.c ****   PeriphClkInit->PLLI2SDivQ = (uint32_t)((RCC->DCKCFGR & RCC_DCKCFGR_PLLI2SDIVQ) >> RCC_DCKCFGR_PLL
 1495              		.loc 1 513 3 is_stmt 1 view .LVU424
 1496              		.loc 1 513 46 is_stmt 0 view .LVU425
 1497 006a D3F88C20 		ldr	r2, [r3, #140]
 1498              		.loc 1 513 31 view .LVU426
 1499 006e 02F01F02 		and	r2, r2, #31
 1500              		.loc 1 513 29 view .LVU427
 1501 0072 8262     		str	r2, [r0, #40]
 514:/home/christoschristoforou/STM32Cube/Repository/STM32Cube_FW_F4_V1.27.0/Drivers/STM32F4xx_HAL_Driver/Src/stm32f4xx_hal_rcc_ex.c ****   PeriphClkInit->PLLSAIDivQ = (uint32_t)((RCC->DCKCFGR & RCC_DCKCFGR_PLLSAIDIVQ) >> RCC_DCKCFGR_PLL
 1502              		.loc 1 514 3 is_stmt 1 view .LVU428
 1503              		.loc 1 514 46 is_stmt 0 view .LVU429
 1504 0074 D3F88C20 		ldr	r2, [r3, #140]
 1505              		.loc 1 514 31 view .LVU430
 1506 0078 C2F30422 		ubfx	r2, r2, #8, #5
 1507              		.loc 1 514 29 view .LVU431
 1508 007c C262     		str	r2, [r0, #44]
 515:/home/christoschristoforou/STM32Cube/Repository/STM32Cube_FW_F4_V1.27.0/Drivers/STM32F4xx_HAL_Driver/Src/stm32f4xx_hal_rcc_ex.c **** 
ARM GAS  /tmp/ccbai6tv.s 			page 40


 516:/home/christoschristoforou/STM32Cube/Repository/STM32Cube_FW_F4_V1.27.0/Drivers/STM32F4xx_HAL_Driver/Src/stm32f4xx_hal_rcc_ex.c ****   /* Get the SAI1 clock configuration ----------------------------------------*/
 517:/home/christoschristoforou/STM32Cube/Repository/STM32Cube_FW_F4_V1.27.0/Drivers/STM32F4xx_HAL_Driver/Src/stm32f4xx_hal_rcc_ex.c ****   PeriphClkInit->Sai1ClockSelection = __HAL_RCC_GET_SAI1_SOURCE();
 1509              		.loc 1 517 3 is_stmt 1 view .LVU432
 1510              		.loc 1 517 39 is_stmt 0 view .LVU433
 1511 007e D3F88C20 		ldr	r2, [r3, #140]
 1512 0082 02F44012 		and	r2, r2, #3145728
 1513              		.loc 1 517 37 view .LVU434
 1514 0086 0263     		str	r2, [r0, #48]
 518:/home/christoschristoforou/STM32Cube/Repository/STM32Cube_FW_F4_V1.27.0/Drivers/STM32F4xx_HAL_Driver/Src/stm32f4xx_hal_rcc_ex.c **** 
 519:/home/christoschristoforou/STM32Cube/Repository/STM32Cube_FW_F4_V1.27.0/Drivers/STM32F4xx_HAL_Driver/Src/stm32f4xx_hal_rcc_ex.c ****   /* Get the SAI2 clock configuration ----------------------------------------*/
 520:/home/christoschristoforou/STM32Cube/Repository/STM32Cube_FW_F4_V1.27.0/Drivers/STM32F4xx_HAL_Driver/Src/stm32f4xx_hal_rcc_ex.c ****   PeriphClkInit->Sai2ClockSelection = __HAL_RCC_GET_SAI2_SOURCE();
 1515              		.loc 1 520 3 is_stmt 1 view .LVU435
 1516              		.loc 1 520 39 is_stmt 0 view .LVU436
 1517 0088 D3F88C20 		ldr	r2, [r3, #140]
 1518 008c 02F44002 		and	r2, r2, #12582912
 1519              		.loc 1 520 37 view .LVU437
 1520 0090 4263     		str	r2, [r0, #52]
 521:/home/christoschristoforou/STM32Cube/Repository/STM32Cube_FW_F4_V1.27.0/Drivers/STM32F4xx_HAL_Driver/Src/stm32f4xx_hal_rcc_ex.c **** 
 522:/home/christoschristoforou/STM32Cube/Repository/STM32Cube_FW_F4_V1.27.0/Drivers/STM32F4xx_HAL_Driver/Src/stm32f4xx_hal_rcc_ex.c ****   /* Get the I2S APB1 clock configuration ------------------------------------*/
 523:/home/christoschristoforou/STM32Cube/Repository/STM32Cube_FW_F4_V1.27.0/Drivers/STM32F4xx_HAL_Driver/Src/stm32f4xx_hal_rcc_ex.c ****   PeriphClkInit->I2sApb1ClockSelection = __HAL_RCC_GET_I2S_APB1_SOURCE();
 1521              		.loc 1 523 3 is_stmt 1 view .LVU438
 1522              		.loc 1 523 42 is_stmt 0 view .LVU439
 1523 0092 D3F88C20 		ldr	r2, [r3, #140]
 1524 0096 02F0C062 		and	r2, r2, #100663296
 1525              		.loc 1 523 40 view .LVU440
 1526 009a 8263     		str	r2, [r0, #56]
 524:/home/christoschristoforou/STM32Cube/Repository/STM32Cube_FW_F4_V1.27.0/Drivers/STM32F4xx_HAL_Driver/Src/stm32f4xx_hal_rcc_ex.c **** 
 525:/home/christoschristoforou/STM32Cube/Repository/STM32Cube_FW_F4_V1.27.0/Drivers/STM32F4xx_HAL_Driver/Src/stm32f4xx_hal_rcc_ex.c ****   /* Get the I2S APB2 clock configuration ------------------------------------*/
 526:/home/christoschristoforou/STM32Cube/Repository/STM32Cube_FW_F4_V1.27.0/Drivers/STM32F4xx_HAL_Driver/Src/stm32f4xx_hal_rcc_ex.c ****   PeriphClkInit->I2sApb2ClockSelection = __HAL_RCC_GET_I2S_APB2_SOURCE();
 1527              		.loc 1 526 3 is_stmt 1 view .LVU441
 1528              		.loc 1 526 42 is_stmt 0 view .LVU442
 1529 009c D3F88C20 		ldr	r2, [r3, #140]
 1530 00a0 02F0C052 		and	r2, r2, #402653184
 1531              		.loc 1 526 40 view .LVU443
 1532 00a4 C263     		str	r2, [r0, #60]
 527:/home/christoschristoforou/STM32Cube/Repository/STM32Cube_FW_F4_V1.27.0/Drivers/STM32F4xx_HAL_Driver/Src/stm32f4xx_hal_rcc_ex.c **** 
 528:/home/christoschristoforou/STM32Cube/Repository/STM32Cube_FW_F4_V1.27.0/Drivers/STM32F4xx_HAL_Driver/Src/stm32f4xx_hal_rcc_ex.c ****   /* Get the RTC Clock configuration -----------------------------------------*/
 529:/home/christoschristoforou/STM32Cube/Repository/STM32Cube_FW_F4_V1.27.0/Drivers/STM32F4xx_HAL_Driver/Src/stm32f4xx_hal_rcc_ex.c ****   tempreg = (RCC->CFGR & RCC_CFGR_RTCPRE);
 1533              		.loc 1 529 3 is_stmt 1 view .LVU444
 1534              		.loc 1 529 17 is_stmt 0 view .LVU445
 1535 00a6 9968     		ldr	r1, [r3, #8]
 1536              		.loc 1 529 11 view .LVU446
 1537 00a8 01F4F811 		and	r1, r1, #2031616
 1538              	.LVL100:
 530:/home/christoschristoforou/STM32Cube/Repository/STM32Cube_FW_F4_V1.27.0/Drivers/STM32F4xx_HAL_Driver/Src/stm32f4xx_hal_rcc_ex.c ****   PeriphClkInit->RTCClockSelection = (uint32_t)((tempreg) | (RCC->BDCR & RCC_BDCR_RTCSEL));
 1539              		.loc 1 530 3 is_stmt 1 view .LVU447
 1540              		.loc 1 530 65 is_stmt 0 view .LVU448
 1541 00ac 1A6F     		ldr	r2, [r3, #112]
 1542              		.loc 1 530 72 view .LVU449
 1543 00ae 02F44072 		and	r2, r2, #768
 1544              		.loc 1 530 38 view .LVU450
 1545 00b2 0A43     		orrs	r2, r2, r1
 1546              		.loc 1 530 36 view .LVU451
 1547 00b4 0264     		str	r2, [r0, #64]
 531:/home/christoschristoforou/STM32Cube/Repository/STM32Cube_FW_F4_V1.27.0/Drivers/STM32F4xx_HAL_Driver/Src/stm32f4xx_hal_rcc_ex.c **** 
 532:/home/christoschristoforou/STM32Cube/Repository/STM32Cube_FW_F4_V1.27.0/Drivers/STM32F4xx_HAL_Driver/Src/stm32f4xx_hal_rcc_ex.c ****   /* Get the CEC clock configuration -----------------------------------------*/
 533:/home/christoschristoforou/STM32Cube/Repository/STM32Cube_FW_F4_V1.27.0/Drivers/STM32F4xx_HAL_Driver/Src/stm32f4xx_hal_rcc_ex.c ****   PeriphClkInit->CecClockSelection = __HAL_RCC_GET_CEC_SOURCE();
ARM GAS  /tmp/ccbai6tv.s 			page 41


 1548              		.loc 1 533 3 is_stmt 1 view .LVU452
 1549              		.loc 1 533 38 is_stmt 0 view .LVU453
 1550 00b6 D3F89420 		ldr	r2, [r3, #148]
 1551 00ba 02F08062 		and	r2, r2, #67108864
 1552              		.loc 1 533 36 view .LVU454
 1553 00be 8264     		str	r2, [r0, #72]
 534:/home/christoschristoforou/STM32Cube/Repository/STM32Cube_FW_F4_V1.27.0/Drivers/STM32F4xx_HAL_Driver/Src/stm32f4xx_hal_rcc_ex.c **** 
 535:/home/christoschristoforou/STM32Cube/Repository/STM32Cube_FW_F4_V1.27.0/Drivers/STM32F4xx_HAL_Driver/Src/stm32f4xx_hal_rcc_ex.c ****   /* Get the FMPI2C1 clock configuration -------------------------------------*/
 536:/home/christoschristoforou/STM32Cube/Repository/STM32Cube_FW_F4_V1.27.0/Drivers/STM32F4xx_HAL_Driver/Src/stm32f4xx_hal_rcc_ex.c ****   PeriphClkInit->Fmpi2c1ClockSelection = __HAL_RCC_GET_FMPI2C1_SOURCE();
 1554              		.loc 1 536 3 is_stmt 1 view .LVU455
 1555              		.loc 1 536 42 is_stmt 0 view .LVU456
 1556 00c0 D3F89420 		ldr	r2, [r3, #148]
 1557 00c4 02F44002 		and	r2, r2, #12582912
 1558              		.loc 1 536 40 view .LVU457
 1559 00c8 C264     		str	r2, [r0, #76]
 537:/home/christoschristoforou/STM32Cube/Repository/STM32Cube_FW_F4_V1.27.0/Drivers/STM32F4xx_HAL_Driver/Src/stm32f4xx_hal_rcc_ex.c **** 
 538:/home/christoschristoforou/STM32Cube/Repository/STM32Cube_FW_F4_V1.27.0/Drivers/STM32F4xx_HAL_Driver/Src/stm32f4xx_hal_rcc_ex.c ****   /* Get the CLK48 clock configuration ----------------------------------------*/
 539:/home/christoschristoforou/STM32Cube/Repository/STM32Cube_FW_F4_V1.27.0/Drivers/STM32F4xx_HAL_Driver/Src/stm32f4xx_hal_rcc_ex.c ****   PeriphClkInit->Clk48ClockSelection = __HAL_RCC_GET_CLK48_SOURCE();
 1560              		.loc 1 539 3 is_stmt 1 view .LVU458
 1561              		.loc 1 539 40 is_stmt 0 view .LVU459
 1562 00ca D3F89420 		ldr	r2, [r3, #148]
 1563 00ce 02F00062 		and	r2, r2, #134217728
 1564              		.loc 1 539 38 view .LVU460
 1565 00d2 4265     		str	r2, [r0, #84]
 540:/home/christoschristoforou/STM32Cube/Repository/STM32Cube_FW_F4_V1.27.0/Drivers/STM32F4xx_HAL_Driver/Src/stm32f4xx_hal_rcc_ex.c **** 
 541:/home/christoschristoforou/STM32Cube/Repository/STM32Cube_FW_F4_V1.27.0/Drivers/STM32F4xx_HAL_Driver/Src/stm32f4xx_hal_rcc_ex.c ****   /* Get the SDIO clock configuration ----------------------------------------*/
 542:/home/christoschristoforou/STM32Cube/Repository/STM32Cube_FW_F4_V1.27.0/Drivers/STM32F4xx_HAL_Driver/Src/stm32f4xx_hal_rcc_ex.c ****   PeriphClkInit->SdioClockSelection = __HAL_RCC_GET_SDIO_SOURCE();
 1566              		.loc 1 542 3 is_stmt 1 view .LVU461
 1567              		.loc 1 542 39 is_stmt 0 view .LVU462
 1568 00d4 D3F89420 		ldr	r2, [r3, #148]
 1569 00d8 02F08052 		and	r2, r2, #268435456
 1570              		.loc 1 542 37 view .LVU463
 1571 00dc 4264     		str	r2, [r0, #68]
 543:/home/christoschristoforou/STM32Cube/Repository/STM32Cube_FW_F4_V1.27.0/Drivers/STM32F4xx_HAL_Driver/Src/stm32f4xx_hal_rcc_ex.c **** 
 544:/home/christoschristoforou/STM32Cube/Repository/STM32Cube_FW_F4_V1.27.0/Drivers/STM32F4xx_HAL_Driver/Src/stm32f4xx_hal_rcc_ex.c ****   /* Get the SPDIFRX clock configuration -------------------------------------*/
 545:/home/christoschristoforou/STM32Cube/Repository/STM32Cube_FW_F4_V1.27.0/Drivers/STM32F4xx_HAL_Driver/Src/stm32f4xx_hal_rcc_ex.c ****   PeriphClkInit->SpdifClockSelection = __HAL_RCC_GET_SPDIFRX_SOURCE();
 1572              		.loc 1 545 3 is_stmt 1 view .LVU464
 1573              		.loc 1 545 40 is_stmt 0 view .LVU465
 1574 00de D3F89420 		ldr	r2, [r3, #148]
 1575 00e2 02F00052 		and	r2, r2, #536870912
 1576              		.loc 1 545 38 view .LVU466
 1577 00e6 0265     		str	r2, [r0, #80]
 546:/home/christoschristoforou/STM32Cube/Repository/STM32Cube_FW_F4_V1.27.0/Drivers/STM32F4xx_HAL_Driver/Src/stm32f4xx_hal_rcc_ex.c **** 
 547:/home/christoschristoforou/STM32Cube/Repository/STM32Cube_FW_F4_V1.27.0/Drivers/STM32F4xx_HAL_Driver/Src/stm32f4xx_hal_rcc_ex.c ****   /* Get the TIM Prescaler configuration -------------------------------------*/
 548:/home/christoschristoforou/STM32Cube/Repository/STM32Cube_FW_F4_V1.27.0/Drivers/STM32F4xx_HAL_Driver/Src/stm32f4xx_hal_rcc_ex.c ****   if ((RCC->DCKCFGR & RCC_DCKCFGR_TIMPRE) == RESET)
 1578              		.loc 1 548 3 is_stmt 1 view .LVU467
 1579              		.loc 1 548 11 is_stmt 0 view .LVU468
 1580 00e8 D3F88C30 		ldr	r3, [r3, #140]
 1581              		.loc 1 548 6 view .LVU469
 1582 00ec 13F0807F 		tst	r3, #16777216
 1583 00f0 03D1     		bne	.L131
 549:/home/christoschristoforou/STM32Cube/Repository/STM32Cube_FW_F4_V1.27.0/Drivers/STM32F4xx_HAL_Driver/Src/stm32f4xx_hal_rcc_ex.c ****   {
 550:/home/christoschristoforou/STM32Cube/Repository/STM32Cube_FW_F4_V1.27.0/Drivers/STM32F4xx_HAL_Driver/Src/stm32f4xx_hal_rcc_ex.c ****     PeriphClkInit->TIMPresSelection = RCC_TIMPRES_DESACTIVATED;
 1584              		.loc 1 550 5 is_stmt 1 view .LVU470
 1585              		.loc 1 550 37 is_stmt 0 view .LVU471
 1586 00f2 0023     		movs	r3, #0
 1587 00f4 80F85830 		strb	r3, [r0, #88]
ARM GAS  /tmp/ccbai6tv.s 			page 42


 1588 00f8 7047     		bx	lr
 1589              	.L131:
 551:/home/christoschristoforou/STM32Cube/Repository/STM32Cube_FW_F4_V1.27.0/Drivers/STM32F4xx_HAL_Driver/Src/stm32f4xx_hal_rcc_ex.c ****   }
 552:/home/christoschristoforou/STM32Cube/Repository/STM32Cube_FW_F4_V1.27.0/Drivers/STM32F4xx_HAL_Driver/Src/stm32f4xx_hal_rcc_ex.c ****   else
 553:/home/christoschristoforou/STM32Cube/Repository/STM32Cube_FW_F4_V1.27.0/Drivers/STM32F4xx_HAL_Driver/Src/stm32f4xx_hal_rcc_ex.c ****   {
 554:/home/christoschristoforou/STM32Cube/Repository/STM32Cube_FW_F4_V1.27.0/Drivers/STM32F4xx_HAL_Driver/Src/stm32f4xx_hal_rcc_ex.c ****     PeriphClkInit->TIMPresSelection = RCC_TIMPRES_ACTIVATED;
 1590              		.loc 1 554 5 is_stmt 1 view .LVU472
 1591              		.loc 1 554 37 is_stmt 0 view .LVU473
 1592 00fa 0123     		movs	r3, #1
 1593 00fc 80F85830 		strb	r3, [r0, #88]
 555:/home/christoschristoforou/STM32Cube/Repository/STM32Cube_FW_F4_V1.27.0/Drivers/STM32F4xx_HAL_Driver/Src/stm32f4xx_hal_rcc_ex.c ****   }
 556:/home/christoschristoforou/STM32Cube/Repository/STM32Cube_FW_F4_V1.27.0/Drivers/STM32F4xx_HAL_Driver/Src/stm32f4xx_hal_rcc_ex.c **** }
 1594              		.loc 1 556 1 view .LVU474
 1595 0100 7047     		bx	lr
 1596              	.L134:
 1597 0102 00BF     		.align	2
 1598              	.L133:
 1599 0104 00380240 		.word	1073887232
 1600              		.cfi_endproc
 1601              	.LFE131:
 1603              		.section	.text.HAL_RCCEx_GetPeriphCLKFreq,"ax",%progbits
 1604              		.align	1
 1605              		.global	HAL_RCCEx_GetPeriphCLKFreq
 1606              		.syntax unified
 1607              		.thumb
 1608              		.thumb_func
 1609              		.fpu fpv4-sp-d16
 1611              	HAL_RCCEx_GetPeriphCLKFreq:
 1612              	.LVL101:
 1613              	.LFB132:
 557:/home/christoschristoforou/STM32Cube/Repository/STM32Cube_FW_F4_V1.27.0/Drivers/STM32F4xx_HAL_Driver/Src/stm32f4xx_hal_rcc_ex.c **** 
 558:/home/christoschristoforou/STM32Cube/Repository/STM32Cube_FW_F4_V1.27.0/Drivers/STM32F4xx_HAL_Driver/Src/stm32f4xx_hal_rcc_ex.c **** /**
 559:/home/christoschristoforou/STM32Cube/Repository/STM32Cube_FW_F4_V1.27.0/Drivers/STM32F4xx_HAL_Driver/Src/stm32f4xx_hal_rcc_ex.c ****   * @brief  Return the peripheral clock frequency for a given peripheral(SAI..)
 560:/home/christoschristoforou/STM32Cube/Repository/STM32Cube_FW_F4_V1.27.0/Drivers/STM32F4xx_HAL_Driver/Src/stm32f4xx_hal_rcc_ex.c ****   * @note   Return 0 if peripheral clock identifier not managed by this API
 561:/home/christoschristoforou/STM32Cube/Repository/STM32Cube_FW_F4_V1.27.0/Drivers/STM32F4xx_HAL_Driver/Src/stm32f4xx_hal_rcc_ex.c ****   * @param  PeriphClk Peripheral clock identifier
 562:/home/christoschristoforou/STM32Cube/Repository/STM32Cube_FW_F4_V1.27.0/Drivers/STM32F4xx_HAL_Driver/Src/stm32f4xx_hal_rcc_ex.c ****   *         This parameter can be one of the following values:
 563:/home/christoschristoforou/STM32Cube/Repository/STM32Cube_FW_F4_V1.27.0/Drivers/STM32F4xx_HAL_Driver/Src/stm32f4xx_hal_rcc_ex.c ****   *            @arg RCC_PERIPHCLK_SAI1: SAI1 peripheral clock
 564:/home/christoschristoforou/STM32Cube/Repository/STM32Cube_FW_F4_V1.27.0/Drivers/STM32F4xx_HAL_Driver/Src/stm32f4xx_hal_rcc_ex.c ****   *            @arg RCC_PERIPHCLK_SAI2: SAI2 peripheral clock
 565:/home/christoschristoforou/STM32Cube/Repository/STM32Cube_FW_F4_V1.27.0/Drivers/STM32F4xx_HAL_Driver/Src/stm32f4xx_hal_rcc_ex.c ****   *            @arg RCC_PERIPHCLK_I2S_APB1: I2S APB1 peripheral clock
 566:/home/christoschristoforou/STM32Cube/Repository/STM32Cube_FW_F4_V1.27.0/Drivers/STM32F4xx_HAL_Driver/Src/stm32f4xx_hal_rcc_ex.c ****   *            @arg RCC_PERIPHCLK_I2S_APB2: I2S APB2 peripheral clock
 567:/home/christoschristoforou/STM32Cube/Repository/STM32Cube_FW_F4_V1.27.0/Drivers/STM32F4xx_HAL_Driver/Src/stm32f4xx_hal_rcc_ex.c ****   * @retval Frequency in KHz
 568:/home/christoschristoforou/STM32Cube/Repository/STM32Cube_FW_F4_V1.27.0/Drivers/STM32F4xx_HAL_Driver/Src/stm32f4xx_hal_rcc_ex.c ****   */
 569:/home/christoschristoforou/STM32Cube/Repository/STM32Cube_FW_F4_V1.27.0/Drivers/STM32F4xx_HAL_Driver/Src/stm32f4xx_hal_rcc_ex.c **** uint32_t HAL_RCCEx_GetPeriphCLKFreq(uint32_t PeriphClk)
 570:/home/christoschristoforou/STM32Cube/Repository/STM32Cube_FW_F4_V1.27.0/Drivers/STM32F4xx_HAL_Driver/Src/stm32f4xx_hal_rcc_ex.c **** {
 1614              		.loc 1 570 1 is_stmt 1 view -0
 1615              		.cfi_startproc
 1616              		@ args = 0, pretend = 0, frame = 0
 1617              		@ frame_needed = 0, uses_anonymous_args = 0
 1618              		@ link register save eliminated.
 571:/home/christoschristoforou/STM32Cube/Repository/STM32Cube_FW_F4_V1.27.0/Drivers/STM32F4xx_HAL_Driver/Src/stm32f4xx_hal_rcc_ex.c ****   uint32_t tmpreg1 = 0U;
 1619              		.loc 1 571 3 view .LVU476
 572:/home/christoschristoforou/STM32Cube/Repository/STM32Cube_FW_F4_V1.27.0/Drivers/STM32F4xx_HAL_Driver/Src/stm32f4xx_hal_rcc_ex.c ****   /* This variable used to store the SAI clock frequency (value in Hz) */
 573:/home/christoschristoforou/STM32Cube/Repository/STM32Cube_FW_F4_V1.27.0/Drivers/STM32F4xx_HAL_Driver/Src/stm32f4xx_hal_rcc_ex.c ****   uint32_t frequency = 0U;
 1620              		.loc 1 573 3 view .LVU477
 574:/home/christoschristoforou/STM32Cube/Repository/STM32Cube_FW_F4_V1.27.0/Drivers/STM32F4xx_HAL_Driver/Src/stm32f4xx_hal_rcc_ex.c ****   /* This variable used to store the VCO Input (value in Hz) */
 575:/home/christoschristoforou/STM32Cube/Repository/STM32Cube_FW_F4_V1.27.0/Drivers/STM32F4xx_HAL_Driver/Src/stm32f4xx_hal_rcc_ex.c ****   uint32_t vcoinput = 0U;
 1621              		.loc 1 575 3 view .LVU478
ARM GAS  /tmp/ccbai6tv.s 			page 43


 576:/home/christoschristoforou/STM32Cube/Repository/STM32Cube_FW_F4_V1.27.0/Drivers/STM32F4xx_HAL_Driver/Src/stm32f4xx_hal_rcc_ex.c ****   /* This variable used to store the SAI clock source */
 577:/home/christoschristoforou/STM32Cube/Repository/STM32Cube_FW_F4_V1.27.0/Drivers/STM32F4xx_HAL_Driver/Src/stm32f4xx_hal_rcc_ex.c ****   uint32_t saiclocksource = 0U;
 1622              		.loc 1 577 3 view .LVU479
 578:/home/christoschristoforou/STM32Cube/Repository/STM32Cube_FW_F4_V1.27.0/Drivers/STM32F4xx_HAL_Driver/Src/stm32f4xx_hal_rcc_ex.c ****   uint32_t srcclk = 0U;
 1623              		.loc 1 578 3 view .LVU480
 579:/home/christoschristoforou/STM32Cube/Repository/STM32Cube_FW_F4_V1.27.0/Drivers/STM32F4xx_HAL_Driver/Src/stm32f4xx_hal_rcc_ex.c ****   /* This variable used to store the VCO Output (value in Hz) */
 580:/home/christoschristoforou/STM32Cube/Repository/STM32Cube_FW_F4_V1.27.0/Drivers/STM32F4xx_HAL_Driver/Src/stm32f4xx_hal_rcc_ex.c ****   uint32_t vcooutput = 0U;
 1624              		.loc 1 580 3 view .LVU481
 581:/home/christoschristoforou/STM32Cube/Repository/STM32Cube_FW_F4_V1.27.0/Drivers/STM32F4xx_HAL_Driver/Src/stm32f4xx_hal_rcc_ex.c ****   switch (PeriphClk)
 1625              		.loc 1 581 3 view .LVU482
 1626 0000 0138     		subs	r0, r0, #1
 1627              	.LVL102:
 1628              		.loc 1 581 3 is_stmt 0 view .LVU483
 1629 0002 0728     		cmp	r0, #7
 1630 0004 00F26681 		bhi	.L168
 1631 0008 DFE810F0 		tbh	[pc, r0, lsl #1]
 1632              	.L138:
 1633 000c A400     		.2byte	(.L140-.L138)/2
 1634 000e 0501     		.2byte	(.L139-.L138)/2
 1635 0010 6401     		.2byte	(.L168-.L138)/2
 1636 0012 0800     		.2byte	(.L137-.L138)/2
 1637 0014 6401     		.2byte	(.L168-.L138)/2
 1638 0016 6401     		.2byte	(.L168-.L138)/2
 1639 0018 6401     		.2byte	(.L168-.L138)/2
 1640 001a 0800     		.2byte	(.L137-.L138)/2
 1641              		.p2align 1
 1642              	.L137:
 582:/home/christoschristoforou/STM32Cube/Repository/STM32Cube_FW_F4_V1.27.0/Drivers/STM32F4xx_HAL_Driver/Src/stm32f4xx_hal_rcc_ex.c ****   {
 583:/home/christoschristoforou/STM32Cube/Repository/STM32Cube_FW_F4_V1.27.0/Drivers/STM32F4xx_HAL_Driver/Src/stm32f4xx_hal_rcc_ex.c ****   case RCC_PERIPHCLK_SAI1:
 584:/home/christoschristoforou/STM32Cube/Repository/STM32Cube_FW_F4_V1.27.0/Drivers/STM32F4xx_HAL_Driver/Src/stm32f4xx_hal_rcc_ex.c ****   case RCC_PERIPHCLK_SAI2:
 585:/home/christoschristoforou/STM32Cube/Repository/STM32Cube_FW_F4_V1.27.0/Drivers/STM32F4xx_HAL_Driver/Src/stm32f4xx_hal_rcc_ex.c ****     {
 586:/home/christoschristoforou/STM32Cube/Repository/STM32Cube_FW_F4_V1.27.0/Drivers/STM32F4xx_HAL_Driver/Src/stm32f4xx_hal_rcc_ex.c ****       saiclocksource = RCC->DCKCFGR;
 1643              		.loc 1 586 7 is_stmt 1 view .LVU484
 1644              		.loc 1 586 22 is_stmt 0 view .LVU485
 1645 001c B44B     		ldr	r3, .L180
 1646 001e D3F88C30 		ldr	r3, [r3, #140]
 1647              	.LVL103:
 587:/home/christoschristoforou/STM32Cube/Repository/STM32Cube_FW_F4_V1.27.0/Drivers/STM32F4xx_HAL_Driver/Src/stm32f4xx_hal_rcc_ex.c ****       saiclocksource &= (RCC_DCKCFGR_SAI1SRC | RCC_DCKCFGR_SAI2SRC);
 1648              		.loc 1 587 7 is_stmt 1 view .LVU486
 1649              		.loc 1 587 22 is_stmt 0 view .LVU487
 1650 0022 03F47003 		and	r3, r3, #15728640
 1651              	.LVL104:
 588:/home/christoschristoforou/STM32Cube/Repository/STM32Cube_FW_F4_V1.27.0/Drivers/STM32F4xx_HAL_Driver/Src/stm32f4xx_hal_rcc_ex.c ****       switch (saiclocksource)
 1652              		.loc 1 588 7 is_stmt 1 view .LVU488
 1653 0026 B3F5401F 		cmp	r3, #3145728
 1654 002a 00F05581 		beq	.L169
 1655 002e 0DD9     		bls	.L175
 1656 0030 B3F5000F 		cmp	r3, #8388608
 1657 0034 6ED0     		beq	.L143
 1658 0036 B3F5400F 		cmp	r3, #12582912
 1659 003a 32D1     		bne	.L176
 589:/home/christoschristoforou/STM32Cube/Repository/STM32Cube_FW_F4_V1.27.0/Drivers/STM32F4xx_HAL_Driver/Src/stm32f4xx_hal_rcc_ex.c ****       {
 590:/home/christoschristoforou/STM32Cube/Repository/STM32Cube_FW_F4_V1.27.0/Drivers/STM32F4xx_HAL_Driver/Src/stm32f4xx_hal_rcc_ex.c ****       case 0U: /* PLLSAI is the clock source for SAI*/
 591:/home/christoschristoforou/STM32Cube/Repository/STM32Cube_FW_F4_V1.27.0/Drivers/STM32F4xx_HAL_Driver/Src/stm32f4xx_hal_rcc_ex.c ****         {
 592:/home/christoschristoforou/STM32Cube/Repository/STM32Cube_FW_F4_V1.27.0/Drivers/STM32F4xx_HAL_Driver/Src/stm32f4xx_hal_rcc_ex.c ****           /* Configure the PLLSAI division factor */
 593:/home/christoschristoforou/STM32Cube/Repository/STM32Cube_FW_F4_V1.27.0/Drivers/STM32F4xx_HAL_Driver/Src/stm32f4xx_hal_rcc_ex.c ****           /* PLLSAI_VCO Input  = PLL_SOURCE/PLLSAIM */
 594:/home/christoschristoforou/STM32Cube/Repository/STM32Cube_FW_F4_V1.27.0/Drivers/STM32F4xx_HAL_Driver/Src/stm32f4xx_hal_rcc_ex.c ****           if((RCC->PLLCFGR & RCC_PLLCFGR_PLLSRC) == RCC_PLLSOURCE_HSI)
ARM GAS  /tmp/ccbai6tv.s 			page 44


 595:/home/christoschristoforou/STM32Cube/Repository/STM32Cube_FW_F4_V1.27.0/Drivers/STM32F4xx_HAL_Driver/Src/stm32f4xx_hal_rcc_ex.c ****           {
 596:/home/christoschristoforou/STM32Cube/Repository/STM32Cube_FW_F4_V1.27.0/Drivers/STM32F4xx_HAL_Driver/Src/stm32f4xx_hal_rcc_ex.c ****             /* In Case the PLL Source is HSI (Internal Clock) */
 597:/home/christoschristoforou/STM32Cube/Repository/STM32Cube_FW_F4_V1.27.0/Drivers/STM32F4xx_HAL_Driver/Src/stm32f4xx_hal_rcc_ex.c ****             vcoinput = (HSI_VALUE / (uint32_t)(RCC->PLLSAICFGR & RCC_PLLSAICFGR_PLLSAIM));
 598:/home/christoschristoforou/STM32Cube/Repository/STM32Cube_FW_F4_V1.27.0/Drivers/STM32F4xx_HAL_Driver/Src/stm32f4xx_hal_rcc_ex.c ****           }
 599:/home/christoschristoforou/STM32Cube/Repository/STM32Cube_FW_F4_V1.27.0/Drivers/STM32F4xx_HAL_Driver/Src/stm32f4xx_hal_rcc_ex.c ****           else
 600:/home/christoschristoforou/STM32Cube/Repository/STM32Cube_FW_F4_V1.27.0/Drivers/STM32F4xx_HAL_Driver/Src/stm32f4xx_hal_rcc_ex.c ****           {
 601:/home/christoschristoforou/STM32Cube/Repository/STM32Cube_FW_F4_V1.27.0/Drivers/STM32F4xx_HAL_Driver/Src/stm32f4xx_hal_rcc_ex.c ****             /* In Case the PLL Source is HSE (External Clock) */
 602:/home/christoschristoforou/STM32Cube/Repository/STM32Cube_FW_F4_V1.27.0/Drivers/STM32F4xx_HAL_Driver/Src/stm32f4xx_hal_rcc_ex.c ****             vcoinput = ((HSE_VALUE / (uint32_t)(RCC->PLLSAICFGR & RCC_PLLSAICFGR_PLLSAIM)));
 603:/home/christoschristoforou/STM32Cube/Repository/STM32Cube_FW_F4_V1.27.0/Drivers/STM32F4xx_HAL_Driver/Src/stm32f4xx_hal_rcc_ex.c ****           }
 604:/home/christoschristoforou/STM32Cube/Repository/STM32Cube_FW_F4_V1.27.0/Drivers/STM32F4xx_HAL_Driver/Src/stm32f4xx_hal_rcc_ex.c ****           /* PLLSAI_VCO Output = PLLSAI_VCO Input * PLLSAIN */
 605:/home/christoschristoforou/STM32Cube/Repository/STM32Cube_FW_F4_V1.27.0/Drivers/STM32F4xx_HAL_Driver/Src/stm32f4xx_hal_rcc_ex.c ****           /* SAI_CLK(first level) = PLLSAI_VCO Output/PLLSAIQ */
 606:/home/christoschristoforou/STM32Cube/Repository/STM32Cube_FW_F4_V1.27.0/Drivers/STM32F4xx_HAL_Driver/Src/stm32f4xx_hal_rcc_ex.c ****           tmpreg1 = (RCC->PLLSAICFGR & RCC_PLLSAICFGR_PLLSAIQ) >> 24U;
 607:/home/christoschristoforou/STM32Cube/Repository/STM32Cube_FW_F4_V1.27.0/Drivers/STM32F4xx_HAL_Driver/Src/stm32f4xx_hal_rcc_ex.c ****           frequency = (vcoinput * ((RCC->PLLSAICFGR & RCC_PLLSAICFGR_PLLSAIN) >> 6U))/(tmpreg1);
 608:/home/christoschristoforou/STM32Cube/Repository/STM32Cube_FW_F4_V1.27.0/Drivers/STM32F4xx_HAL_Driver/Src/stm32f4xx_hal_rcc_ex.c **** 
 609:/home/christoschristoforou/STM32Cube/Repository/STM32Cube_FW_F4_V1.27.0/Drivers/STM32F4xx_HAL_Driver/Src/stm32f4xx_hal_rcc_ex.c ****           /* SAI_CLK_x = SAI_CLK(first level)/PLLSAIDIVQ */
 610:/home/christoschristoforou/STM32Cube/Repository/STM32Cube_FW_F4_V1.27.0/Drivers/STM32F4xx_HAL_Driver/Src/stm32f4xx_hal_rcc_ex.c ****           tmpreg1 = (((RCC->DCKCFGR & RCC_DCKCFGR_PLLSAIDIVQ) >> 8U) + 1U);
 611:/home/christoschristoforou/STM32Cube/Repository/STM32Cube_FW_F4_V1.27.0/Drivers/STM32F4xx_HAL_Driver/Src/stm32f4xx_hal_rcc_ex.c ****           frequency = frequency/(tmpreg1);
 612:/home/christoschristoforou/STM32Cube/Repository/STM32Cube_FW_F4_V1.27.0/Drivers/STM32F4xx_HAL_Driver/Src/stm32f4xx_hal_rcc_ex.c ****           break;
 613:/home/christoschristoforou/STM32Cube/Repository/STM32Cube_FW_F4_V1.27.0/Drivers/STM32F4xx_HAL_Driver/Src/stm32f4xx_hal_rcc_ex.c ****         }
 614:/home/christoschristoforou/STM32Cube/Repository/STM32Cube_FW_F4_V1.27.0/Drivers/STM32F4xx_HAL_Driver/Src/stm32f4xx_hal_rcc_ex.c ****       case RCC_DCKCFGR_SAI1SRC_0: /* PLLI2S is the clock source for SAI*/
 615:/home/christoschristoforou/STM32Cube/Repository/STM32Cube_FW_F4_V1.27.0/Drivers/STM32F4xx_HAL_Driver/Src/stm32f4xx_hal_rcc_ex.c ****       case RCC_DCKCFGR_SAI2SRC_0: /* PLLI2S is the clock source for SAI*/
 616:/home/christoschristoforou/STM32Cube/Repository/STM32Cube_FW_F4_V1.27.0/Drivers/STM32F4xx_HAL_Driver/Src/stm32f4xx_hal_rcc_ex.c ****         {
 617:/home/christoschristoforou/STM32Cube/Repository/STM32Cube_FW_F4_V1.27.0/Drivers/STM32F4xx_HAL_Driver/Src/stm32f4xx_hal_rcc_ex.c ****           /* Configure the PLLI2S division factor */
 618:/home/christoschristoforou/STM32Cube/Repository/STM32Cube_FW_F4_V1.27.0/Drivers/STM32F4xx_HAL_Driver/Src/stm32f4xx_hal_rcc_ex.c ****           /* PLLI2S_VCO Input  = PLL_SOURCE/PLLI2SM */
 619:/home/christoschristoforou/STM32Cube/Repository/STM32Cube_FW_F4_V1.27.0/Drivers/STM32F4xx_HAL_Driver/Src/stm32f4xx_hal_rcc_ex.c ****           if((RCC->PLLCFGR & RCC_PLLCFGR_PLLSRC) == RCC_PLLSOURCE_HSI)
 620:/home/christoschristoforou/STM32Cube/Repository/STM32Cube_FW_F4_V1.27.0/Drivers/STM32F4xx_HAL_Driver/Src/stm32f4xx_hal_rcc_ex.c ****           {
 621:/home/christoschristoforou/STM32Cube/Repository/STM32Cube_FW_F4_V1.27.0/Drivers/STM32F4xx_HAL_Driver/Src/stm32f4xx_hal_rcc_ex.c ****             /* In Case the PLL Source is HSI (Internal Clock) */
 622:/home/christoschristoforou/STM32Cube/Repository/STM32Cube_FW_F4_V1.27.0/Drivers/STM32F4xx_HAL_Driver/Src/stm32f4xx_hal_rcc_ex.c ****             vcoinput = (HSI_VALUE / (uint32_t)(RCC->PLLI2SCFGR & RCC_PLLI2SCFGR_PLLI2SM));
 623:/home/christoschristoforou/STM32Cube/Repository/STM32Cube_FW_F4_V1.27.0/Drivers/STM32F4xx_HAL_Driver/Src/stm32f4xx_hal_rcc_ex.c ****           }
 624:/home/christoschristoforou/STM32Cube/Repository/STM32Cube_FW_F4_V1.27.0/Drivers/STM32F4xx_HAL_Driver/Src/stm32f4xx_hal_rcc_ex.c ****           else
 625:/home/christoschristoforou/STM32Cube/Repository/STM32Cube_FW_F4_V1.27.0/Drivers/STM32F4xx_HAL_Driver/Src/stm32f4xx_hal_rcc_ex.c ****           {
 626:/home/christoschristoforou/STM32Cube/Repository/STM32Cube_FW_F4_V1.27.0/Drivers/STM32F4xx_HAL_Driver/Src/stm32f4xx_hal_rcc_ex.c ****             /* In Case the PLL Source is HSE (External Clock) */
 627:/home/christoschristoforou/STM32Cube/Repository/STM32Cube_FW_F4_V1.27.0/Drivers/STM32F4xx_HAL_Driver/Src/stm32f4xx_hal_rcc_ex.c ****             vcoinput = ((HSE_VALUE / (uint32_t)(RCC->PLLI2SCFGR & RCC_PLLI2SCFGR_PLLI2SM)));
 628:/home/christoschristoforou/STM32Cube/Repository/STM32Cube_FW_F4_V1.27.0/Drivers/STM32F4xx_HAL_Driver/Src/stm32f4xx_hal_rcc_ex.c ****           }
 629:/home/christoschristoforou/STM32Cube/Repository/STM32Cube_FW_F4_V1.27.0/Drivers/STM32F4xx_HAL_Driver/Src/stm32f4xx_hal_rcc_ex.c **** 
 630:/home/christoschristoforou/STM32Cube/Repository/STM32Cube_FW_F4_V1.27.0/Drivers/STM32F4xx_HAL_Driver/Src/stm32f4xx_hal_rcc_ex.c ****           /* PLLI2S_VCO Output = PLLI2S_VCO Input * PLLI2SN */
 631:/home/christoschristoforou/STM32Cube/Repository/STM32Cube_FW_F4_V1.27.0/Drivers/STM32F4xx_HAL_Driver/Src/stm32f4xx_hal_rcc_ex.c ****           /* SAI_CLK(first level) = PLLI2S_VCO Output/PLLI2SQ */
 632:/home/christoschristoforou/STM32Cube/Repository/STM32Cube_FW_F4_V1.27.0/Drivers/STM32F4xx_HAL_Driver/Src/stm32f4xx_hal_rcc_ex.c ****           tmpreg1 = (RCC->PLLI2SCFGR & RCC_PLLI2SCFGR_PLLI2SQ) >> 24U;
 633:/home/christoschristoforou/STM32Cube/Repository/STM32Cube_FW_F4_V1.27.0/Drivers/STM32F4xx_HAL_Driver/Src/stm32f4xx_hal_rcc_ex.c ****           frequency = (vcoinput * ((RCC->PLLI2SCFGR & RCC_PLLI2SCFGR_PLLI2SN) >> 6U))/(tmpreg1);
 634:/home/christoschristoforou/STM32Cube/Repository/STM32Cube_FW_F4_V1.27.0/Drivers/STM32F4xx_HAL_Driver/Src/stm32f4xx_hal_rcc_ex.c **** 
 635:/home/christoschristoforou/STM32Cube/Repository/STM32Cube_FW_F4_V1.27.0/Drivers/STM32F4xx_HAL_Driver/Src/stm32f4xx_hal_rcc_ex.c ****           /* SAI_CLK_x = SAI_CLK(first level)/PLLI2SDIVQ */
 636:/home/christoschristoforou/STM32Cube/Repository/STM32Cube_FW_F4_V1.27.0/Drivers/STM32F4xx_HAL_Driver/Src/stm32f4xx_hal_rcc_ex.c ****           tmpreg1 = ((RCC->DCKCFGR & RCC_DCKCFGR_PLLI2SDIVQ) + 1U);
 637:/home/christoschristoforou/STM32Cube/Repository/STM32Cube_FW_F4_V1.27.0/Drivers/STM32F4xx_HAL_Driver/Src/stm32f4xx_hal_rcc_ex.c ****           frequency = frequency/(tmpreg1);
 638:/home/christoschristoforou/STM32Cube/Repository/STM32Cube_FW_F4_V1.27.0/Drivers/STM32F4xx_HAL_Driver/Src/stm32f4xx_hal_rcc_ex.c ****           break;
 639:/home/christoschristoforou/STM32Cube/Repository/STM32Cube_FW_F4_V1.27.0/Drivers/STM32F4xx_HAL_Driver/Src/stm32f4xx_hal_rcc_ex.c ****         }
 640:/home/christoschristoforou/STM32Cube/Repository/STM32Cube_FW_F4_V1.27.0/Drivers/STM32F4xx_HAL_Driver/Src/stm32f4xx_hal_rcc_ex.c ****       case RCC_DCKCFGR_SAI1SRC_1: /* PLLR is the clock source for SAI*/
 641:/home/christoschristoforou/STM32Cube/Repository/STM32Cube_FW_F4_V1.27.0/Drivers/STM32F4xx_HAL_Driver/Src/stm32f4xx_hal_rcc_ex.c ****       case RCC_DCKCFGR_SAI2SRC_1: /* PLLR is the clock source for SAI*/
 642:/home/christoschristoforou/STM32Cube/Repository/STM32Cube_FW_F4_V1.27.0/Drivers/STM32F4xx_HAL_Driver/Src/stm32f4xx_hal_rcc_ex.c ****         {
 643:/home/christoschristoforou/STM32Cube/Repository/STM32Cube_FW_F4_V1.27.0/Drivers/STM32F4xx_HAL_Driver/Src/stm32f4xx_hal_rcc_ex.c ****           /* Configure the PLLI2S division factor */
 644:/home/christoschristoforou/STM32Cube/Repository/STM32Cube_FW_F4_V1.27.0/Drivers/STM32F4xx_HAL_Driver/Src/stm32f4xx_hal_rcc_ex.c ****           /* PLL_VCO Input  = PLL_SOURCE/PLLM */
 645:/home/christoschristoforou/STM32Cube/Repository/STM32Cube_FW_F4_V1.27.0/Drivers/STM32F4xx_HAL_Driver/Src/stm32f4xx_hal_rcc_ex.c ****           if((RCC->PLLCFGR & RCC_PLLCFGR_PLLSRC) == RCC_PLLSOURCE_HSI)
 646:/home/christoschristoforou/STM32Cube/Repository/STM32Cube_FW_F4_V1.27.0/Drivers/STM32F4xx_HAL_Driver/Src/stm32f4xx_hal_rcc_ex.c ****           {
 647:/home/christoschristoforou/STM32Cube/Repository/STM32Cube_FW_F4_V1.27.0/Drivers/STM32F4xx_HAL_Driver/Src/stm32f4xx_hal_rcc_ex.c ****             /* In Case the PLL Source is HSI (Internal Clock) */
 648:/home/christoschristoforou/STM32Cube/Repository/STM32Cube_FW_F4_V1.27.0/Drivers/STM32F4xx_HAL_Driver/Src/stm32f4xx_hal_rcc_ex.c ****             vcoinput = (HSI_VALUE / (uint32_t)(RCC->PLLCFGR & RCC_PLLCFGR_PLLM));
 649:/home/christoschristoforou/STM32Cube/Repository/STM32Cube_FW_F4_V1.27.0/Drivers/STM32F4xx_HAL_Driver/Src/stm32f4xx_hal_rcc_ex.c ****           }
 650:/home/christoschristoforou/STM32Cube/Repository/STM32Cube_FW_F4_V1.27.0/Drivers/STM32F4xx_HAL_Driver/Src/stm32f4xx_hal_rcc_ex.c ****           else
 651:/home/christoschristoforou/STM32Cube/Repository/STM32Cube_FW_F4_V1.27.0/Drivers/STM32F4xx_HAL_Driver/Src/stm32f4xx_hal_rcc_ex.c ****           {
ARM GAS  /tmp/ccbai6tv.s 			page 45


 652:/home/christoschristoforou/STM32Cube/Repository/STM32Cube_FW_F4_V1.27.0/Drivers/STM32F4xx_HAL_Driver/Src/stm32f4xx_hal_rcc_ex.c ****             /* In Case the PLL Source is HSE (External Clock) */
 653:/home/christoschristoforou/STM32Cube/Repository/STM32Cube_FW_F4_V1.27.0/Drivers/STM32F4xx_HAL_Driver/Src/stm32f4xx_hal_rcc_ex.c ****             vcoinput = ((HSE_VALUE / (uint32_t)(RCC->PLLCFGR & RCC_PLLCFGR_PLLM)));
 654:/home/christoschristoforou/STM32Cube/Repository/STM32Cube_FW_F4_V1.27.0/Drivers/STM32F4xx_HAL_Driver/Src/stm32f4xx_hal_rcc_ex.c ****           }
 655:/home/christoschristoforou/STM32Cube/Repository/STM32Cube_FW_F4_V1.27.0/Drivers/STM32F4xx_HAL_Driver/Src/stm32f4xx_hal_rcc_ex.c **** 
 656:/home/christoschristoforou/STM32Cube/Repository/STM32Cube_FW_F4_V1.27.0/Drivers/STM32F4xx_HAL_Driver/Src/stm32f4xx_hal_rcc_ex.c ****           /* PLL_VCO Output = PLL_VCO Input * PLLN */
 657:/home/christoschristoforou/STM32Cube/Repository/STM32Cube_FW_F4_V1.27.0/Drivers/STM32F4xx_HAL_Driver/Src/stm32f4xx_hal_rcc_ex.c ****           /* SAI_CLK_x = PLL_VCO Output/PLLR */
 658:/home/christoschristoforou/STM32Cube/Repository/STM32Cube_FW_F4_V1.27.0/Drivers/STM32F4xx_HAL_Driver/Src/stm32f4xx_hal_rcc_ex.c ****           tmpreg1 = (RCC->PLLCFGR & RCC_PLLCFGR_PLLR) >> 28U;
 659:/home/christoschristoforou/STM32Cube/Repository/STM32Cube_FW_F4_V1.27.0/Drivers/STM32F4xx_HAL_Driver/Src/stm32f4xx_hal_rcc_ex.c ****           frequency = (vcoinput * ((RCC->PLLCFGR & RCC_PLLCFGR_PLLN) >> 6U))/(tmpreg1);
 660:/home/christoschristoforou/STM32Cube/Repository/STM32Cube_FW_F4_V1.27.0/Drivers/STM32F4xx_HAL_Driver/Src/stm32f4xx_hal_rcc_ex.c ****           break;
 661:/home/christoschristoforou/STM32Cube/Repository/STM32Cube_FW_F4_V1.27.0/Drivers/STM32F4xx_HAL_Driver/Src/stm32f4xx_hal_rcc_ex.c ****         }
 662:/home/christoschristoforou/STM32Cube/Repository/STM32Cube_FW_F4_V1.27.0/Drivers/STM32F4xx_HAL_Driver/Src/stm32f4xx_hal_rcc_ex.c ****       case RCC_DCKCFGR_SAI1SRC: /* External clock is the clock source for SAI*/
 663:/home/christoschristoforou/STM32Cube/Repository/STM32Cube_FW_F4_V1.27.0/Drivers/STM32F4xx_HAL_Driver/Src/stm32f4xx_hal_rcc_ex.c ****         {
 664:/home/christoschristoforou/STM32Cube/Repository/STM32Cube_FW_F4_V1.27.0/Drivers/STM32F4xx_HAL_Driver/Src/stm32f4xx_hal_rcc_ex.c ****           frequency = EXTERNAL_CLOCK_VALUE;
 665:/home/christoschristoforou/STM32Cube/Repository/STM32Cube_FW_F4_V1.27.0/Drivers/STM32F4xx_HAL_Driver/Src/stm32f4xx_hal_rcc_ex.c ****           break;
 666:/home/christoschristoforou/STM32Cube/Repository/STM32Cube_FW_F4_V1.27.0/Drivers/STM32F4xx_HAL_Driver/Src/stm32f4xx_hal_rcc_ex.c ****         }
 667:/home/christoschristoforou/STM32Cube/Repository/STM32Cube_FW_F4_V1.27.0/Drivers/STM32F4xx_HAL_Driver/Src/stm32f4xx_hal_rcc_ex.c ****       case RCC_DCKCFGR_SAI2SRC: /* PLLSRC(HSE or HSI) is the clock source for SAI*/
 668:/home/christoschristoforou/STM32Cube/Repository/STM32Cube_FW_F4_V1.27.0/Drivers/STM32F4xx_HAL_Driver/Src/stm32f4xx_hal_rcc_ex.c ****         {
 669:/home/christoschristoforou/STM32Cube/Repository/STM32Cube_FW_F4_V1.27.0/Drivers/STM32F4xx_HAL_Driver/Src/stm32f4xx_hal_rcc_ex.c ****           if((RCC->PLLCFGR & RCC_PLLCFGR_PLLSRC) == RCC_PLLSOURCE_HSI)
 1660              		.loc 1 669 11 view .LVU489
 1661              		.loc 1 669 18 is_stmt 0 view .LVU490
 1662 003c AC4B     		ldr	r3, .L180
 1663              	.LVL105:
 1664              		.loc 1 669 18 view .LVU491
 1665 003e 5B68     		ldr	r3, [r3, #4]
 1666              		.loc 1 669 13 view .LVU492
 1667 0040 13F4800F 		tst	r3, #4194304
 1668 0044 40F04A81 		bne	.L170
 670:/home/christoschristoforou/STM32Cube/Repository/STM32Cube_FW_F4_V1.27.0/Drivers/STM32F4xx_HAL_Driver/Src/stm32f4xx_hal_rcc_ex.c ****           {
 671:/home/christoschristoforou/STM32Cube/Repository/STM32Cube_FW_F4_V1.27.0/Drivers/STM32F4xx_HAL_Driver/Src/stm32f4xx_hal_rcc_ex.c ****             /* In Case the PLL Source is HSI (Internal Clock) */
 672:/home/christoschristoforou/STM32Cube/Repository/STM32Cube_FW_F4_V1.27.0/Drivers/STM32F4xx_HAL_Driver/Src/stm32f4xx_hal_rcc_ex.c ****             frequency = (uint32_t)(HSI_VALUE);
 1669              		.loc 1 672 23 view .LVU493
 1670 0048 AA48     		ldr	r0, .L180+4
 1671              	.LVL106:
 1672              		.loc 1 672 23 view .LVU494
 1673 004a 7047     		bx	lr
 1674              	.LVL107:
 1675              	.L175:
 1676              		.loc 1 672 23 view .LVU495
 1677 004c B3F5801F 		cmp	r3, #1048576
 1678 0050 35D0     		beq	.L142
 1679 0052 B3F5001F 		cmp	r3, #2097152
 1680 0056 5DD0     		beq	.L143
 1681 0058 0BBB     		cbnz	r3, .L177
 594:/home/christoschristoforou/STM32Cube/Repository/STM32Cube_FW_F4_V1.27.0/Drivers/STM32F4xx_HAL_Driver/Src/stm32f4xx_hal_rcc_ex.c ****           {
 1682              		.loc 1 594 11 is_stmt 1 view .LVU496
 594:/home/christoschristoforou/STM32Cube/Repository/STM32Cube_FW_F4_V1.27.0/Drivers/STM32F4xx_HAL_Driver/Src/stm32f4xx_hal_rcc_ex.c ****           {
 1683              		.loc 1 594 18 is_stmt 0 view .LVU497
 1684 005a A54B     		ldr	r3, .L180
 1685              	.LVL108:
 594:/home/christoschristoforou/STM32Cube/Repository/STM32Cube_FW_F4_V1.27.0/Drivers/STM32F4xx_HAL_Driver/Src/stm32f4xx_hal_rcc_ex.c ****           {
 1686              		.loc 1 594 18 view .LVU498
 1687 005c 5B68     		ldr	r3, [r3, #4]
 594:/home/christoschristoforou/STM32Cube/Repository/STM32Cube_FW_F4_V1.27.0/Drivers/STM32F4xx_HAL_Driver/Src/stm32f4xx_hal_rcc_ex.c ****           {
 1688              		.loc 1 594 13 view .LVU499
 1689 005e 13F4800F 		tst	r3, #4194304
 1690 0062 23D1     		bne	.L146
 597:/home/christoschristoforou/STM32Cube/Repository/STM32Cube_FW_F4_V1.27.0/Drivers/STM32F4xx_HAL_Driver/Src/stm32f4xx_hal_rcc_ex.c ****           }
ARM GAS  /tmp/ccbai6tv.s 			page 46


 1691              		.loc 1 597 13 is_stmt 1 view .LVU500
 597:/home/christoschristoforou/STM32Cube/Repository/STM32Cube_FW_F4_V1.27.0/Drivers/STM32F4xx_HAL_Driver/Src/stm32f4xx_hal_rcc_ex.c ****           }
 1692              		.loc 1 597 51 is_stmt 0 view .LVU501
 1693 0064 A24B     		ldr	r3, .L180
 1694 0066 D3F88830 		ldr	r3, [r3, #136]
 597:/home/christoschristoforou/STM32Cube/Repository/STM32Cube_FW_F4_V1.27.0/Drivers/STM32F4xx_HAL_Driver/Src/stm32f4xx_hal_rcc_ex.c ****           }
 1695              		.loc 1 597 37 view .LVU502
 1696 006a 03F03F03 		and	r3, r3, #63
 597:/home/christoschristoforou/STM32Cube/Repository/STM32Cube_FW_F4_V1.27.0/Drivers/STM32F4xx_HAL_Driver/Src/stm32f4xx_hal_rcc_ex.c ****           }
 1697              		.loc 1 597 22 view .LVU503
 1698 006e A148     		ldr	r0, .L180+4
 1699 0070 B0FBF3F0 		udiv	r0, r0, r3
 1700              	.LVL109:
 1701              	.L147:
 606:/home/christoschristoforou/STM32Cube/Repository/STM32Cube_FW_F4_V1.27.0/Drivers/STM32F4xx_HAL_Driver/Src/stm32f4xx_hal_rcc_ex.c ****           frequency = (vcoinput * ((RCC->PLLSAICFGR & RCC_PLLSAICFGR_PLLSAIN) >> 6U))/(tmpreg1);
 1702              		.loc 1 606 11 is_stmt 1 view .LVU504
 606:/home/christoschristoforou/STM32Cube/Repository/STM32Cube_FW_F4_V1.27.0/Drivers/STM32F4xx_HAL_Driver/Src/stm32f4xx_hal_rcc_ex.c ****           frequency = (vcoinput * ((RCC->PLLSAICFGR & RCC_PLLSAICFGR_PLLSAIN) >> 6U))/(tmpreg1);
 1703              		.loc 1 606 25 is_stmt 0 view .LVU505
 1704 0074 9E4B     		ldr	r3, .L180
 1705 0076 D3F88820 		ldr	r2, [r3, #136]
 606:/home/christoschristoforou/STM32Cube/Repository/STM32Cube_FW_F4_V1.27.0/Drivers/STM32F4xx_HAL_Driver/Src/stm32f4xx_hal_rcc_ex.c ****           frequency = (vcoinput * ((RCC->PLLSAICFGR & RCC_PLLSAICFGR_PLLSAIN) >> 6U))/(tmpreg1);
 1706              		.loc 1 606 19 view .LVU506
 1707 007a C2F30362 		ubfx	r2, r2, #24, #4
 1708              	.LVL110:
 607:/home/christoschristoforou/STM32Cube/Repository/STM32Cube_FW_F4_V1.27.0/Drivers/STM32F4xx_HAL_Driver/Src/stm32f4xx_hal_rcc_ex.c **** 
 1709              		.loc 1 607 11 is_stmt 1 view .LVU507
 607:/home/christoschristoforou/STM32Cube/Repository/STM32Cube_FW_F4_V1.27.0/Drivers/STM32F4xx_HAL_Driver/Src/stm32f4xx_hal_rcc_ex.c **** 
 1710              		.loc 1 607 40 is_stmt 0 view .LVU508
 1711 007e D3F88810 		ldr	r1, [r3, #136]
 607:/home/christoschristoforou/STM32Cube/Repository/STM32Cube_FW_F4_V1.27.0/Drivers/STM32F4xx_HAL_Driver/Src/stm32f4xx_hal_rcc_ex.c **** 
 1712              		.loc 1 607 79 view .LVU509
 1713 0082 C1F38811 		ubfx	r1, r1, #6, #9
 607:/home/christoschristoforou/STM32Cube/Repository/STM32Cube_FW_F4_V1.27.0/Drivers/STM32F4xx_HAL_Driver/Src/stm32f4xx_hal_rcc_ex.c **** 
 1714              		.loc 1 607 33 view .LVU510
 1715 0086 00FB01F0 		mul	r0, r0, r1
 1716              	.LVL111:
 607:/home/christoschristoforou/STM32Cube/Repository/STM32Cube_FW_F4_V1.27.0/Drivers/STM32F4xx_HAL_Driver/Src/stm32f4xx_hal_rcc_ex.c **** 
 1717              		.loc 1 607 21 view .LVU511
 1718 008a B0FBF2F0 		udiv	r0, r0, r2
 1719              	.LVL112:
 610:/home/christoschristoforou/STM32Cube/Repository/STM32Cube_FW_F4_V1.27.0/Drivers/STM32F4xx_HAL_Driver/Src/stm32f4xx_hal_rcc_ex.c ****           frequency = frequency/(tmpreg1);
 1720              		.loc 1 610 11 is_stmt 1 view .LVU512
 610:/home/christoschristoforou/STM32Cube/Repository/STM32Cube_FW_F4_V1.27.0/Drivers/STM32F4xx_HAL_Driver/Src/stm32f4xx_hal_rcc_ex.c ****           frequency = frequency/(tmpreg1);
 1721              		.loc 1 610 27 is_stmt 0 view .LVU513
 1722 008e D3F88C30 		ldr	r3, [r3, #140]
 610:/home/christoschristoforou/STM32Cube/Repository/STM32Cube_FW_F4_V1.27.0/Drivers/STM32F4xx_HAL_Driver/Src/stm32f4xx_hal_rcc_ex.c ****           frequency = frequency/(tmpreg1);
 1723              		.loc 1 610 63 view .LVU514
 1724 0092 C3F30423 		ubfx	r3, r3, #8, #5
 610:/home/christoschristoforou/STM32Cube/Repository/STM32Cube_FW_F4_V1.27.0/Drivers/STM32F4xx_HAL_Driver/Src/stm32f4xx_hal_rcc_ex.c ****           frequency = frequency/(tmpreg1);
 1725              		.loc 1 610 19 view .LVU515
 1726 0096 0133     		adds	r3, r3, #1
 1727              	.LVL113:
 611:/home/christoschristoforou/STM32Cube/Repository/STM32Cube_FW_F4_V1.27.0/Drivers/STM32F4xx_HAL_Driver/Src/stm32f4xx_hal_rcc_ex.c ****           break;
 1728              		.loc 1 611 11 is_stmt 1 view .LVU516
 611:/home/christoschristoforou/STM32Cube/Repository/STM32Cube_FW_F4_V1.27.0/Drivers/STM32F4xx_HAL_Driver/Src/stm32f4xx_hal_rcc_ex.c ****           break;
 1729              		.loc 1 611 21 is_stmt 0 view .LVU517
 1730 0098 B0FBF3F0 		udiv	r0, r0, r3
ARM GAS  /tmp/ccbai6tv.s 			page 47


 1731              	.LVL114:
 612:/home/christoschristoforou/STM32Cube/Repository/STM32Cube_FW_F4_V1.27.0/Drivers/STM32F4xx_HAL_Driver/Src/stm32f4xx_hal_rcc_ex.c ****         }
 1732              		.loc 1 612 11 is_stmt 1 view .LVU518
 1733 009c 7047     		bx	lr
 1734              	.LVL115:
 1735              	.L177:
 612:/home/christoschristoforou/STM32Cube/Repository/STM32Cube_FW_F4_V1.27.0/Drivers/STM32F4xx_HAL_Driver/Src/stm32f4xx_hal_rcc_ex.c ****         }
 1736              		.loc 1 612 11 is_stmt 0 view .LVU519
 1737 009e 0020     		movs	r0, #0
 1738 00a0 7047     		bx	lr
 1739              	.L176:
 612:/home/christoschristoforou/STM32Cube/Repository/STM32Cube_FW_F4_V1.27.0/Drivers/STM32F4xx_HAL_Driver/Src/stm32f4xx_hal_rcc_ex.c ****         }
 1740              		.loc 1 612 11 view .LVU520
 1741 00a2 B3F5800F 		cmp	r3, #4194304
 1742 00a6 0AD0     		beq	.L142
 1743 00a8 0020     		movs	r0, #0
 1744 00aa 7047     		bx	lr
 1745              	.LVL116:
 1746              	.L146:
 602:/home/christoschristoforou/STM32Cube/Repository/STM32Cube_FW_F4_V1.27.0/Drivers/STM32F4xx_HAL_Driver/Src/stm32f4xx_hal_rcc_ex.c ****           }
 1747              		.loc 1 602 13 is_stmt 1 view .LVU521
 602:/home/christoschristoforou/STM32Cube/Repository/STM32Cube_FW_F4_V1.27.0/Drivers/STM32F4xx_HAL_Driver/Src/stm32f4xx_hal_rcc_ex.c ****           }
 1748              		.loc 1 602 52 is_stmt 0 view .LVU522
 1749 00ac 904B     		ldr	r3, .L180
 1750 00ae D3F88830 		ldr	r3, [r3, #136]
 602:/home/christoschristoforou/STM32Cube/Repository/STM32Cube_FW_F4_V1.27.0/Drivers/STM32F4xx_HAL_Driver/Src/stm32f4xx_hal_rcc_ex.c ****           }
 1751              		.loc 1 602 38 view .LVU523
 1752 00b2 03F03F03 		and	r3, r3, #63
 602:/home/christoschristoforou/STM32Cube/Repository/STM32Cube_FW_F4_V1.27.0/Drivers/STM32F4xx_HAL_Driver/Src/stm32f4xx_hal_rcc_ex.c ****           }
 1753              		.loc 1 602 22 view .LVU524
 1754 00b6 9048     		ldr	r0, .L180+8
 1755 00b8 B0FBF3F0 		udiv	r0, r0, r3
 1756              	.LVL117:
 602:/home/christoschristoforou/STM32Cube/Repository/STM32Cube_FW_F4_V1.27.0/Drivers/STM32F4xx_HAL_Driver/Src/stm32f4xx_hal_rcc_ex.c ****           }
 1757              		.loc 1 602 22 view .LVU525
 1758 00bc DAE7     		b	.L147
 1759              	.LVL118:
 1760              	.L142:
 619:/home/christoschristoforou/STM32Cube/Repository/STM32Cube_FW_F4_V1.27.0/Drivers/STM32F4xx_HAL_Driver/Src/stm32f4xx_hal_rcc_ex.c ****           {
 1761              		.loc 1 619 11 is_stmt 1 view .LVU526
 619:/home/christoschristoforou/STM32Cube/Repository/STM32Cube_FW_F4_V1.27.0/Drivers/STM32F4xx_HAL_Driver/Src/stm32f4xx_hal_rcc_ex.c ****           {
 1762              		.loc 1 619 18 is_stmt 0 view .LVU527
 1763 00be 8C4B     		ldr	r3, .L180
 1764              	.LVL119:
 619:/home/christoschristoforou/STM32Cube/Repository/STM32Cube_FW_F4_V1.27.0/Drivers/STM32F4xx_HAL_Driver/Src/stm32f4xx_hal_rcc_ex.c ****           {
 1765              		.loc 1 619 18 view .LVU528
 1766 00c0 5B68     		ldr	r3, [r3, #4]
 619:/home/christoschristoforou/STM32Cube/Repository/STM32Cube_FW_F4_V1.27.0/Drivers/STM32F4xx_HAL_Driver/Src/stm32f4xx_hal_rcc_ex.c ****           {
 1767              		.loc 1 619 13 view .LVU529
 1768 00c2 13F4800F 		tst	r3, #4194304
 1769 00c6 1CD1     		bne	.L148
 622:/home/christoschristoforou/STM32Cube/Repository/STM32Cube_FW_F4_V1.27.0/Drivers/STM32F4xx_HAL_Driver/Src/stm32f4xx_hal_rcc_ex.c ****           }
 1770              		.loc 1 622 13 is_stmt 1 view .LVU530
 622:/home/christoschristoforou/STM32Cube/Repository/STM32Cube_FW_F4_V1.27.0/Drivers/STM32F4xx_HAL_Driver/Src/stm32f4xx_hal_rcc_ex.c ****           }
 1771              		.loc 1 622 51 is_stmt 0 view .LVU531
 1772 00c8 894B     		ldr	r3, .L180
 1773 00ca D3F88430 		ldr	r3, [r3, #132]
ARM GAS  /tmp/ccbai6tv.s 			page 48


 622:/home/christoschristoforou/STM32Cube/Repository/STM32Cube_FW_F4_V1.27.0/Drivers/STM32F4xx_HAL_Driver/Src/stm32f4xx_hal_rcc_ex.c ****           }
 1774              		.loc 1 622 37 view .LVU532
 1775 00ce 03F03F03 		and	r3, r3, #63
 622:/home/christoschristoforou/STM32Cube/Repository/STM32Cube_FW_F4_V1.27.0/Drivers/STM32F4xx_HAL_Driver/Src/stm32f4xx_hal_rcc_ex.c ****           }
 1776              		.loc 1 622 22 view .LVU533
 1777 00d2 8848     		ldr	r0, .L180+4
 1778 00d4 B0FBF3F0 		udiv	r0, r0, r3
 1779              	.LVL120:
 1780              	.L149:
 632:/home/christoschristoforou/STM32Cube/Repository/STM32Cube_FW_F4_V1.27.0/Drivers/STM32F4xx_HAL_Driver/Src/stm32f4xx_hal_rcc_ex.c ****           frequency = (vcoinput * ((RCC->PLLI2SCFGR & RCC_PLLI2SCFGR_PLLI2SN) >> 6U))/(tmpreg1);
 1781              		.loc 1 632 11 is_stmt 1 view .LVU534
 632:/home/christoschristoforou/STM32Cube/Repository/STM32Cube_FW_F4_V1.27.0/Drivers/STM32F4xx_HAL_Driver/Src/stm32f4xx_hal_rcc_ex.c ****           frequency = (vcoinput * ((RCC->PLLI2SCFGR & RCC_PLLI2SCFGR_PLLI2SN) >> 6U))/(tmpreg1);
 1782              		.loc 1 632 25 is_stmt 0 view .LVU535
 1783 00d8 854B     		ldr	r3, .L180
 1784 00da D3F88420 		ldr	r2, [r3, #132]
 632:/home/christoschristoforou/STM32Cube/Repository/STM32Cube_FW_F4_V1.27.0/Drivers/STM32F4xx_HAL_Driver/Src/stm32f4xx_hal_rcc_ex.c ****           frequency = (vcoinput * ((RCC->PLLI2SCFGR & RCC_PLLI2SCFGR_PLLI2SN) >> 6U))/(tmpreg1);
 1785              		.loc 1 632 19 view .LVU536
 1786 00de C2F30362 		ubfx	r2, r2, #24, #4
 1787              	.LVL121:
 633:/home/christoschristoforou/STM32Cube/Repository/STM32Cube_FW_F4_V1.27.0/Drivers/STM32F4xx_HAL_Driver/Src/stm32f4xx_hal_rcc_ex.c **** 
 1788              		.loc 1 633 11 is_stmt 1 view .LVU537
 633:/home/christoschristoforou/STM32Cube/Repository/STM32Cube_FW_F4_V1.27.0/Drivers/STM32F4xx_HAL_Driver/Src/stm32f4xx_hal_rcc_ex.c **** 
 1789              		.loc 1 633 40 is_stmt 0 view .LVU538
 1790 00e2 D3F88410 		ldr	r1, [r3, #132]
 633:/home/christoschristoforou/STM32Cube/Repository/STM32Cube_FW_F4_V1.27.0/Drivers/STM32F4xx_HAL_Driver/Src/stm32f4xx_hal_rcc_ex.c **** 
 1791              		.loc 1 633 79 view .LVU539
 1792 00e6 C1F38811 		ubfx	r1, r1, #6, #9
 633:/home/christoschristoforou/STM32Cube/Repository/STM32Cube_FW_F4_V1.27.0/Drivers/STM32F4xx_HAL_Driver/Src/stm32f4xx_hal_rcc_ex.c **** 
 1793              		.loc 1 633 33 view .LVU540
 1794 00ea 00FB01F0 		mul	r0, r0, r1
 1795              	.LVL122:
 633:/home/christoschristoforou/STM32Cube/Repository/STM32Cube_FW_F4_V1.27.0/Drivers/STM32F4xx_HAL_Driver/Src/stm32f4xx_hal_rcc_ex.c **** 
 1796              		.loc 1 633 21 view .LVU541
 1797 00ee B0FBF2F0 		udiv	r0, r0, r2
 1798              	.LVL123:
 636:/home/christoschristoforou/STM32Cube/Repository/STM32Cube_FW_F4_V1.27.0/Drivers/STM32F4xx_HAL_Driver/Src/stm32f4xx_hal_rcc_ex.c ****           frequency = frequency/(tmpreg1);
 1799              		.loc 1 636 11 is_stmt 1 view .LVU542
 636:/home/christoschristoforou/STM32Cube/Repository/STM32Cube_FW_F4_V1.27.0/Drivers/STM32F4xx_HAL_Driver/Src/stm32f4xx_hal_rcc_ex.c ****           frequency = frequency/(tmpreg1);
 1800              		.loc 1 636 26 is_stmt 0 view .LVU543
 1801 00f2 D3F88C30 		ldr	r3, [r3, #140]
 636:/home/christoschristoforou/STM32Cube/Repository/STM32Cube_FW_F4_V1.27.0/Drivers/STM32F4xx_HAL_Driver/Src/stm32f4xx_hal_rcc_ex.c ****           frequency = frequency/(tmpreg1);
 1802              		.loc 1 636 36 view .LVU544
 1803 00f6 03F01F03 		and	r3, r3, #31
 636:/home/christoschristoforou/STM32Cube/Repository/STM32Cube_FW_F4_V1.27.0/Drivers/STM32F4xx_HAL_Driver/Src/stm32f4xx_hal_rcc_ex.c ****           frequency = frequency/(tmpreg1);
 1804              		.loc 1 636 19 view .LVU545
 1805 00fa 0133     		adds	r3, r3, #1
 1806              	.LVL124:
 637:/home/christoschristoforou/STM32Cube/Repository/STM32Cube_FW_F4_V1.27.0/Drivers/STM32F4xx_HAL_Driver/Src/stm32f4xx_hal_rcc_ex.c ****           break;
 1807              		.loc 1 637 11 is_stmt 1 view .LVU546
 637:/home/christoschristoforou/STM32Cube/Repository/STM32Cube_FW_F4_V1.27.0/Drivers/STM32F4xx_HAL_Driver/Src/stm32f4xx_hal_rcc_ex.c ****           break;
 1808              		.loc 1 637 21 is_stmt 0 view .LVU547
 1809 00fc B0FBF3F0 		udiv	r0, r0, r3
 1810              	.LVL125:
 638:/home/christoschristoforou/STM32Cube/Repository/STM32Cube_FW_F4_V1.27.0/Drivers/STM32F4xx_HAL_Driver/Src/stm32f4xx_hal_rcc_ex.c ****         }
 1811              		.loc 1 638 11 is_stmt 1 view .LVU548
 1812 0100 7047     		bx	lr
 1813              	.LVL126:
ARM GAS  /tmp/ccbai6tv.s 			page 49


 1814              	.L148:
 627:/home/christoschristoforou/STM32Cube/Repository/STM32Cube_FW_F4_V1.27.0/Drivers/STM32F4xx_HAL_Driver/Src/stm32f4xx_hal_rcc_ex.c ****           }
 1815              		.loc 1 627 13 view .LVU549
 627:/home/christoschristoforou/STM32Cube/Repository/STM32Cube_FW_F4_V1.27.0/Drivers/STM32F4xx_HAL_Driver/Src/stm32f4xx_hal_rcc_ex.c ****           }
 1816              		.loc 1 627 52 is_stmt 0 view .LVU550
 1817 0102 7B4B     		ldr	r3, .L180
 1818 0104 D3F88430 		ldr	r3, [r3, #132]
 627:/home/christoschristoforou/STM32Cube/Repository/STM32Cube_FW_F4_V1.27.0/Drivers/STM32F4xx_HAL_Driver/Src/stm32f4xx_hal_rcc_ex.c ****           }
 1819              		.loc 1 627 38 view .LVU551
 1820 0108 03F03F03 		and	r3, r3, #63
 627:/home/christoschristoforou/STM32Cube/Repository/STM32Cube_FW_F4_V1.27.0/Drivers/STM32F4xx_HAL_Driver/Src/stm32f4xx_hal_rcc_ex.c ****           }
 1821              		.loc 1 627 22 view .LVU552
 1822 010c 7A48     		ldr	r0, .L180+8
 1823 010e B0FBF3F0 		udiv	r0, r0, r3
 1824              	.LVL127:
 627:/home/christoschristoforou/STM32Cube/Repository/STM32Cube_FW_F4_V1.27.0/Drivers/STM32F4xx_HAL_Driver/Src/stm32f4xx_hal_rcc_ex.c ****           }
 1825              		.loc 1 627 22 view .LVU553
 1826 0112 E1E7     		b	.L149
 1827              	.LVL128:
 1828              	.L143:
 645:/home/christoschristoforou/STM32Cube/Repository/STM32Cube_FW_F4_V1.27.0/Drivers/STM32F4xx_HAL_Driver/Src/stm32f4xx_hal_rcc_ex.c ****           {
 1829              		.loc 1 645 11 is_stmt 1 view .LVU554
 645:/home/christoschristoforou/STM32Cube/Repository/STM32Cube_FW_F4_V1.27.0/Drivers/STM32F4xx_HAL_Driver/Src/stm32f4xx_hal_rcc_ex.c ****           {
 1830              		.loc 1 645 18 is_stmt 0 view .LVU555
 1831 0114 764B     		ldr	r3, .L180
 1832              	.LVL129:
 645:/home/christoschristoforou/STM32Cube/Repository/STM32Cube_FW_F4_V1.27.0/Drivers/STM32F4xx_HAL_Driver/Src/stm32f4xx_hal_rcc_ex.c ****           {
 1833              		.loc 1 645 18 view .LVU556
 1834 0116 5B68     		ldr	r3, [r3, #4]
 645:/home/christoschristoforou/STM32Cube/Repository/STM32Cube_FW_F4_V1.27.0/Drivers/STM32F4xx_HAL_Driver/Src/stm32f4xx_hal_rcc_ex.c ****           {
 1835              		.loc 1 645 13 view .LVU557
 1836 0118 13F4800F 		tst	r3, #4194304
 1837 011c 12D1     		bne	.L150
 648:/home/christoschristoforou/STM32Cube/Repository/STM32Cube_FW_F4_V1.27.0/Drivers/STM32F4xx_HAL_Driver/Src/stm32f4xx_hal_rcc_ex.c ****           }
 1838              		.loc 1 648 13 is_stmt 1 view .LVU558
 648:/home/christoschristoforou/STM32Cube/Repository/STM32Cube_FW_F4_V1.27.0/Drivers/STM32F4xx_HAL_Driver/Src/stm32f4xx_hal_rcc_ex.c ****           }
 1839              		.loc 1 648 51 is_stmt 0 view .LVU559
 1840 011e 744B     		ldr	r3, .L180
 1841 0120 5B68     		ldr	r3, [r3, #4]
 648:/home/christoschristoforou/STM32Cube/Repository/STM32Cube_FW_F4_V1.27.0/Drivers/STM32F4xx_HAL_Driver/Src/stm32f4xx_hal_rcc_ex.c ****           }
 1842              		.loc 1 648 37 view .LVU560
 1843 0122 03F03F03 		and	r3, r3, #63
 648:/home/christoschristoforou/STM32Cube/Repository/STM32Cube_FW_F4_V1.27.0/Drivers/STM32F4xx_HAL_Driver/Src/stm32f4xx_hal_rcc_ex.c ****           }
 1844              		.loc 1 648 22 view .LVU561
 1845 0126 7348     		ldr	r0, .L180+4
 1846 0128 B0FBF3F0 		udiv	r0, r0, r3
 1847              	.LVL130:
 1848              	.L151:
 658:/home/christoschristoforou/STM32Cube/Repository/STM32Cube_FW_F4_V1.27.0/Drivers/STM32F4xx_HAL_Driver/Src/stm32f4xx_hal_rcc_ex.c ****           frequency = (vcoinput * ((RCC->PLLCFGR & RCC_PLLCFGR_PLLN) >> 6U))/(tmpreg1);
 1849              		.loc 1 658 11 is_stmt 1 view .LVU562
 658:/home/christoschristoforou/STM32Cube/Repository/STM32Cube_FW_F4_V1.27.0/Drivers/STM32F4xx_HAL_Driver/Src/stm32f4xx_hal_rcc_ex.c ****           frequency = (vcoinput * ((RCC->PLLCFGR & RCC_PLLCFGR_PLLN) >> 6U))/(tmpreg1);
 1850              		.loc 1 658 25 is_stmt 0 view .LVU563
 1851 012c 704A     		ldr	r2, .L180
 1852 012e 5368     		ldr	r3, [r2, #4]
 658:/home/christoschristoforou/STM32Cube/Repository/STM32Cube_FW_F4_V1.27.0/Drivers/STM32F4xx_HAL_Driver/Src/stm32f4xx_hal_rcc_ex.c ****           frequency = (vcoinput * ((RCC->PLLCFGR & RCC_PLLCFGR_PLLN) >> 6U))/(tmpreg1);
 1853              		.loc 1 658 19 view .LVU564
 1854 0130 C3F30273 		ubfx	r3, r3, #28, #3
ARM GAS  /tmp/ccbai6tv.s 			page 50


 1855              	.LVL131:
 659:/home/christoschristoforou/STM32Cube/Repository/STM32Cube_FW_F4_V1.27.0/Drivers/STM32F4xx_HAL_Driver/Src/stm32f4xx_hal_rcc_ex.c ****           break;
 1856              		.loc 1 659 11 is_stmt 1 view .LVU565
 659:/home/christoschristoforou/STM32Cube/Repository/STM32Cube_FW_F4_V1.27.0/Drivers/STM32F4xx_HAL_Driver/Src/stm32f4xx_hal_rcc_ex.c ****           break;
 1857              		.loc 1 659 40 is_stmt 0 view .LVU566
 1858 0134 5268     		ldr	r2, [r2, #4]
 659:/home/christoschristoforou/STM32Cube/Repository/STM32Cube_FW_F4_V1.27.0/Drivers/STM32F4xx_HAL_Driver/Src/stm32f4xx_hal_rcc_ex.c ****           break;
 1859              		.loc 1 659 70 view .LVU567
 1860 0136 C2F38812 		ubfx	r2, r2, #6, #9
 659:/home/christoschristoforou/STM32Cube/Repository/STM32Cube_FW_F4_V1.27.0/Drivers/STM32F4xx_HAL_Driver/Src/stm32f4xx_hal_rcc_ex.c ****           break;
 1861              		.loc 1 659 33 view .LVU568
 1862 013a 00FB02F0 		mul	r0, r0, r2
 1863              	.LVL132:
 659:/home/christoschristoforou/STM32Cube/Repository/STM32Cube_FW_F4_V1.27.0/Drivers/STM32F4xx_HAL_Driver/Src/stm32f4xx_hal_rcc_ex.c ****           break;
 1864              		.loc 1 659 21 view .LVU569
 1865 013e B0FBF3F0 		udiv	r0, r0, r3
 1866              	.LVL133:
 660:/home/christoschristoforou/STM32Cube/Repository/STM32Cube_FW_F4_V1.27.0/Drivers/STM32F4xx_HAL_Driver/Src/stm32f4xx_hal_rcc_ex.c ****         }
 1867              		.loc 1 660 11 is_stmt 1 view .LVU570
 1868 0142 7047     		bx	lr
 1869              	.LVL134:
 1870              	.L150:
 653:/home/christoschristoforou/STM32Cube/Repository/STM32Cube_FW_F4_V1.27.0/Drivers/STM32F4xx_HAL_Driver/Src/stm32f4xx_hal_rcc_ex.c ****           }
 1871              		.loc 1 653 13 view .LVU571
 653:/home/christoschristoforou/STM32Cube/Repository/STM32Cube_FW_F4_V1.27.0/Drivers/STM32F4xx_HAL_Driver/Src/stm32f4xx_hal_rcc_ex.c ****           }
 1872              		.loc 1 653 52 is_stmt 0 view .LVU572
 1873 0144 6A4B     		ldr	r3, .L180
 1874 0146 5B68     		ldr	r3, [r3, #4]
 653:/home/christoschristoforou/STM32Cube/Repository/STM32Cube_FW_F4_V1.27.0/Drivers/STM32F4xx_HAL_Driver/Src/stm32f4xx_hal_rcc_ex.c ****           }
 1875              		.loc 1 653 38 view .LVU573
 1876 0148 03F03F03 		and	r3, r3, #63
 653:/home/christoschristoforou/STM32Cube/Repository/STM32Cube_FW_F4_V1.27.0/Drivers/STM32F4xx_HAL_Driver/Src/stm32f4xx_hal_rcc_ex.c ****           }
 1877              		.loc 1 653 22 view .LVU574
 1878 014c 6A48     		ldr	r0, .L180+8
 1879 014e B0FBF3F0 		udiv	r0, r0, r3
 1880              	.LVL135:
 653:/home/christoschristoforou/STM32Cube/Repository/STM32Cube_FW_F4_V1.27.0/Drivers/STM32F4xx_HAL_Driver/Src/stm32f4xx_hal_rcc_ex.c ****           }
 1881              		.loc 1 653 22 view .LVU575
 1882 0152 EBE7     		b	.L151
 1883              	.LVL136:
 1884              	.L140:
 673:/home/christoschristoforou/STM32Cube/Repository/STM32Cube_FW_F4_V1.27.0/Drivers/STM32F4xx_HAL_Driver/Src/stm32f4xx_hal_rcc_ex.c ****           }
 674:/home/christoschristoforou/STM32Cube/Repository/STM32Cube_FW_F4_V1.27.0/Drivers/STM32F4xx_HAL_Driver/Src/stm32f4xx_hal_rcc_ex.c ****           else
 675:/home/christoschristoforou/STM32Cube/Repository/STM32Cube_FW_F4_V1.27.0/Drivers/STM32F4xx_HAL_Driver/Src/stm32f4xx_hal_rcc_ex.c ****           {
 676:/home/christoschristoforou/STM32Cube/Repository/STM32Cube_FW_F4_V1.27.0/Drivers/STM32F4xx_HAL_Driver/Src/stm32f4xx_hal_rcc_ex.c ****             /* In Case the PLL Source is HSE (External Clock) */
 677:/home/christoschristoforou/STM32Cube/Repository/STM32Cube_FW_F4_V1.27.0/Drivers/STM32F4xx_HAL_Driver/Src/stm32f4xx_hal_rcc_ex.c ****             frequency = (uint32_t)(HSE_VALUE);
 678:/home/christoschristoforou/STM32Cube/Repository/STM32Cube_FW_F4_V1.27.0/Drivers/STM32F4xx_HAL_Driver/Src/stm32f4xx_hal_rcc_ex.c ****           }
 679:/home/christoschristoforou/STM32Cube/Repository/STM32Cube_FW_F4_V1.27.0/Drivers/STM32F4xx_HAL_Driver/Src/stm32f4xx_hal_rcc_ex.c ****           break;
 680:/home/christoschristoforou/STM32Cube/Repository/STM32Cube_FW_F4_V1.27.0/Drivers/STM32F4xx_HAL_Driver/Src/stm32f4xx_hal_rcc_ex.c ****         }
 681:/home/christoschristoforou/STM32Cube/Repository/STM32Cube_FW_F4_V1.27.0/Drivers/STM32F4xx_HAL_Driver/Src/stm32f4xx_hal_rcc_ex.c ****       default :
 682:/home/christoschristoforou/STM32Cube/Repository/STM32Cube_FW_F4_V1.27.0/Drivers/STM32F4xx_HAL_Driver/Src/stm32f4xx_hal_rcc_ex.c ****         {
 683:/home/christoschristoforou/STM32Cube/Repository/STM32Cube_FW_F4_V1.27.0/Drivers/STM32F4xx_HAL_Driver/Src/stm32f4xx_hal_rcc_ex.c ****           break;
 684:/home/christoschristoforou/STM32Cube/Repository/STM32Cube_FW_F4_V1.27.0/Drivers/STM32F4xx_HAL_Driver/Src/stm32f4xx_hal_rcc_ex.c ****         }
 685:/home/christoschristoforou/STM32Cube/Repository/STM32Cube_FW_F4_V1.27.0/Drivers/STM32F4xx_HAL_Driver/Src/stm32f4xx_hal_rcc_ex.c ****       }
 686:/home/christoschristoforou/STM32Cube/Repository/STM32Cube_FW_F4_V1.27.0/Drivers/STM32F4xx_HAL_Driver/Src/stm32f4xx_hal_rcc_ex.c ****       break;
 687:/home/christoschristoforou/STM32Cube/Repository/STM32Cube_FW_F4_V1.27.0/Drivers/STM32F4xx_HAL_Driver/Src/stm32f4xx_hal_rcc_ex.c ****     }
 688:/home/christoschristoforou/STM32Cube/Repository/STM32Cube_FW_F4_V1.27.0/Drivers/STM32F4xx_HAL_Driver/Src/stm32f4xx_hal_rcc_ex.c ****   case RCC_PERIPHCLK_I2S_APB1:
ARM GAS  /tmp/ccbai6tv.s 			page 51


 689:/home/christoschristoforou/STM32Cube/Repository/STM32Cube_FW_F4_V1.27.0/Drivers/STM32F4xx_HAL_Driver/Src/stm32f4xx_hal_rcc_ex.c ****     {
 690:/home/christoschristoforou/STM32Cube/Repository/STM32Cube_FW_F4_V1.27.0/Drivers/STM32F4xx_HAL_Driver/Src/stm32f4xx_hal_rcc_ex.c ****       /* Get the current I2S source */
 691:/home/christoschristoforou/STM32Cube/Repository/STM32Cube_FW_F4_V1.27.0/Drivers/STM32F4xx_HAL_Driver/Src/stm32f4xx_hal_rcc_ex.c ****       srcclk = __HAL_RCC_GET_I2S_APB1_SOURCE();
 1885              		.loc 1 691 7 is_stmt 1 view .LVU576
 1886              		.loc 1 691 16 is_stmt 0 view .LVU577
 1887 0154 664B     		ldr	r3, .L180
 1888 0156 D3F88C30 		ldr	r3, [r3, #140]
 1889              		.loc 1 691 14 view .LVU578
 1890 015a 03F0C063 		and	r3, r3, #100663296
 1891              	.LVL137:
 692:/home/christoschristoforou/STM32Cube/Repository/STM32Cube_FW_F4_V1.27.0/Drivers/STM32F4xx_HAL_Driver/Src/stm32f4xx_hal_rcc_ex.c ****       switch (srcclk)
 1892              		.loc 1 692 7 is_stmt 1 view .LVU579
 1893 015e B3F1806F 		cmp	r3, #67108864
 1894 0162 38D0     		beq	.L152
 1895 0164 06D8     		bhi	.L153
 1896 0166 93B1     		cbz	r3, .L154
 1897 0168 B3F1007F 		cmp	r3, #33554432
 1898 016c 40F0B880 		bne	.L171
 1899 0170 6248     		ldr	r0, .L180+12
 1900 0172 7047     		bx	lr
 1901              	.L153:
 1902 0174 B3F1C06F 		cmp	r3, #100663296
