ARM GAS  /tmp/ccNY9AZA.s 			page 1


   1              		.cpu cortex-m4
   2              		.eabi_attribute 27, 1
   3              		.eabi_attribute 28, 1
   4              		.eabi_attribute 20, 1
   5              		.eabi_attribute 21, 1
   6              		.eabi_attribute 23, 3
   7              		.eabi_attribute 24, 1
   8              		.eabi_attribute 25, 1
   9              		.eabi_attribute 26, 1
  10              		.eabi_attribute 30, 1
  11              		.eabi_attribute 34, 1
  12              		.eabi_attribute 18, 4
  13              		.file	"stm32f4xx_hal_exti.c"
  14              		.text
  15              	.Ltext0:
  16              		.cfi_sections	.debug_frame
  17              		.section	.rodata.HAL_EXTI_SetConfigLine.str1.4,"aMS",%progbits,1
  18              		.align	2
  19              	.LC0:
  20 0000 2F686F6D 		.ascii	"/home/christoschristoforou/STM32Cube/Repository/STM"
  20      652F6368 
  20      72697374 
  20      6F736368 
  20      72697374 
  21 0033 33324375 		.ascii	"32Cube_FW_F4_V1.27.0/Drivers/STM32F4xx_HAL_Driver/S"
  21      62655F46 
  21      575F4634 
  21      5F56312E 
  21      32372E30 
  22 0066 72632F73 		.ascii	"rc/stm32f4xx_hal_exti.c\000"
  22      746D3332 
  22      66347878 
  22      5F68616C 
  22      5F657874 
  23              		.section	.text.HAL_EXTI_SetConfigLine,"ax",%progbits
  24              		.align	1
  25              		.global	HAL_EXTI_SetConfigLine
  26              		.arch armv7e-m
  27              		.syntax unified
  28              		.thumb
  29              		.thumb_func
  30              		.fpu fpv4-sp-d16
  32              	HAL_EXTI_SetConfigLine:
  33              	.LVL0:
  34              	.LFB130:
  35              		.file 1 "/home/christoschristoforou/STM32Cube/Repository/STM32Cube_FW_F4_V1.27.0/Drivers/STM32F4xx
   1:/home/christoschristoforou/STM32Cube/Repository/STM32Cube_FW_F4_V1.27.0/Drivers/STM32F4xx_HAL_Driver/Src/stm32f4xx_hal_exti.c **** /**
   2:/home/christoschristoforou/STM32Cube/Repository/STM32Cube_FW_F4_V1.27.0/Drivers/STM32F4xx_HAL_Driver/Src/stm32f4xx_hal_exti.c ****   ******************************************************************************
   3:/home/christoschristoforou/STM32Cube/Repository/STM32Cube_FW_F4_V1.27.0/Drivers/STM32F4xx_HAL_Driver/Src/stm32f4xx_hal_exti.c ****   * @file    stm32f4xx_hal_exti.c
   4:/home/christoschristoforou/STM32Cube/Repository/STM32Cube_FW_F4_V1.27.0/Drivers/STM32F4xx_HAL_Driver/Src/stm32f4xx_hal_exti.c ****   * @author  MCD Application Team
   5:/home/christoschristoforou/STM32Cube/Repository/STM32Cube_FW_F4_V1.27.0/Drivers/STM32F4xx_HAL_Driver/Src/stm32f4xx_hal_exti.c ****   * @brief   EXTI HAL module driver.
   6:/home/christoschristoforou/STM32Cube/Repository/STM32Cube_FW_F4_V1.27.0/Drivers/STM32F4xx_HAL_Driver/Src/stm32f4xx_hal_exti.c ****   *          This file provides firmware functions to manage the following
   7:/home/christoschristoforou/STM32Cube/Repository/STM32Cube_FW_F4_V1.27.0/Drivers/STM32F4xx_HAL_Driver/Src/stm32f4xx_hal_exti.c ****   *          functionalities of the Extended Interrupts and events controller (EXTI) peripheral:
   8:/home/christoschristoforou/STM32Cube/Repository/STM32Cube_FW_F4_V1.27.0/Drivers/STM32F4xx_HAL_Driver/Src/stm32f4xx_hal_exti.c ****   *           + Initialization and de-initialization functions
   9:/home/christoschristoforou/STM32Cube/Repository/STM32Cube_FW_F4_V1.27.0/Drivers/STM32F4xx_HAL_Driver/Src/stm32f4xx_hal_exti.c ****   *           + IO operation functions
  10:/home/christoschristoforou/STM32Cube/Repository/STM32Cube_FW_F4_V1.27.0/Drivers/STM32F4xx_HAL_Driver/Src/stm32f4xx_hal_exti.c ****   *
  11:/home/christoschristoforou/STM32Cube/Repository/STM32Cube_FW_F4_V1.27.0/Drivers/STM32F4xx_HAL_Driver/Src/stm32f4xx_hal_exti.c ****   ******************************************************************************
ARM GAS  /tmp/ccNY9AZA.s 			page 2


  12:/home/christoschristoforou/STM32Cube/Repository/STM32Cube_FW_F4_V1.27.0/Drivers/STM32F4xx_HAL_Driver/Src/stm32f4xx_hal_exti.c ****   * @attention
  13:/home/christoschristoforou/STM32Cube/Repository/STM32Cube_FW_F4_V1.27.0/Drivers/STM32F4xx_HAL_Driver/Src/stm32f4xx_hal_exti.c ****   *
  14:/home/christoschristoforou/STM32Cube/Repository/STM32Cube_FW_F4_V1.27.0/Drivers/STM32F4xx_HAL_Driver/Src/stm32f4xx_hal_exti.c ****   * Copyright (c) 2018 STMicroelectronics.
  15:/home/christoschristoforou/STM32Cube/Repository/STM32Cube_FW_F4_V1.27.0/Drivers/STM32F4xx_HAL_Driver/Src/stm32f4xx_hal_exti.c ****   * All rights reserved.
  16:/home/christoschristoforou/STM32Cube/Repository/STM32Cube_FW_F4_V1.27.0/Drivers/STM32F4xx_HAL_Driver/Src/stm32f4xx_hal_exti.c ****   *
  17:/home/christoschristoforou/STM32Cube/Repository/STM32Cube_FW_F4_V1.27.0/Drivers/STM32F4xx_HAL_Driver/Src/stm32f4xx_hal_exti.c ****   * This software is licensed under terms that can be found in the LICENSE file
  18:/home/christoschristoforou/STM32Cube/Repository/STM32Cube_FW_F4_V1.27.0/Drivers/STM32F4xx_HAL_Driver/Src/stm32f4xx_hal_exti.c ****   * in the root directory of this software component.
  19:/home/christoschristoforou/STM32Cube/Repository/STM32Cube_FW_F4_V1.27.0/Drivers/STM32F4xx_HAL_Driver/Src/stm32f4xx_hal_exti.c ****   * If no LICENSE file comes with this software, it is provided AS-IS.
  20:/home/christoschristoforou/STM32Cube/Repository/STM32Cube_FW_F4_V1.27.0/Drivers/STM32F4xx_HAL_Driver/Src/stm32f4xx_hal_exti.c ****   *
  21:/home/christoschristoforou/STM32Cube/Repository/STM32Cube_FW_F4_V1.27.0/Drivers/STM32F4xx_HAL_Driver/Src/stm32f4xx_hal_exti.c ****   ******************************************************************************
  22:/home/christoschristoforou/STM32Cube/Repository/STM32Cube_FW_F4_V1.27.0/Drivers/STM32F4xx_HAL_Driver/Src/stm32f4xx_hal_exti.c ****   @verbatim
  23:/home/christoschristoforou/STM32Cube/Repository/STM32Cube_FW_F4_V1.27.0/Drivers/STM32F4xx_HAL_Driver/Src/stm32f4xx_hal_exti.c ****   ==============================================================================
  24:/home/christoschristoforou/STM32Cube/Repository/STM32Cube_FW_F4_V1.27.0/Drivers/STM32F4xx_HAL_Driver/Src/stm32f4xx_hal_exti.c ****                     ##### EXTI Peripheral features #####
  25:/home/christoschristoforou/STM32Cube/Repository/STM32Cube_FW_F4_V1.27.0/Drivers/STM32F4xx_HAL_Driver/Src/stm32f4xx_hal_exti.c ****   ==============================================================================
  26:/home/christoschristoforou/STM32Cube/Repository/STM32Cube_FW_F4_V1.27.0/Drivers/STM32F4xx_HAL_Driver/Src/stm32f4xx_hal_exti.c ****   [..]
  27:/home/christoschristoforou/STM32Cube/Repository/STM32Cube_FW_F4_V1.27.0/Drivers/STM32F4xx_HAL_Driver/Src/stm32f4xx_hal_exti.c ****     (+) Each Exti line can be configured within this driver.
  28:/home/christoschristoforou/STM32Cube/Repository/STM32Cube_FW_F4_V1.27.0/Drivers/STM32F4xx_HAL_Driver/Src/stm32f4xx_hal_exti.c **** 
  29:/home/christoschristoforou/STM32Cube/Repository/STM32Cube_FW_F4_V1.27.0/Drivers/STM32F4xx_HAL_Driver/Src/stm32f4xx_hal_exti.c ****     (+) Exti line can be configured in 3 different modes
  30:/home/christoschristoforou/STM32Cube/Repository/STM32Cube_FW_F4_V1.27.0/Drivers/STM32F4xx_HAL_Driver/Src/stm32f4xx_hal_exti.c ****         (++) Interrupt
  31:/home/christoschristoforou/STM32Cube/Repository/STM32Cube_FW_F4_V1.27.0/Drivers/STM32F4xx_HAL_Driver/Src/stm32f4xx_hal_exti.c ****         (++) Event
  32:/home/christoschristoforou/STM32Cube/Repository/STM32Cube_FW_F4_V1.27.0/Drivers/STM32F4xx_HAL_Driver/Src/stm32f4xx_hal_exti.c ****         (++) Both of them
  33:/home/christoschristoforou/STM32Cube/Repository/STM32Cube_FW_F4_V1.27.0/Drivers/STM32F4xx_HAL_Driver/Src/stm32f4xx_hal_exti.c **** 
  34:/home/christoschristoforou/STM32Cube/Repository/STM32Cube_FW_F4_V1.27.0/Drivers/STM32F4xx_HAL_Driver/Src/stm32f4xx_hal_exti.c ****     (+) Configurable Exti lines can be configured with 3 different triggers
  35:/home/christoschristoforou/STM32Cube/Repository/STM32Cube_FW_F4_V1.27.0/Drivers/STM32F4xx_HAL_Driver/Src/stm32f4xx_hal_exti.c ****         (++) Rising
  36:/home/christoschristoforou/STM32Cube/Repository/STM32Cube_FW_F4_V1.27.0/Drivers/STM32F4xx_HAL_Driver/Src/stm32f4xx_hal_exti.c ****         (++) Falling
  37:/home/christoschristoforou/STM32Cube/Repository/STM32Cube_FW_F4_V1.27.0/Drivers/STM32F4xx_HAL_Driver/Src/stm32f4xx_hal_exti.c ****         (++) Both of them
  38:/home/christoschristoforou/STM32Cube/Repository/STM32Cube_FW_F4_V1.27.0/Drivers/STM32F4xx_HAL_Driver/Src/stm32f4xx_hal_exti.c **** 
  39:/home/christoschristoforou/STM32Cube/Repository/STM32Cube_FW_F4_V1.27.0/Drivers/STM32F4xx_HAL_Driver/Src/stm32f4xx_hal_exti.c ****     (+) When set in interrupt mode, configurable Exti lines have two different
  40:/home/christoschristoforou/STM32Cube/Repository/STM32Cube_FW_F4_V1.27.0/Drivers/STM32F4xx_HAL_Driver/Src/stm32f4xx_hal_exti.c ****         interrupts pending registers which allow to distinguish which transition
  41:/home/christoschristoforou/STM32Cube/Repository/STM32Cube_FW_F4_V1.27.0/Drivers/STM32F4xx_HAL_Driver/Src/stm32f4xx_hal_exti.c ****         occurs:
  42:/home/christoschristoforou/STM32Cube/Repository/STM32Cube_FW_F4_V1.27.0/Drivers/STM32F4xx_HAL_Driver/Src/stm32f4xx_hal_exti.c ****         (++) Rising edge pending interrupt
  43:/home/christoschristoforou/STM32Cube/Repository/STM32Cube_FW_F4_V1.27.0/Drivers/STM32F4xx_HAL_Driver/Src/stm32f4xx_hal_exti.c ****         (++) Falling
  44:/home/christoschristoforou/STM32Cube/Repository/STM32Cube_FW_F4_V1.27.0/Drivers/STM32F4xx_HAL_Driver/Src/stm32f4xx_hal_exti.c **** 
  45:/home/christoschristoforou/STM32Cube/Repository/STM32Cube_FW_F4_V1.27.0/Drivers/STM32F4xx_HAL_Driver/Src/stm32f4xx_hal_exti.c ****     (+) Exti lines 0 to 15 are linked to gpio pin number 0 to 15. Gpio port can
  46:/home/christoschristoforou/STM32Cube/Repository/STM32Cube_FW_F4_V1.27.0/Drivers/STM32F4xx_HAL_Driver/Src/stm32f4xx_hal_exti.c ****         be selected through multiplexer.
  47:/home/christoschristoforou/STM32Cube/Repository/STM32Cube_FW_F4_V1.27.0/Drivers/STM32F4xx_HAL_Driver/Src/stm32f4xx_hal_exti.c **** 
  48:/home/christoschristoforou/STM32Cube/Repository/STM32Cube_FW_F4_V1.27.0/Drivers/STM32F4xx_HAL_Driver/Src/stm32f4xx_hal_exti.c ****                      ##### How to use this driver #####
  49:/home/christoschristoforou/STM32Cube/Repository/STM32Cube_FW_F4_V1.27.0/Drivers/STM32F4xx_HAL_Driver/Src/stm32f4xx_hal_exti.c ****   ==============================================================================
  50:/home/christoschristoforou/STM32Cube/Repository/STM32Cube_FW_F4_V1.27.0/Drivers/STM32F4xx_HAL_Driver/Src/stm32f4xx_hal_exti.c ****   [..]
  51:/home/christoschristoforou/STM32Cube/Repository/STM32Cube_FW_F4_V1.27.0/Drivers/STM32F4xx_HAL_Driver/Src/stm32f4xx_hal_exti.c **** 
  52:/home/christoschristoforou/STM32Cube/Repository/STM32Cube_FW_F4_V1.27.0/Drivers/STM32F4xx_HAL_Driver/Src/stm32f4xx_hal_exti.c ****     (#) Configure the EXTI line using HAL_EXTI_SetConfigLine().
  53:/home/christoschristoforou/STM32Cube/Repository/STM32Cube_FW_F4_V1.27.0/Drivers/STM32F4xx_HAL_Driver/Src/stm32f4xx_hal_exti.c ****         (++) Choose the interrupt line number by setting "Line" member from
  54:/home/christoschristoforou/STM32Cube/Repository/STM32Cube_FW_F4_V1.27.0/Drivers/STM32F4xx_HAL_Driver/Src/stm32f4xx_hal_exti.c ****              EXTI_ConfigTypeDef structure.
  55:/home/christoschristoforou/STM32Cube/Repository/STM32Cube_FW_F4_V1.27.0/Drivers/STM32F4xx_HAL_Driver/Src/stm32f4xx_hal_exti.c ****         (++) Configure the interrupt and/or event mode using "Mode" member from
  56:/home/christoschristoforou/STM32Cube/Repository/STM32Cube_FW_F4_V1.27.0/Drivers/STM32F4xx_HAL_Driver/Src/stm32f4xx_hal_exti.c ****              EXTI_ConfigTypeDef structure.
  57:/home/christoschristoforou/STM32Cube/Repository/STM32Cube_FW_F4_V1.27.0/Drivers/STM32F4xx_HAL_Driver/Src/stm32f4xx_hal_exti.c ****         (++) For configurable lines, configure rising and/or falling trigger
  58:/home/christoschristoforou/STM32Cube/Repository/STM32Cube_FW_F4_V1.27.0/Drivers/STM32F4xx_HAL_Driver/Src/stm32f4xx_hal_exti.c ****              "Trigger" member from EXTI_ConfigTypeDef structure.
  59:/home/christoschristoforou/STM32Cube/Repository/STM32Cube_FW_F4_V1.27.0/Drivers/STM32F4xx_HAL_Driver/Src/stm32f4xx_hal_exti.c ****         (++) For Exti lines linked to gpio, choose gpio port using "GPIOSel"
  60:/home/christoschristoforou/STM32Cube/Repository/STM32Cube_FW_F4_V1.27.0/Drivers/STM32F4xx_HAL_Driver/Src/stm32f4xx_hal_exti.c ****              member from GPIO_InitTypeDef structure.
  61:/home/christoschristoforou/STM32Cube/Repository/STM32Cube_FW_F4_V1.27.0/Drivers/STM32F4xx_HAL_Driver/Src/stm32f4xx_hal_exti.c **** 
  62:/home/christoschristoforou/STM32Cube/Repository/STM32Cube_FW_F4_V1.27.0/Drivers/STM32F4xx_HAL_Driver/Src/stm32f4xx_hal_exti.c ****     (#) Get current Exti configuration of a dedicated line using
  63:/home/christoschristoforou/STM32Cube/Repository/STM32Cube_FW_F4_V1.27.0/Drivers/STM32F4xx_HAL_Driver/Src/stm32f4xx_hal_exti.c ****         HAL_EXTI_GetConfigLine().
  64:/home/christoschristoforou/STM32Cube/Repository/STM32Cube_FW_F4_V1.27.0/Drivers/STM32F4xx_HAL_Driver/Src/stm32f4xx_hal_exti.c ****         (++) Provide exiting handle as parameter.
  65:/home/christoschristoforou/STM32Cube/Repository/STM32Cube_FW_F4_V1.27.0/Drivers/STM32F4xx_HAL_Driver/Src/stm32f4xx_hal_exti.c ****         (++) Provide pointer on EXTI_ConfigTypeDef structure as second parameter.
  66:/home/christoschristoforou/STM32Cube/Repository/STM32Cube_FW_F4_V1.27.0/Drivers/STM32F4xx_HAL_Driver/Src/stm32f4xx_hal_exti.c **** 
  67:/home/christoschristoforou/STM32Cube/Repository/STM32Cube_FW_F4_V1.27.0/Drivers/STM32F4xx_HAL_Driver/Src/stm32f4xx_hal_exti.c ****     (#) Clear Exti configuration of a dedicated line using HAL_EXTI_GetConfigLine().
  68:/home/christoschristoforou/STM32Cube/Repository/STM32Cube_FW_F4_V1.27.0/Drivers/STM32F4xx_HAL_Driver/Src/stm32f4xx_hal_exti.c ****         (++) Provide exiting handle as parameter.
ARM GAS  /tmp/ccNY9AZA.s 			page 3


  69:/home/christoschristoforou/STM32Cube/Repository/STM32Cube_FW_F4_V1.27.0/Drivers/STM32F4xx_HAL_Driver/Src/stm32f4xx_hal_exti.c **** 
  70:/home/christoschristoforou/STM32Cube/Repository/STM32Cube_FW_F4_V1.27.0/Drivers/STM32F4xx_HAL_Driver/Src/stm32f4xx_hal_exti.c ****     (#) Register callback to treat Exti interrupts using HAL_EXTI_RegisterCallback().
  71:/home/christoschristoforou/STM32Cube/Repository/STM32Cube_FW_F4_V1.27.0/Drivers/STM32F4xx_HAL_Driver/Src/stm32f4xx_hal_exti.c ****         (++) Provide exiting handle as first parameter.
  72:/home/christoschristoforou/STM32Cube/Repository/STM32Cube_FW_F4_V1.27.0/Drivers/STM32F4xx_HAL_Driver/Src/stm32f4xx_hal_exti.c ****         (++) Provide which callback will be registered using one value from
  73:/home/christoschristoforou/STM32Cube/Repository/STM32Cube_FW_F4_V1.27.0/Drivers/STM32F4xx_HAL_Driver/Src/stm32f4xx_hal_exti.c ****              EXTI_CallbackIDTypeDef.
  74:/home/christoschristoforou/STM32Cube/Repository/STM32Cube_FW_F4_V1.27.0/Drivers/STM32F4xx_HAL_Driver/Src/stm32f4xx_hal_exti.c ****         (++) Provide callback function pointer.
  75:/home/christoschristoforou/STM32Cube/Repository/STM32Cube_FW_F4_V1.27.0/Drivers/STM32F4xx_HAL_Driver/Src/stm32f4xx_hal_exti.c **** 
  76:/home/christoschristoforou/STM32Cube/Repository/STM32Cube_FW_F4_V1.27.0/Drivers/STM32F4xx_HAL_Driver/Src/stm32f4xx_hal_exti.c ****     (#) Get interrupt pending bit using HAL_EXTI_GetPending().
  77:/home/christoschristoforou/STM32Cube/Repository/STM32Cube_FW_F4_V1.27.0/Drivers/STM32F4xx_HAL_Driver/Src/stm32f4xx_hal_exti.c **** 
  78:/home/christoschristoforou/STM32Cube/Repository/STM32Cube_FW_F4_V1.27.0/Drivers/STM32F4xx_HAL_Driver/Src/stm32f4xx_hal_exti.c ****     (#) Clear interrupt pending bit using HAL_EXTI_GetPending().
  79:/home/christoschristoforou/STM32Cube/Repository/STM32Cube_FW_F4_V1.27.0/Drivers/STM32F4xx_HAL_Driver/Src/stm32f4xx_hal_exti.c **** 
  80:/home/christoschristoforou/STM32Cube/Repository/STM32Cube_FW_F4_V1.27.0/Drivers/STM32F4xx_HAL_Driver/Src/stm32f4xx_hal_exti.c ****     (#) Generate software interrupt using HAL_EXTI_GenerateSWI().
  81:/home/christoschristoforou/STM32Cube/Repository/STM32Cube_FW_F4_V1.27.0/Drivers/STM32F4xx_HAL_Driver/Src/stm32f4xx_hal_exti.c **** 
  82:/home/christoschristoforou/STM32Cube/Repository/STM32Cube_FW_F4_V1.27.0/Drivers/STM32F4xx_HAL_Driver/Src/stm32f4xx_hal_exti.c ****   @endverbatim
  83:/home/christoschristoforou/STM32Cube/Repository/STM32Cube_FW_F4_V1.27.0/Drivers/STM32F4xx_HAL_Driver/Src/stm32f4xx_hal_exti.c ****   */
  84:/home/christoschristoforou/STM32Cube/Repository/STM32Cube_FW_F4_V1.27.0/Drivers/STM32F4xx_HAL_Driver/Src/stm32f4xx_hal_exti.c **** 
  85:/home/christoschristoforou/STM32Cube/Repository/STM32Cube_FW_F4_V1.27.0/Drivers/STM32F4xx_HAL_Driver/Src/stm32f4xx_hal_exti.c **** /* Includes ------------------------------------------------------------------*/
  86:/home/christoschristoforou/STM32Cube/Repository/STM32Cube_FW_F4_V1.27.0/Drivers/STM32F4xx_HAL_Driver/Src/stm32f4xx_hal_exti.c **** #include "stm32f4xx_hal.h"
  87:/home/christoschristoforou/STM32Cube/Repository/STM32Cube_FW_F4_V1.27.0/Drivers/STM32F4xx_HAL_Driver/Src/stm32f4xx_hal_exti.c **** 
  88:/home/christoschristoforou/STM32Cube/Repository/STM32Cube_FW_F4_V1.27.0/Drivers/STM32F4xx_HAL_Driver/Src/stm32f4xx_hal_exti.c **** /** @addtogroup STM32F4xx_HAL_Driver
  89:/home/christoschristoforou/STM32Cube/Repository/STM32Cube_FW_F4_V1.27.0/Drivers/STM32F4xx_HAL_Driver/Src/stm32f4xx_hal_exti.c ****   * @{
  90:/home/christoschristoforou/STM32Cube/Repository/STM32Cube_FW_F4_V1.27.0/Drivers/STM32F4xx_HAL_Driver/Src/stm32f4xx_hal_exti.c ****   */
  91:/home/christoschristoforou/STM32Cube/Repository/STM32Cube_FW_F4_V1.27.0/Drivers/STM32F4xx_HAL_Driver/Src/stm32f4xx_hal_exti.c **** 
  92:/home/christoschristoforou/STM32Cube/Repository/STM32Cube_FW_F4_V1.27.0/Drivers/STM32F4xx_HAL_Driver/Src/stm32f4xx_hal_exti.c **** /** @addtogroup EXTI
  93:/home/christoschristoforou/STM32Cube/Repository/STM32Cube_FW_F4_V1.27.0/Drivers/STM32F4xx_HAL_Driver/Src/stm32f4xx_hal_exti.c ****   * @{
  94:/home/christoschristoforou/STM32Cube/Repository/STM32Cube_FW_F4_V1.27.0/Drivers/STM32F4xx_HAL_Driver/Src/stm32f4xx_hal_exti.c ****   */
  95:/home/christoschristoforou/STM32Cube/Repository/STM32Cube_FW_F4_V1.27.0/Drivers/STM32F4xx_HAL_Driver/Src/stm32f4xx_hal_exti.c **** /** MISRA C:2012 deviation rule has been granted for following rule:
  96:/home/christoschristoforou/STM32Cube/Repository/STM32Cube_FW_F4_V1.27.0/Drivers/STM32F4xx_HAL_Driver/Src/stm32f4xx_hal_exti.c ****   * Rule-18.1_b - Medium: Array `EXTICR' 1st subscript interval [0,7] may be out
  97:/home/christoschristoforou/STM32Cube/Repository/STM32Cube_FW_F4_V1.27.0/Drivers/STM32F4xx_HAL_Driver/Src/stm32f4xx_hal_exti.c ****   * of bounds [0,3] in following API :
  98:/home/christoschristoforou/STM32Cube/Repository/STM32Cube_FW_F4_V1.27.0/Drivers/STM32F4xx_HAL_Driver/Src/stm32f4xx_hal_exti.c ****   * HAL_EXTI_SetConfigLine
  99:/home/christoschristoforou/STM32Cube/Repository/STM32Cube_FW_F4_V1.27.0/Drivers/STM32F4xx_HAL_Driver/Src/stm32f4xx_hal_exti.c ****   * HAL_EXTI_GetConfigLine
 100:/home/christoschristoforou/STM32Cube/Repository/STM32Cube_FW_F4_V1.27.0/Drivers/STM32F4xx_HAL_Driver/Src/stm32f4xx_hal_exti.c ****   * HAL_EXTI_ClearConfigLine
 101:/home/christoschristoforou/STM32Cube/Repository/STM32Cube_FW_F4_V1.27.0/Drivers/STM32F4xx_HAL_Driver/Src/stm32f4xx_hal_exti.c ****   */
 102:/home/christoschristoforou/STM32Cube/Repository/STM32Cube_FW_F4_V1.27.0/Drivers/STM32F4xx_HAL_Driver/Src/stm32f4xx_hal_exti.c **** 
 103:/home/christoschristoforou/STM32Cube/Repository/STM32Cube_FW_F4_V1.27.0/Drivers/STM32F4xx_HAL_Driver/Src/stm32f4xx_hal_exti.c **** #ifdef HAL_EXTI_MODULE_ENABLED
 104:/home/christoschristoforou/STM32Cube/Repository/STM32Cube_FW_F4_V1.27.0/Drivers/STM32F4xx_HAL_Driver/Src/stm32f4xx_hal_exti.c **** 
 105:/home/christoschristoforou/STM32Cube/Repository/STM32Cube_FW_F4_V1.27.0/Drivers/STM32F4xx_HAL_Driver/Src/stm32f4xx_hal_exti.c **** /* Private typedef -----------------------------------------------------------*/
 106:/home/christoschristoforou/STM32Cube/Repository/STM32Cube_FW_F4_V1.27.0/Drivers/STM32F4xx_HAL_Driver/Src/stm32f4xx_hal_exti.c **** /* Private defines -----------------------------------------------------------*/
 107:/home/christoschristoforou/STM32Cube/Repository/STM32Cube_FW_F4_V1.27.0/Drivers/STM32F4xx_HAL_Driver/Src/stm32f4xx_hal_exti.c **** /** @defgroup EXTI_Private_Constants EXTI Private Constants
 108:/home/christoschristoforou/STM32Cube/Repository/STM32Cube_FW_F4_V1.27.0/Drivers/STM32F4xx_HAL_Driver/Src/stm32f4xx_hal_exti.c ****   * @{
 109:/home/christoschristoforou/STM32Cube/Repository/STM32Cube_FW_F4_V1.27.0/Drivers/STM32F4xx_HAL_Driver/Src/stm32f4xx_hal_exti.c ****   */
 110:/home/christoschristoforou/STM32Cube/Repository/STM32Cube_FW_F4_V1.27.0/Drivers/STM32F4xx_HAL_Driver/Src/stm32f4xx_hal_exti.c **** 
 111:/home/christoschristoforou/STM32Cube/Repository/STM32Cube_FW_F4_V1.27.0/Drivers/STM32F4xx_HAL_Driver/Src/stm32f4xx_hal_exti.c **** /**
 112:/home/christoschristoforou/STM32Cube/Repository/STM32Cube_FW_F4_V1.27.0/Drivers/STM32F4xx_HAL_Driver/Src/stm32f4xx_hal_exti.c ****   * @}
 113:/home/christoschristoforou/STM32Cube/Repository/STM32Cube_FW_F4_V1.27.0/Drivers/STM32F4xx_HAL_Driver/Src/stm32f4xx_hal_exti.c ****   */
 114:/home/christoschristoforou/STM32Cube/Repository/STM32Cube_FW_F4_V1.27.0/Drivers/STM32F4xx_HAL_Driver/Src/stm32f4xx_hal_exti.c **** 
 115:/home/christoschristoforou/STM32Cube/Repository/STM32Cube_FW_F4_V1.27.0/Drivers/STM32F4xx_HAL_Driver/Src/stm32f4xx_hal_exti.c **** /* Private macros ------------------------------------------------------------*/
 116:/home/christoschristoforou/STM32Cube/Repository/STM32Cube_FW_F4_V1.27.0/Drivers/STM32F4xx_HAL_Driver/Src/stm32f4xx_hal_exti.c **** /* Private variables ---------------------------------------------------------*/
 117:/home/christoschristoforou/STM32Cube/Repository/STM32Cube_FW_F4_V1.27.0/Drivers/STM32F4xx_HAL_Driver/Src/stm32f4xx_hal_exti.c **** /* Private function prototypes -----------------------------------------------*/
 118:/home/christoschristoforou/STM32Cube/Repository/STM32Cube_FW_F4_V1.27.0/Drivers/STM32F4xx_HAL_Driver/Src/stm32f4xx_hal_exti.c **** /* Exported functions --------------------------------------------------------*/
 119:/home/christoschristoforou/STM32Cube/Repository/STM32Cube_FW_F4_V1.27.0/Drivers/STM32F4xx_HAL_Driver/Src/stm32f4xx_hal_exti.c **** 
 120:/home/christoschristoforou/STM32Cube/Repository/STM32Cube_FW_F4_V1.27.0/Drivers/STM32F4xx_HAL_Driver/Src/stm32f4xx_hal_exti.c **** /** @addtogroup EXTI_Exported_Functions
 121:/home/christoschristoforou/STM32Cube/Repository/STM32Cube_FW_F4_V1.27.0/Drivers/STM32F4xx_HAL_Driver/Src/stm32f4xx_hal_exti.c ****   * @{
 122:/home/christoschristoforou/STM32Cube/Repository/STM32Cube_FW_F4_V1.27.0/Drivers/STM32F4xx_HAL_Driver/Src/stm32f4xx_hal_exti.c ****   */
 123:/home/christoschristoforou/STM32Cube/Repository/STM32Cube_FW_F4_V1.27.0/Drivers/STM32F4xx_HAL_Driver/Src/stm32f4xx_hal_exti.c **** 
 124:/home/christoschristoforou/STM32Cube/Repository/STM32Cube_FW_F4_V1.27.0/Drivers/STM32F4xx_HAL_Driver/Src/stm32f4xx_hal_exti.c **** /** @addtogroup EXTI_Exported_Functions_Group1
 125:/home/christoschristoforou/STM32Cube/Repository/STM32Cube_FW_F4_V1.27.0/Drivers/STM32F4xx_HAL_Driver/Src/stm32f4xx_hal_exti.c ****   *  @brief    Configuration functions
ARM GAS  /tmp/ccNY9AZA.s 			page 4


 126:/home/christoschristoforou/STM32Cube/Repository/STM32Cube_FW_F4_V1.27.0/Drivers/STM32F4xx_HAL_Driver/Src/stm32f4xx_hal_exti.c ****   *
 127:/home/christoschristoforou/STM32Cube/Repository/STM32Cube_FW_F4_V1.27.0/Drivers/STM32F4xx_HAL_Driver/Src/stm32f4xx_hal_exti.c **** @verbatim
 128:/home/christoschristoforou/STM32Cube/Repository/STM32Cube_FW_F4_V1.27.0/Drivers/STM32F4xx_HAL_Driver/Src/stm32f4xx_hal_exti.c ****  ===============================================================================
 129:/home/christoschristoforou/STM32Cube/Repository/STM32Cube_FW_F4_V1.27.0/Drivers/STM32F4xx_HAL_Driver/Src/stm32f4xx_hal_exti.c ****               ##### Configuration functions #####
 130:/home/christoschristoforou/STM32Cube/Repository/STM32Cube_FW_F4_V1.27.0/Drivers/STM32F4xx_HAL_Driver/Src/stm32f4xx_hal_exti.c ****  ===============================================================================
 131:/home/christoschristoforou/STM32Cube/Repository/STM32Cube_FW_F4_V1.27.0/Drivers/STM32F4xx_HAL_Driver/Src/stm32f4xx_hal_exti.c **** 
 132:/home/christoschristoforou/STM32Cube/Repository/STM32Cube_FW_F4_V1.27.0/Drivers/STM32F4xx_HAL_Driver/Src/stm32f4xx_hal_exti.c **** @endverbatim
 133:/home/christoschristoforou/STM32Cube/Repository/STM32Cube_FW_F4_V1.27.0/Drivers/STM32F4xx_HAL_Driver/Src/stm32f4xx_hal_exti.c ****   * @{
 134:/home/christoschristoforou/STM32Cube/Repository/STM32Cube_FW_F4_V1.27.0/Drivers/STM32F4xx_HAL_Driver/Src/stm32f4xx_hal_exti.c ****   */
 135:/home/christoschristoforou/STM32Cube/Repository/STM32Cube_FW_F4_V1.27.0/Drivers/STM32F4xx_HAL_Driver/Src/stm32f4xx_hal_exti.c **** 
 136:/home/christoschristoforou/STM32Cube/Repository/STM32Cube_FW_F4_V1.27.0/Drivers/STM32F4xx_HAL_Driver/Src/stm32f4xx_hal_exti.c **** /**
 137:/home/christoschristoforou/STM32Cube/Repository/STM32Cube_FW_F4_V1.27.0/Drivers/STM32F4xx_HAL_Driver/Src/stm32f4xx_hal_exti.c ****   * @brief  Set configuration of a dedicated Exti line.
 138:/home/christoschristoforou/STM32Cube/Repository/STM32Cube_FW_F4_V1.27.0/Drivers/STM32F4xx_HAL_Driver/Src/stm32f4xx_hal_exti.c ****   * @param  hexti Exti handle.
 139:/home/christoschristoforou/STM32Cube/Repository/STM32Cube_FW_F4_V1.27.0/Drivers/STM32F4xx_HAL_Driver/Src/stm32f4xx_hal_exti.c ****   * @param  pExtiConfig Pointer on EXTI configuration to be set.
 140:/home/christoschristoforou/STM32Cube/Repository/STM32Cube_FW_F4_V1.27.0/Drivers/STM32F4xx_HAL_Driver/Src/stm32f4xx_hal_exti.c ****   * @retval HAL Status.
 141:/home/christoschristoforou/STM32Cube/Repository/STM32Cube_FW_F4_V1.27.0/Drivers/STM32F4xx_HAL_Driver/Src/stm32f4xx_hal_exti.c ****   */
 142:/home/christoschristoforou/STM32Cube/Repository/STM32Cube_FW_F4_V1.27.0/Drivers/STM32F4xx_HAL_Driver/Src/stm32f4xx_hal_exti.c **** HAL_StatusTypeDef HAL_EXTI_SetConfigLine(EXTI_HandleTypeDef *hexti, EXTI_ConfigTypeDef *pExtiConfig
 143:/home/christoschristoforou/STM32Cube/Repository/STM32Cube_FW_F4_V1.27.0/Drivers/STM32F4xx_HAL_Driver/Src/stm32f4xx_hal_exti.c **** {
  36              		.loc 1 143 1 view -0
  37              		.cfi_startproc
  38              		@ args = 0, pretend = 0, frame = 0
  39              		@ frame_needed = 0, uses_anonymous_args = 0
 144:/home/christoschristoforou/STM32Cube/Repository/STM32Cube_FW_F4_V1.27.0/Drivers/STM32F4xx_HAL_Driver/Src/stm32f4xx_hal_exti.c ****   uint32_t regval;
  40              		.loc 1 144 3 view .LVU1
 145:/home/christoschristoforou/STM32Cube/Repository/STM32Cube_FW_F4_V1.27.0/Drivers/STM32F4xx_HAL_Driver/Src/stm32f4xx_hal_exti.c ****   uint32_t linepos;
  41              		.loc 1 145 3 view .LVU2
 146:/home/christoschristoforou/STM32Cube/Repository/STM32Cube_FW_F4_V1.27.0/Drivers/STM32F4xx_HAL_Driver/Src/stm32f4xx_hal_exti.c ****   uint32_t maskline;
  42              		.loc 1 146 3 view .LVU3
 147:/home/christoschristoforou/STM32Cube/Repository/STM32Cube_FW_F4_V1.27.0/Drivers/STM32F4xx_HAL_Driver/Src/stm32f4xx_hal_exti.c **** 
 148:/home/christoschristoforou/STM32Cube/Repository/STM32Cube_FW_F4_V1.27.0/Drivers/STM32F4xx_HAL_Driver/Src/stm32f4xx_hal_exti.c ****   /* Check null pointer */
 149:/home/christoschristoforou/STM32Cube/Repository/STM32Cube_FW_F4_V1.27.0/Drivers/STM32F4xx_HAL_Driver/Src/stm32f4xx_hal_exti.c ****   if ((hexti == NULL) || (pExtiConfig == NULL))
  43              		.loc 1 149 3 view .LVU4
  44              		.loc 1 149 6 is_stmt 0 view .LVU5
  45 0000 0028     		cmp	r0, #0
  46 0002 00F09E80 		beq	.L19
 143:/home/christoschristoforou/STM32Cube/Repository/STM32Cube_FW_F4_V1.27.0/Drivers/STM32F4xx_HAL_Driver/Src/stm32f4xx_hal_exti.c ****   uint32_t regval;
  47              		.loc 1 143 1 discriminator 1 view .LVU6
  48 0006 F8B5     		push	{r3, r4, r5, r6, r7, lr}
  49              	.LCFI0:
  50              		.cfi_def_cfa_offset 24
  51              		.cfi_offset 3, -24
  52              		.cfi_offset 4, -20
  53              		.cfi_offset 5, -16
  54              		.cfi_offset 6, -12
  55              		.cfi_offset 7, -8
  56              		.cfi_offset 14, -4
  57 0008 0C46     		mov	r4, r1
  58 000a 0546     		mov	r5, r0
  59              		.loc 1 149 23 discriminator 1 view .LVU7
  60 000c 0029     		cmp	r1, #0
  61 000e 00F09A80 		beq	.L20
 150:/home/christoschristoforou/STM32Cube/Repository/STM32Cube_FW_F4_V1.27.0/Drivers/STM32F4xx_HAL_Driver/Src/stm32f4xx_hal_exti.c ****   {
 151:/home/christoschristoforou/STM32Cube/Repository/STM32Cube_FW_F4_V1.27.0/Drivers/STM32F4xx_HAL_Driver/Src/stm32f4xx_hal_exti.c ****     return HAL_ERROR;
 152:/home/christoschristoforou/STM32Cube/Repository/STM32Cube_FW_F4_V1.27.0/Drivers/STM32F4xx_HAL_Driver/Src/stm32f4xx_hal_exti.c ****   }
 153:/home/christoschristoforou/STM32Cube/Repository/STM32Cube_FW_F4_V1.27.0/Drivers/STM32F4xx_HAL_Driver/Src/stm32f4xx_hal_exti.c **** 
 154:/home/christoschristoforou/STM32Cube/Repository/STM32Cube_FW_F4_V1.27.0/Drivers/STM32F4xx_HAL_Driver/Src/stm32f4xx_hal_exti.c ****   /* Check parameters */
 155:/home/christoschristoforou/STM32Cube/Repository/STM32Cube_FW_F4_V1.27.0/Drivers/STM32F4xx_HAL_Driver/Src/stm32f4xx_hal_exti.c ****   assert_param(IS_EXTI_LINE(pExtiConfig->Line));
ARM GAS  /tmp/ccNY9AZA.s 			page 5


  62              		.loc 1 155 3 is_stmt 1 view .LVU8
  63 0012 0A68     		ldr	r2, [r1]
  64 0014 22F0C063 		bic	r3, r2, #100663296
  65 0018 23F01F03 		bic	r3, r3, #31
  66 001c 3BB9     		cbnz	r3, .L3
  67              		.loc 1 155 3 is_stmt 0 discriminator 2 view .LVU9
  68 001e 02F0C063 		and	r3, r2, #100663296
  69 0022 B3F1007F 		cmp	r3, #33554432
  70 0026 46D0     		beq	.L4
  71              		.loc 1 155 3 discriminator 3 view .LVU10
  72 0028 B3F1C06F 		cmp	r3, #100663296
  73 002c 43D0     		beq	.L4
  74              	.L3:
  75              		.loc 1 155 3 discriminator 7 view .LVU11
  76 002e 9B21     		movs	r1, #155
  77              	.LVL1:
  78              		.loc 1 155 3 discriminator 7 view .LVU12
  79 0030 4648     		ldr	r0, .L29
  80              	.LVL2:
  81              		.loc 1 155 3 discriminator 7 view .LVU13
  82 0032 FFF7FEFF 		bl	assert_failed
  83              	.LVL3:
  84              	.L5:
 156:/home/christoschristoforou/STM32Cube/Repository/STM32Cube_FW_F4_V1.27.0/Drivers/STM32F4xx_HAL_Driver/Src/stm32f4xx_hal_exti.c ****   assert_param(IS_EXTI_MODE(pExtiConfig->Mode));
  85              		.loc 1 156 3 is_stmt 1 view .LVU14
  86 0036 6368     		ldr	r3, [r4, #4]
  87 0038 13F0030F 		tst	r3, #3
  88 003c 02D0     		beq	.L6
  89              		.loc 1 156 3 is_stmt 0 discriminator 2 view .LVU15
  90 003e 33F00303 		bics	r3, r3, #3
  91 0042 03D0     		beq	.L7
  92              	.L6:
  93              		.loc 1 156 3 discriminator 3 view .LVU16
  94 0044 9C21     		movs	r1, #156
  95 0046 4148     		ldr	r0, .L29
  96 0048 FFF7FEFF 		bl	assert_failed
  97              	.LVL4:
  98              	.L7:
 157:/home/christoschristoforou/STM32Cube/Repository/STM32Cube_FW_F4_V1.27.0/Drivers/STM32F4xx_HAL_Driver/Src/stm32f4xx_hal_exti.c **** 
 158:/home/christoschristoforou/STM32Cube/Repository/STM32Cube_FW_F4_V1.27.0/Drivers/STM32F4xx_HAL_Driver/Src/stm32f4xx_hal_exti.c ****   /* Assign line number to handle */
 159:/home/christoschristoforou/STM32Cube/Repository/STM32Cube_FW_F4_V1.27.0/Drivers/STM32F4xx_HAL_Driver/Src/stm32f4xx_hal_exti.c ****   hexti->Line = pExtiConfig->Line;
  99              		.loc 1 159 3 is_stmt 1 view .LVU17
 100              		.loc 1 159 28 is_stmt 0 view .LVU18
 101 004c 2668     		ldr	r6, [r4]
 102              		.loc 1 159 15 view .LVU19
 103 004e 2E60     		str	r6, [r5]
 160:/home/christoschristoforou/STM32Cube/Repository/STM32Cube_FW_F4_V1.27.0/Drivers/STM32F4xx_HAL_Driver/Src/stm32f4xx_hal_exti.c **** 
 161:/home/christoschristoforou/STM32Cube/Repository/STM32Cube_FW_F4_V1.27.0/Drivers/STM32F4xx_HAL_Driver/Src/stm32f4xx_hal_exti.c ****   /* Compute line mask */
 162:/home/christoschristoforou/STM32Cube/Repository/STM32Cube_FW_F4_V1.27.0/Drivers/STM32F4xx_HAL_Driver/Src/stm32f4xx_hal_exti.c ****   linepos = (pExtiConfig->Line & EXTI_PIN_MASK);
 104              		.loc 1 162 3 is_stmt 1 view .LVU20
 105              		.loc 1 162 11 is_stmt 0 view .LVU21
 106 0050 06F01F07 		and	r7, r6, #31
 107              	.LVL5:
 163:/home/christoschristoforou/STM32Cube/Repository/STM32Cube_FW_F4_V1.27.0/Drivers/STM32F4xx_HAL_Driver/Src/stm32f4xx_hal_exti.c ****   maskline = (1uL << linepos);
 108              		.loc 1 163 3 is_stmt 1 view .LVU22
 109              		.loc 1 163 12 is_stmt 0 view .LVU23
 110 0054 0125     		movs	r5, #1
ARM GAS  /tmp/ccNY9AZA.s 			page 6


 111              	.LVL6:
 112              		.loc 1 163 12 view .LVU24
 113 0056 BD40     		lsls	r5, r5, r7
 114              	.LVL7:
 164:/home/christoschristoforou/STM32Cube/Repository/STM32Cube_FW_F4_V1.27.0/Drivers/STM32F4xx_HAL_Driver/Src/stm32f4xx_hal_exti.c **** 
 165:/home/christoschristoforou/STM32Cube/Repository/STM32Cube_FW_F4_V1.27.0/Drivers/STM32F4xx_HAL_Driver/Src/stm32f4xx_hal_exti.c ****   /* Configure triggers for configurable lines */
 166:/home/christoschristoforou/STM32Cube/Repository/STM32Cube_FW_F4_V1.27.0/Drivers/STM32F4xx_HAL_Driver/Src/stm32f4xx_hal_exti.c ****   if ((pExtiConfig->Line & EXTI_CONFIG) != 0x00u)
 115              		.loc 1 166 3 is_stmt 1 view .LVU25
 116              		.loc 1 166 6 is_stmt 0 view .LVU26
 117 0058 16F0007F 		tst	r6, #33554432
 118 005c 19D0     		beq	.L8
 167:/home/christoschristoforou/STM32Cube/Repository/STM32Cube_FW_F4_V1.27.0/Drivers/STM32F4xx_HAL_Driver/Src/stm32f4xx_hal_exti.c ****   {
 168:/home/christoschristoforou/STM32Cube/Repository/STM32Cube_FW_F4_V1.27.0/Drivers/STM32F4xx_HAL_Driver/Src/stm32f4xx_hal_exti.c ****     assert_param(IS_EXTI_TRIGGER(pExtiConfig->Trigger));
 119              		.loc 1 168 5 is_stmt 1 view .LVU27
 120 005e A368     		ldr	r3, [r4, #8]
 121 0060 33F00303 		bics	r3, r3, #3
 122 0064 2CD1     		bne	.L25
 123              	.L9:
 169:/home/christoschristoforou/STM32Cube/Repository/STM32Cube_FW_F4_V1.27.0/Drivers/STM32F4xx_HAL_Driver/Src/stm32f4xx_hal_exti.c **** 
 170:/home/christoschristoforou/STM32Cube/Repository/STM32Cube_FW_F4_V1.27.0/Drivers/STM32F4xx_HAL_Driver/Src/stm32f4xx_hal_exti.c ****     /* Configure rising trigger */
 171:/home/christoschristoforou/STM32Cube/Repository/STM32Cube_FW_F4_V1.27.0/Drivers/STM32F4xx_HAL_Driver/Src/stm32f4xx_hal_exti.c ****     /* Mask or set line */
 172:/home/christoschristoforou/STM32Cube/Repository/STM32Cube_FW_F4_V1.27.0/Drivers/STM32F4xx_HAL_Driver/Src/stm32f4xx_hal_exti.c ****     if ((pExtiConfig->Trigger & EXTI_TRIGGER_RISING) != 0x00u)
 124              		.loc 1 172 5 view .LVU28
 125              		.loc 1 172 21 is_stmt 0 view .LVU29
 126 0066 A368     		ldr	r3, [r4, #8]
 127              		.loc 1 172 8 view .LVU30
 128 0068 13F0010F 		tst	r3, #1
 129 006c 2DD0     		beq	.L10
 173:/home/christoschristoforou/STM32Cube/Repository/STM32Cube_FW_F4_V1.27.0/Drivers/STM32F4xx_HAL_Driver/Src/stm32f4xx_hal_exti.c ****     {
 174:/home/christoschristoforou/STM32Cube/Repository/STM32Cube_FW_F4_V1.27.0/Drivers/STM32F4xx_HAL_Driver/Src/stm32f4xx_hal_exti.c ****       EXTI->RTSR |= maskline;
 130              		.loc 1 174 7 is_stmt 1 view .LVU31
 131              		.loc 1 174 18 is_stmt 0 view .LVU32
 132 006e 384A     		ldr	r2, .L29+4
 133 0070 9368     		ldr	r3, [r2, #8]
 134 0072 2B43     		orrs	r3, r3, r5
 135 0074 9360     		str	r3, [r2, #8]
 136              	.L11:
 175:/home/christoschristoforou/STM32Cube/Repository/STM32Cube_FW_F4_V1.27.0/Drivers/STM32F4xx_HAL_Driver/Src/stm32f4xx_hal_exti.c ****     }
 176:/home/christoschristoforou/STM32Cube/Repository/STM32Cube_FW_F4_V1.27.0/Drivers/STM32F4xx_HAL_Driver/Src/stm32f4xx_hal_exti.c ****     else
 177:/home/christoschristoforou/STM32Cube/Repository/STM32Cube_FW_F4_V1.27.0/Drivers/STM32F4xx_HAL_Driver/Src/stm32f4xx_hal_exti.c ****     {
 178:/home/christoschristoforou/STM32Cube/Repository/STM32Cube_FW_F4_V1.27.0/Drivers/STM32F4xx_HAL_Driver/Src/stm32f4xx_hal_exti.c ****       EXTI->RTSR &= ~maskline;
 179:/home/christoschristoforou/STM32Cube/Repository/STM32Cube_FW_F4_V1.27.0/Drivers/STM32F4xx_HAL_Driver/Src/stm32f4xx_hal_exti.c ****     }
 180:/home/christoschristoforou/STM32Cube/Repository/STM32Cube_FW_F4_V1.27.0/Drivers/STM32F4xx_HAL_Driver/Src/stm32f4xx_hal_exti.c **** 
 181:/home/christoschristoforou/STM32Cube/Repository/STM32Cube_FW_F4_V1.27.0/Drivers/STM32F4xx_HAL_Driver/Src/stm32f4xx_hal_exti.c ****     /* Configure falling trigger */
 182:/home/christoschristoforou/STM32Cube/Repository/STM32Cube_FW_F4_V1.27.0/Drivers/STM32F4xx_HAL_Driver/Src/stm32f4xx_hal_exti.c ****     /* Mask or set line */
 183:/home/christoschristoforou/STM32Cube/Repository/STM32Cube_FW_F4_V1.27.0/Drivers/STM32F4xx_HAL_Driver/Src/stm32f4xx_hal_exti.c ****     if ((pExtiConfig->Trigger & EXTI_TRIGGER_FALLING) != 0x00u)
 137              		.loc 1 183 5 is_stmt 1 view .LVU33
 138              		.loc 1 183 21 is_stmt 0 view .LVU34
 139 0076 A368     		ldr	r3, [r4, #8]
 140              		.loc 1 183 8 view .LVU35
 141 0078 13F0020F 		tst	r3, #2
 142 007c 2BD0     		beq	.L12
 184:/home/christoschristoforou/STM32Cube/Repository/STM32Cube_FW_F4_V1.27.0/Drivers/STM32F4xx_HAL_Driver/Src/stm32f4xx_hal_exti.c ****     {
 185:/home/christoschristoforou/STM32Cube/Repository/STM32Cube_FW_F4_V1.27.0/Drivers/STM32F4xx_HAL_Driver/Src/stm32f4xx_hal_exti.c ****       EXTI->FTSR |= maskline;
 143              		.loc 1 185 7 is_stmt 1 view .LVU36
 144              		.loc 1 185 18 is_stmt 0 view .LVU37
 145 007e 344A     		ldr	r2, .L29+4
ARM GAS  /tmp/ccNY9AZA.s 			page 7


 146 0080 D368     		ldr	r3, [r2, #12]
 147 0082 2B43     		orrs	r3, r3, r5
 148 0084 D360     		str	r3, [r2, #12]
 149              	.L13:
 186:/home/christoschristoforou/STM32Cube/Repository/STM32Cube_FW_F4_V1.27.0/Drivers/STM32F4xx_HAL_Driver/Src/stm32f4xx_hal_exti.c ****     }
 187:/home/christoschristoforou/STM32Cube/Repository/STM32Cube_FW_F4_V1.27.0/Drivers/STM32F4xx_HAL_Driver/Src/stm32f4xx_hal_exti.c ****     else
 188:/home/christoschristoforou/STM32Cube/Repository/STM32Cube_FW_F4_V1.27.0/Drivers/STM32F4xx_HAL_Driver/Src/stm32f4xx_hal_exti.c ****     {
 189:/home/christoschristoforou/STM32Cube/Repository/STM32Cube_FW_F4_V1.27.0/Drivers/STM32F4xx_HAL_Driver/Src/stm32f4xx_hal_exti.c ****       EXTI->FTSR &= ~maskline;
 190:/home/christoschristoforou/STM32Cube/Repository/STM32Cube_FW_F4_V1.27.0/Drivers/STM32F4xx_HAL_Driver/Src/stm32f4xx_hal_exti.c ****     }
 191:/home/christoschristoforou/STM32Cube/Repository/STM32Cube_FW_F4_V1.27.0/Drivers/STM32F4xx_HAL_Driver/Src/stm32f4xx_hal_exti.c **** 
 192:/home/christoschristoforou/STM32Cube/Repository/STM32Cube_FW_F4_V1.27.0/Drivers/STM32F4xx_HAL_Driver/Src/stm32f4xx_hal_exti.c **** 
 193:/home/christoschristoforou/STM32Cube/Repository/STM32Cube_FW_F4_V1.27.0/Drivers/STM32F4xx_HAL_Driver/Src/stm32f4xx_hal_exti.c ****     /* Configure gpio port selection in case of gpio exti line */
 194:/home/christoschristoforou/STM32Cube/Repository/STM32Cube_FW_F4_V1.27.0/Drivers/STM32F4xx_HAL_Driver/Src/stm32f4xx_hal_exti.c ****     if ((pExtiConfig->Line & EXTI_GPIO) == EXTI_GPIO)
 150              		.loc 1 194 5 is_stmt 1 view .LVU38
 151              		.loc 1 194 21 is_stmt 0 view .LVU39
 152 0086 2368     		ldr	r3, [r4]
 153              		.loc 1 194 28 view .LVU40
 154 0088 03F0C063 		and	r3, r3, #100663296
 155              		.loc 1 194 8 view .LVU41
 156 008c B3F1C06F 		cmp	r3, #100663296
 157 0090 27D0     		beq	.L26
 158              	.LVL8:
 159              	.L8:
 195:/home/christoschristoforou/STM32Cube/Repository/STM32Cube_FW_F4_V1.27.0/Drivers/STM32F4xx_HAL_Driver/Src/stm32f4xx_hal_exti.c ****     {
 196:/home/christoschristoforou/STM32Cube/Repository/STM32Cube_FW_F4_V1.27.0/Drivers/STM32F4xx_HAL_Driver/Src/stm32f4xx_hal_exti.c ****       assert_param(IS_EXTI_GPIO_PORT(pExtiConfig->GPIOSel));
 197:/home/christoschristoforou/STM32Cube/Repository/STM32Cube_FW_F4_V1.27.0/Drivers/STM32F4xx_HAL_Driver/Src/stm32f4xx_hal_exti.c ****       assert_param(IS_EXTI_GPIO_PIN(linepos));
 198:/home/christoschristoforou/STM32Cube/Repository/STM32Cube_FW_F4_V1.27.0/Drivers/STM32F4xx_HAL_Driver/Src/stm32f4xx_hal_exti.c **** 
 199:/home/christoschristoforou/STM32Cube/Repository/STM32Cube_FW_F4_V1.27.0/Drivers/STM32F4xx_HAL_Driver/Src/stm32f4xx_hal_exti.c ****       regval = SYSCFG->EXTICR[linepos >> 2u];
 200:/home/christoschristoforou/STM32Cube/Repository/STM32Cube_FW_F4_V1.27.0/Drivers/STM32F4xx_HAL_Driver/Src/stm32f4xx_hal_exti.c ****       regval &= ~(SYSCFG_EXTICR1_EXTI0 << (SYSCFG_EXTICR1_EXTI1_Pos * (linepos & 0x03u)));
 201:/home/christoschristoforou/STM32Cube/Repository/STM32Cube_FW_F4_V1.27.0/Drivers/STM32F4xx_HAL_Driver/Src/stm32f4xx_hal_exti.c ****       regval |= (pExtiConfig->GPIOSel << (SYSCFG_EXTICR1_EXTI1_Pos * (linepos & 0x03u)));
 202:/home/christoschristoforou/STM32Cube/Repository/STM32Cube_FW_F4_V1.27.0/Drivers/STM32F4xx_HAL_Driver/Src/stm32f4xx_hal_exti.c ****       SYSCFG->EXTICR[linepos >> 2u] = regval;
 203:/home/christoschristoforou/STM32Cube/Repository/STM32Cube_FW_F4_V1.27.0/Drivers/STM32F4xx_HAL_Driver/Src/stm32f4xx_hal_exti.c ****     }
 204:/home/christoschristoforou/STM32Cube/Repository/STM32Cube_FW_F4_V1.27.0/Drivers/STM32F4xx_HAL_Driver/Src/stm32f4xx_hal_exti.c ****   }
 205:/home/christoschristoforou/STM32Cube/Repository/STM32Cube_FW_F4_V1.27.0/Drivers/STM32F4xx_HAL_Driver/Src/stm32f4xx_hal_exti.c **** 
 206:/home/christoschristoforou/STM32Cube/Repository/STM32Cube_FW_F4_V1.27.0/Drivers/STM32F4xx_HAL_Driver/Src/stm32f4xx_hal_exti.c ****   /* Configure interrupt mode : read current mode */
 207:/home/christoschristoforou/STM32Cube/Repository/STM32Cube_FW_F4_V1.27.0/Drivers/STM32F4xx_HAL_Driver/Src/stm32f4xx_hal_exti.c ****   /* Mask or set line */
 208:/home/christoschristoforou/STM32Cube/Repository/STM32Cube_FW_F4_V1.27.0/Drivers/STM32F4xx_HAL_Driver/Src/stm32f4xx_hal_exti.c ****   if ((pExtiConfig->Mode & EXTI_MODE_INTERRUPT) != 0x00u)
 160              		.loc 1 208 3 is_stmt 1 view .LVU42
 161              		.loc 1 208 19 is_stmt 0 view .LVU43
 162 0092 6368     		ldr	r3, [r4, #4]
 163              		.loc 1 208 6 view .LVU44
 164 0094 13F0010F 		tst	r3, #1
 165 0098 46D0     		beq	.L16
 209:/home/christoschristoforou/STM32Cube/Repository/STM32Cube_FW_F4_V1.27.0/Drivers/STM32F4xx_HAL_Driver/Src/stm32f4xx_hal_exti.c ****   {
 210:/home/christoschristoforou/STM32Cube/Repository/STM32Cube_FW_F4_V1.27.0/Drivers/STM32F4xx_HAL_Driver/Src/stm32f4xx_hal_exti.c ****     EXTI->IMR |= maskline;
 166              		.loc 1 210 5 is_stmt 1 view .LVU45
 167              		.loc 1 210 15 is_stmt 0 view .LVU46
 168 009a 2D4A     		ldr	r2, .L29+4
 169 009c 1368     		ldr	r3, [r2]
 170 009e 2B43     		orrs	r3, r3, r5
 171 00a0 1360     		str	r3, [r2]
 172              	.L17:
 211:/home/christoschristoforou/STM32Cube/Repository/STM32Cube_FW_F4_V1.27.0/Drivers/STM32F4xx_HAL_Driver/Src/stm32f4xx_hal_exti.c ****   }
 212:/home/christoschristoforou/STM32Cube/Repository/STM32Cube_FW_F4_V1.27.0/Drivers/STM32F4xx_HAL_Driver/Src/stm32f4xx_hal_exti.c ****   else
 213:/home/christoschristoforou/STM32Cube/Repository/STM32Cube_FW_F4_V1.27.0/Drivers/STM32F4xx_HAL_Driver/Src/stm32f4xx_hal_exti.c ****   {
 214:/home/christoschristoforou/STM32Cube/Repository/STM32Cube_FW_F4_V1.27.0/Drivers/STM32F4xx_HAL_Driver/Src/stm32f4xx_hal_exti.c ****     EXTI->IMR &= ~maskline;
 215:/home/christoschristoforou/STM32Cube/Repository/STM32Cube_FW_F4_V1.27.0/Drivers/STM32F4xx_HAL_Driver/Src/stm32f4xx_hal_exti.c ****   }
ARM GAS  /tmp/ccNY9AZA.s 			page 8


 216:/home/christoschristoforou/STM32Cube/Repository/STM32Cube_FW_F4_V1.27.0/Drivers/STM32F4xx_HAL_Driver/Src/stm32f4xx_hal_exti.c **** 
 217:/home/christoschristoforou/STM32Cube/Repository/STM32Cube_FW_F4_V1.27.0/Drivers/STM32F4xx_HAL_Driver/Src/stm32f4xx_hal_exti.c ****   /* Configure event mode : read current mode */
 218:/home/christoschristoforou/STM32Cube/Repository/STM32Cube_FW_F4_V1.27.0/Drivers/STM32F4xx_HAL_Driver/Src/stm32f4xx_hal_exti.c ****   /* Mask or set line */
 219:/home/christoschristoforou/STM32Cube/Repository/STM32Cube_FW_F4_V1.27.0/Drivers/STM32F4xx_HAL_Driver/Src/stm32f4xx_hal_exti.c ****   if ((pExtiConfig->Mode & EXTI_MODE_EVENT) != 0x00u)
 173              		.loc 1 219 3 is_stmt 1 view .LVU47
 174              		.loc 1 219 19 is_stmt 0 view .LVU48
 175 00a2 6368     		ldr	r3, [r4, #4]
 176              		.loc 1 219 6 view .LVU49
 177 00a4 13F0020F 		tst	r3, #2
 178 00a8 44D0     		beq	.L18
 220:/home/christoschristoforou/STM32Cube/Repository/STM32Cube_FW_F4_V1.27.0/Drivers/STM32F4xx_HAL_Driver/Src/stm32f4xx_hal_exti.c ****   {
 221:/home/christoschristoforou/STM32Cube/Repository/STM32Cube_FW_F4_V1.27.0/Drivers/STM32F4xx_HAL_Driver/Src/stm32f4xx_hal_exti.c ****     EXTI->EMR |= maskline;
 179              		.loc 1 221 5 is_stmt 1 view .LVU50
 180              		.loc 1 221 15 is_stmt 0 view .LVU51
 181 00aa 294A     		ldr	r2, .L29+4
 182 00ac 5368     		ldr	r3, [r2, #4]
 183 00ae 1D43     		orrs	r5, r5, r3
 184              	.LVL9:
 185              		.loc 1 221 15 view .LVU52
 186 00b0 5560     		str	r5, [r2, #4]
 222:/home/christoschristoforou/STM32Cube/Repository/STM32Cube_FW_F4_V1.27.0/Drivers/STM32F4xx_HAL_Driver/Src/stm32f4xx_hal_exti.c ****   }
 223:/home/christoschristoforou/STM32Cube/Repository/STM32Cube_FW_F4_V1.27.0/Drivers/STM32F4xx_HAL_Driver/Src/stm32f4xx_hal_exti.c ****   else
 224:/home/christoschristoforou/STM32Cube/Repository/STM32Cube_FW_F4_V1.27.0/Drivers/STM32F4xx_HAL_Driver/Src/stm32f4xx_hal_exti.c ****   {
 225:/home/christoschristoforou/STM32Cube/Repository/STM32Cube_FW_F4_V1.27.0/Drivers/STM32F4xx_HAL_Driver/Src/stm32f4xx_hal_exti.c ****     EXTI->EMR &= ~maskline;
 226:/home/christoschristoforou/STM32Cube/Repository/STM32Cube_FW_F4_V1.27.0/Drivers/STM32F4xx_HAL_Driver/Src/stm32f4xx_hal_exti.c ****   }
 227:/home/christoschristoforou/STM32Cube/Repository/STM32Cube_FW_F4_V1.27.0/Drivers/STM32F4xx_HAL_Driver/Src/stm32f4xx_hal_exti.c **** 
 228:/home/christoschristoforou/STM32Cube/Repository/STM32Cube_FW_F4_V1.27.0/Drivers/STM32F4xx_HAL_Driver/Src/stm32f4xx_hal_exti.c ****   return HAL_OK;
 187              		.loc 1 228 10 view .LVU53
 188 00b2 0020     		movs	r0, #0
 189              	.L2:
 229:/home/christoschristoforou/STM32Cube/Repository/STM32Cube_FW_F4_V1.27.0/Drivers/STM32F4xx_HAL_Driver/Src/stm32f4xx_hal_exti.c **** }
 190              		.loc 1 229 1 view .LVU54
 191 00b4 F8BD     		pop	{r3, r4, r5, r6, r7, pc}
 192              	.LVL10:
 193              	.L4:
 155:/home/christoschristoforou/STM32Cube/Repository/STM32Cube_FW_F4_V1.27.0/Drivers/STM32F4xx_HAL_Driver/Src/stm32f4xx_hal_exti.c ****   assert_param(IS_EXTI_MODE(pExtiConfig->Mode));
 194              		.loc 1 155 3 discriminator 6 view .LVU55
 195 00b6 02F01F02 		and	r2, r2, #31
 196 00ba 162A     		cmp	r2, #22
 197 00bc BBD9     		bls	.L5
 198 00be B6E7     		b	.L3
 199              	.LVL11:
 200              	.L25:
 168:/home/christoschristoforou/STM32Cube/Repository/STM32Cube_FW_F4_V1.27.0/Drivers/STM32F4xx_HAL_Driver/Src/stm32f4xx_hal_exti.c **** 
 201              		.loc 1 168 5 discriminator 1 view .LVU56
 202 00c0 A821     		movs	r1, #168
 203 00c2 2248     		ldr	r0, .L29
 204 00c4 FFF7FEFF 		bl	assert_failed
 205              	.LVL12:
 206 00c8 CDE7     		b	.L9
 207              	.L10:
 178:/home/christoschristoforou/STM32Cube/Repository/STM32Cube_FW_F4_V1.27.0/Drivers/STM32F4xx_HAL_Driver/Src/stm32f4xx_hal_exti.c ****     }
 208              		.loc 1 178 7 is_stmt 1 view .LVU57
 178:/home/christoschristoforou/STM32Cube/Repository/STM32Cube_FW_F4_V1.27.0/Drivers/STM32F4xx_HAL_Driver/Src/stm32f4xx_hal_exti.c ****     }
 209              		.loc 1 178 18 is_stmt 0 view .LVU58
 210 00ca 214A     		ldr	r2, .L29+4
 211 00cc 9368     		ldr	r3, [r2, #8]
ARM GAS  /tmp/ccNY9AZA.s 			page 9


 212 00ce 23EA0503 		bic	r3, r3, r5
 213 00d2 9360     		str	r3, [r2, #8]
 214 00d4 CFE7     		b	.L11
 215              	.L12:
 189:/home/christoschristoforou/STM32Cube/Repository/STM32Cube_FW_F4_V1.27.0/Drivers/STM32F4xx_HAL_Driver/Src/stm32f4xx_hal_exti.c ****     }
 216              		.loc 1 189 7 is_stmt 1 view .LVU59
 189:/home/christoschristoforou/STM32Cube/Repository/STM32Cube_FW_F4_V1.27.0/Drivers/STM32F4xx_HAL_Driver/Src/stm32f4xx_hal_exti.c ****     }
 217              		.loc 1 189 18 is_stmt 0 view .LVU60
 218 00d6 1E4A     		ldr	r2, .L29+4
 219 00d8 D368     		ldr	r3, [r2, #12]
 220 00da 23EA0503 		bic	r3, r3, r5
 221 00de D360     		str	r3, [r2, #12]
 222 00e0 D1E7     		b	.L13
 223              	.L26:
 196:/home/christoschristoforou/STM32Cube/Repository/STM32Cube_FW_F4_V1.27.0/Drivers/STM32F4xx_HAL_Driver/Src/stm32f4xx_hal_exti.c ****       assert_param(IS_EXTI_GPIO_PIN(linepos));
 224              		.loc 1 196 7 is_stmt 1 view .LVU61
 225 00e2 E368     		ldr	r3, [r4, #12]
 226 00e4 072B     		cmp	r3, #7
 227 00e6 15D8     		bhi	.L27
 228              	.L14:
 197:/home/christoschristoforou/STM32Cube/Repository/STM32Cube_FW_F4_V1.27.0/Drivers/STM32F4xx_HAL_Driver/Src/stm32f4xx_hal_exti.c **** 
 229              		.loc 1 197 7 view .LVU62
 230 00e8 16F0100F 		tst	r6, #16
 231 00ec 17D1     		bne	.L28
 232              	.L15:
 199:/home/christoschristoforou/STM32Cube/Repository/STM32Cube_FW_F4_V1.27.0/Drivers/STM32F4xx_HAL_Driver/Src/stm32f4xx_hal_exti.c ****       regval &= ~(SYSCFG_EXTICR1_EXTI0 << (SYSCFG_EXTICR1_EXTI1_Pos * (linepos & 0x03u)));
 233              		.loc 1 199 7 view .LVU63
 199:/home/christoschristoforou/STM32Cube/Repository/STM32Cube_FW_F4_V1.27.0/Drivers/STM32F4xx_HAL_Driver/Src/stm32f4xx_hal_exti.c ****       regval &= ~(SYSCFG_EXTICR1_EXTI0 << (SYSCFG_EXTICR1_EXTI1_Pos * (linepos & 0x03u)));
 234              		.loc 1 199 39 is_stmt 0 view .LVU64
 235 00ee BF08     		lsrs	r7, r7, #2
 236              	.LVL13:
 199:/home/christoschristoforou/STM32Cube/Repository/STM32Cube_FW_F4_V1.27.0/Drivers/STM32F4xx_HAL_Driver/Src/stm32f4xx_hal_exti.c ****       regval &= ~(SYSCFG_EXTICR1_EXTI0 << (SYSCFG_EXTICR1_EXTI1_Pos * (linepos & 0x03u)));
 237              		.loc 1 199 14 view .LVU65
 238 00f0 1849     		ldr	r1, .L29+8
 239 00f2 0237     		adds	r7, r7, #2
 240 00f4 51F82720 		ldr	r2, [r1, r7, lsl #2]
 241              	.LVL14:
 200:/home/christoschristoforou/STM32Cube/Repository/STM32Cube_FW_F4_V1.27.0/Drivers/STM32F4xx_HAL_Driver/Src/stm32f4xx_hal_exti.c ****       regval |= (pExtiConfig->GPIOSel << (SYSCFG_EXTICR1_EXTI1_Pos * (linepos & 0x03u)));
 242              		.loc 1 200 7 is_stmt 1 view .LVU66
 200:/home/christoschristoforou/STM32Cube/Repository/STM32Cube_FW_F4_V1.27.0/Drivers/STM32F4xx_HAL_Driver/Src/stm32f4xx_hal_exti.c ****       regval |= (pExtiConfig->GPIOSel << (SYSCFG_EXTICR1_EXTI1_Pos * (linepos & 0x03u)));
 243              		.loc 1 200 80 is_stmt 0 view .LVU67
 244 00f8 06F00306 		and	r6, r6, #3
 245              	.LVL15:
 200:/home/christoschristoforou/STM32Cube/Repository/STM32Cube_FW_F4_V1.27.0/Drivers/STM32F4xx_HAL_Driver/Src/stm32f4xx_hal_exti.c ****       regval |= (pExtiConfig->GPIOSel << (SYSCFG_EXTICR1_EXTI1_Pos * (linepos & 0x03u)));
 246              		.loc 1 200 69 view .LVU68
 247 00fc B600     		lsls	r6, r6, #2
 200:/home/christoschristoforou/STM32Cube/Repository/STM32Cube_FW_F4_V1.27.0/Drivers/STM32F4xx_HAL_Driver/Src/stm32f4xx_hal_exti.c ****       regval |= (pExtiConfig->GPIOSel << (SYSCFG_EXTICR1_EXTI1_Pos * (linepos & 0x03u)));
 248              		.loc 1 200 40 view .LVU69
 249 00fe 0F23     		movs	r3, #15
 250 0100 B340     		lsls	r3, r3, r6
 200:/home/christoschristoforou/STM32Cube/Repository/STM32Cube_FW_F4_V1.27.0/Drivers/STM32F4xx_HAL_Driver/Src/stm32f4xx_hal_exti.c ****       regval |= (pExtiConfig->GPIOSel << (SYSCFG_EXTICR1_EXTI1_Pos * (linepos & 0x03u)));
 251              		.loc 1 200 14 view .LVU70
 252 0102 22EA0302 		bic	r2, r2, r3
 253              	.LVL16:
 201:/home/christoschristoforou/STM32Cube/Repository/STM32Cube_FW_F4_V1.27.0/Drivers/STM32F4xx_HAL_Driver/Src/stm32f4xx_hal_exti.c ****       SYSCFG->EXTICR[linepos >> 2u] = regval;
 254              		.loc 1 201 7 is_stmt 1 view .LVU71
 201:/home/christoschristoforou/STM32Cube/Repository/STM32Cube_FW_F4_V1.27.0/Drivers/STM32F4xx_HAL_Driver/Src/stm32f4xx_hal_exti.c ****       SYSCFG->EXTICR[linepos >> 2u] = regval;
ARM GAS  /tmp/ccNY9AZA.s 			page 10


 255              		.loc 1 201 29 is_stmt 0 view .LVU72
 256 0106 E368     		ldr	r3, [r4, #12]
 201:/home/christoschristoforou/STM32Cube/Repository/STM32Cube_FW_F4_V1.27.0/Drivers/STM32F4xx_HAL_Driver/Src/stm32f4xx_hal_exti.c ****       SYSCFG->EXTICR[linepos >> 2u] = regval;
 257              		.loc 1 201 39 view .LVU73
 258 0108 03FA06F6 		lsl	r6, r3, r6
 201:/home/christoschristoforou/STM32Cube/Repository/STM32Cube_FW_F4_V1.27.0/Drivers/STM32F4xx_HAL_Driver/Src/stm32f4xx_hal_exti.c ****       SYSCFG->EXTICR[linepos >> 2u] = regval;
 259              		.loc 1 201 14 view .LVU74
 260 010c 1643     		orrs	r6, r6, r2
 261              	.LVL17:
 202:/home/christoschristoforou/STM32Cube/Repository/STM32Cube_FW_F4_V1.27.0/Drivers/STM32F4xx_HAL_Driver/Src/stm32f4xx_hal_exti.c ****     }
 262              		.loc 1 202 7 is_stmt 1 view .LVU75
 202:/home/christoschristoforou/STM32Cube/Repository/STM32Cube_FW_F4_V1.27.0/Drivers/STM32F4xx_HAL_Driver/Src/stm32f4xx_hal_exti.c ****     }
 263              		.loc 1 202 37 is_stmt 0 view .LVU76
 264 010e 41F82760 		str	r6, [r1, r7, lsl #2]
 265 0112 BEE7     		b	.L8
 266              	.LVL18:
 267              	.L27:
 196:/home/christoschristoforou/STM32Cube/Repository/STM32Cube_FW_F4_V1.27.0/Drivers/STM32F4xx_HAL_Driver/Src/stm32f4xx_hal_exti.c ****       assert_param(IS_EXTI_GPIO_PIN(linepos));
 268              		.loc 1 196 7 discriminator 1 view .LVU77
 269 0114 C421     		movs	r1, #196
 270 0116 0D48     		ldr	r0, .L29
 271 0118 FFF7FEFF 		bl	assert_failed
 272              	.LVL19:
 273 011c E4E7     		b	.L14
 274              	.L28:
 197:/home/christoschristoforou/STM32Cube/Repository/STM32Cube_FW_F4_V1.27.0/Drivers/STM32F4xx_HAL_Driver/Src/stm32f4xx_hal_exti.c **** 
 275              		.loc 1 197 7 discriminator 1 view .LVU78
 276 011e C521     		movs	r1, #197
 277 0120 0A48     		ldr	r0, .L29
 278 0122 FFF7FEFF 		bl	assert_failed
 279              	.LVL20:
 280 0126 E2E7     		b	.L15
 281              	.LVL21:
 282              	.L16:
 214:/home/christoschristoforou/STM32Cube/Repository/STM32Cube_FW_F4_V1.27.0/Drivers/STM32F4xx_HAL_Driver/Src/stm32f4xx_hal_exti.c ****   }
 283              		.loc 1 214 5 is_stmt 1 view .LVU79
 214:/home/christoschristoforou/STM32Cube/Repository/STM32Cube_FW_F4_V1.27.0/Drivers/STM32F4xx_HAL_Driver/Src/stm32f4xx_hal_exti.c ****   }
 284              		.loc 1 214 15 is_stmt 0 view .LVU80
 285 0128 094A     		ldr	r2, .L29+4
 286 012a 1368     		ldr	r3, [r2]
 287 012c 23EA0503 		bic	r3, r3, r5
 288 0130 1360     		str	r3, [r2]
 289 0132 B6E7     		b	.L17
 290              	.L18:
 225:/home/christoschristoforou/STM32Cube/Repository/STM32Cube_FW_F4_V1.27.0/Drivers/STM32F4xx_HAL_Driver/Src/stm32f4xx_hal_exti.c ****   }
 291              		.loc 1 225 5 is_stmt 1 view .LVU81
 225:/home/christoschristoforou/STM32Cube/Repository/STM32Cube_FW_F4_V1.27.0/Drivers/STM32F4xx_HAL_Driver/Src/stm32f4xx_hal_exti.c ****   }
 292              		.loc 1 225 15 is_stmt 0 view .LVU82
 293 0134 064A     		ldr	r2, .L29+4
 294 0136 5368     		ldr	r3, [r2, #4]
 295 0138 23EA0505 		bic	r5, r3, r5
 296              	.LVL22:
 225:/home/christoschristoforou/STM32Cube/Repository/STM32Cube_FW_F4_V1.27.0/Drivers/STM32F4xx_HAL_Driver/Src/stm32f4xx_hal_exti.c ****   }
 297              		.loc 1 225 15 view .LVU83
 298 013c 5560     		str	r5, [r2, #4]
 228:/home/christoschristoforou/STM32Cube/Repository/STM32Cube_FW_F4_V1.27.0/Drivers/STM32F4xx_HAL_Driver/Src/stm32f4xx_hal_exti.c **** }
 299              		.loc 1 228 10 view .LVU84
ARM GAS  /tmp/ccNY9AZA.s 			page 11


 300 013e 0020     		movs	r0, #0
 301 0140 B8E7     		b	.L2
 302              	.LVL23:
 303              	.L19:
 304              	.LCFI1:
 305              		.cfi_def_cfa_offset 0
 306              		.cfi_restore 3
 307              		.cfi_restore 4
 308              		.cfi_restore 5
 309              		.cfi_restore 6
 310              		.cfi_restore 7
 311              		.cfi_restore 14
 151:/home/christoschristoforou/STM32Cube/Repository/STM32Cube_FW_F4_V1.27.0/Drivers/STM32F4xx_HAL_Driver/Src/stm32f4xx_hal_exti.c ****   }
 312              		.loc 1 151 12 view .LVU85
 313 0142 0120     		movs	r0, #1
 314              	.LVL24:
 315              		.loc 1 229 1 view .LVU86
 316 0144 7047     		bx	lr
 317              	.LVL25:
 318              	.L20:
 319              	.LCFI2:
 320              		.cfi_def_cfa_offset 24
 321              		.cfi_offset 3, -24
 322              		.cfi_offset 4, -20
 323              		.cfi_offset 5, -16
 324              		.cfi_offset 6, -12
 325              		.cfi_offset 7, -8
 326              		.cfi_offset 14, -4
 151:/home/christoschristoforou/STM32Cube/Repository/STM32Cube_FW_F4_V1.27.0/Drivers/STM32F4xx_HAL_Driver/Src/stm32f4xx_hal_exti.c ****   }
 327              		.loc 1 151 12 view .LVU87
 328 0146 0120     		movs	r0, #1
 329              	.LVL26:
 151:/home/christoschristoforou/STM32Cube/Repository/STM32Cube_FW_F4_V1.27.0/Drivers/STM32F4xx_HAL_Driver/Src/stm32f4xx_hal_exti.c ****   }
 330              		.loc 1 151 12 view .LVU88
 331 0148 B4E7     		b	.L2
 332              	.L30:
 333 014a 00BF     		.align	2
 334              	.L29:
 335 014c 00000000 		.word	.LC0
 336 0150 003C0140 		.word	1073822720
 337 0154 00380140 		.word	1073821696
 338              		.cfi_endproc
 339              	.LFE130:
 341              		.section	.text.HAL_EXTI_GetConfigLine,"ax",%progbits
 342              		.align	1
 343              		.global	HAL_EXTI_GetConfigLine
 344              		.syntax unified
 345              		.thumb
 346              		.thumb_func
 347              		.fpu fpv4-sp-d16
 349              	HAL_EXTI_GetConfigLine:
 350              	.LVL27:
 351              	.LFB131:
 230:/home/christoschristoforou/STM32Cube/Repository/STM32Cube_FW_F4_V1.27.0/Drivers/STM32F4xx_HAL_Driver/Src/stm32f4xx_hal_exti.c **** 
 231:/home/christoschristoforou/STM32Cube/Repository/STM32Cube_FW_F4_V1.27.0/Drivers/STM32F4xx_HAL_Driver/Src/stm32f4xx_hal_exti.c **** /**
 232:/home/christoschristoforou/STM32Cube/Repository/STM32Cube_FW_F4_V1.27.0/Drivers/STM32F4xx_HAL_Driver/Src/stm32f4xx_hal_exti.c ****   * @brief  Get configuration of a dedicated Exti line.
 233:/home/christoschristoforou/STM32Cube/Repository/STM32Cube_FW_F4_V1.27.0/Drivers/STM32F4xx_HAL_Driver/Src/stm32f4xx_hal_exti.c ****   * @param  hexti Exti handle.
ARM GAS  /tmp/ccNY9AZA.s 			page 12


 234:/home/christoschristoforou/STM32Cube/Repository/STM32Cube_FW_F4_V1.27.0/Drivers/STM32F4xx_HAL_Driver/Src/stm32f4xx_hal_exti.c ****   * @param  pExtiConfig Pointer on structure to store Exti configuration.
 235:/home/christoschristoforou/STM32Cube/Repository/STM32Cube_FW_F4_V1.27.0/Drivers/STM32F4xx_HAL_Driver/Src/stm32f4xx_hal_exti.c ****   * @retval HAL Status.
 236:/home/christoschristoforou/STM32Cube/Repository/STM32Cube_FW_F4_V1.27.0/Drivers/STM32F4xx_HAL_Driver/Src/stm32f4xx_hal_exti.c ****   */
 237:/home/christoschristoforou/STM32Cube/Repository/STM32Cube_FW_F4_V1.27.0/Drivers/STM32F4xx_HAL_Driver/Src/stm32f4xx_hal_exti.c **** HAL_StatusTypeDef HAL_EXTI_GetConfigLine(EXTI_HandleTypeDef *hexti, EXTI_ConfigTypeDef *pExtiConfig
 238:/home/christoschristoforou/STM32Cube/Repository/STM32Cube_FW_F4_V1.27.0/Drivers/STM32F4xx_HAL_Driver/Src/stm32f4xx_hal_exti.c **** {
 352              		.loc 1 238 1 is_stmt 1 view -0
 353              		.cfi_startproc
 354              		@ args = 0, pretend = 0, frame = 0
 355              		@ frame_needed = 0, uses_anonymous_args = 0
 239:/home/christoschristoforou/STM32Cube/Repository/STM32Cube_FW_F4_V1.27.0/Drivers/STM32F4xx_HAL_Driver/Src/stm32f4xx_hal_exti.c ****   uint32_t regval;
 356              		.loc 1 239 3 view .LVU90
 240:/home/christoschristoforou/STM32Cube/Repository/STM32Cube_FW_F4_V1.27.0/Drivers/STM32F4xx_HAL_Driver/Src/stm32f4xx_hal_exti.c ****   uint32_t linepos;
 357              		.loc 1 240 3 view .LVU91
 241:/home/christoschristoforou/STM32Cube/Repository/STM32Cube_FW_F4_V1.27.0/Drivers/STM32F4xx_HAL_Driver/Src/stm32f4xx_hal_exti.c ****   uint32_t maskline;
 358              		.loc 1 241 3 view .LVU92
 242:/home/christoschristoforou/STM32Cube/Repository/STM32Cube_FW_F4_V1.27.0/Drivers/STM32F4xx_HAL_Driver/Src/stm32f4xx_hal_exti.c **** 
 243:/home/christoschristoforou/STM32Cube/Repository/STM32Cube_FW_F4_V1.27.0/Drivers/STM32F4xx_HAL_Driver/Src/stm32f4xx_hal_exti.c ****   /* Check null pointer */
 244:/home/christoschristoforou/STM32Cube/Repository/STM32Cube_FW_F4_V1.27.0/Drivers/STM32F4xx_HAL_Driver/Src/stm32f4xx_hal_exti.c ****   if ((hexti == NULL) || (pExtiConfig == NULL))
 359              		.loc 1 244 3 view .LVU93
 360              		.loc 1 244 6 is_stmt 0 view .LVU94
 361 0000 0028     		cmp	r0, #0
 362 0002 66D0     		beq	.L42
 238:/home/christoschristoforou/STM32Cube/Repository/STM32Cube_FW_F4_V1.27.0/Drivers/STM32F4xx_HAL_Driver/Src/stm32f4xx_hal_exti.c ****   uint32_t regval;
 363              		.loc 1 238 1 discriminator 1 view .LVU95
 364 0004 38B5     		push	{r3, r4, r5, lr}
 365              	.LCFI3:
 366              		.cfi_def_cfa_offset 16
 367              		.cfi_offset 3, -16
 368              		.cfi_offset 4, -12
 369              		.cfi_offset 5, -8
 370              		.cfi_offset 14, -4
 371 0006 0C46     		mov	r4, r1
 372 0008 0546     		mov	r5, r0
 373              		.loc 1 244 23 discriminator 1 view .LVU96
 374 000a 0029     		cmp	r1, #0
 375 000c 63D0     		beq	.L43
 245:/home/christoschristoforou/STM32Cube/Repository/STM32Cube_FW_F4_V1.27.0/Drivers/STM32F4xx_HAL_Driver/Src/stm32f4xx_hal_exti.c ****   {
 246:/home/christoschristoforou/STM32Cube/Repository/STM32Cube_FW_F4_V1.27.0/Drivers/STM32F4xx_HAL_Driver/Src/stm32f4xx_hal_exti.c ****     return HAL_ERROR;
 247:/home/christoschristoforou/STM32Cube/Repository/STM32Cube_FW_F4_V1.27.0/Drivers/STM32F4xx_HAL_Driver/Src/stm32f4xx_hal_exti.c ****   }
 248:/home/christoschristoforou/STM32Cube/Repository/STM32Cube_FW_F4_V1.27.0/Drivers/STM32F4xx_HAL_Driver/Src/stm32f4xx_hal_exti.c **** 
 249:/home/christoschristoforou/STM32Cube/Repository/STM32Cube_FW_F4_V1.27.0/Drivers/STM32F4xx_HAL_Driver/Src/stm32f4xx_hal_exti.c ****   /* Check the parameter */
 250:/home/christoschristoforou/STM32Cube/Repository/STM32Cube_FW_F4_V1.27.0/Drivers/STM32F4xx_HAL_Driver/Src/stm32f4xx_hal_exti.c ****   assert_param(IS_EXTI_LINE(hexti->Line));
 376              		.loc 1 250 3 is_stmt 1 view .LVU97
 377 000e 0268     		ldr	r2, [r0]
 378 0010 22F0C063 		bic	r3, r2, #100663296
 379 0014 23F01F03 		bic	r3, r3, #31
 380 0018 3BB9     		cbnz	r3, .L33
 381              		.loc 1 250 3 is_stmt 0 discriminator 2 view .LVU98
 382 001a 02F0C063 		and	r3, r2, #100663296
 383 001e B3F1007F 		cmp	r3, #33554432
 384 0022 35D0     		beq	.L34
 385              		.loc 1 250 3 discriminator 3 view .LVU99
 386 0024 B3F1C06F 		cmp	r3, #100663296
 387 0028 32D0     		beq	.L34
 388              	.L33:
 389              		.loc 1 250 3 discriminator 7 view .LVU100
 390 002a FA21     		movs	r1, #250
ARM GAS  /tmp/ccNY9AZA.s 			page 13


 391              	.LVL28:
 392              		.loc 1 250 3 discriminator 7 view .LVU101
 393 002c 2C48     		ldr	r0, .L52
 394              	.LVL29:
 395              		.loc 1 250 3 discriminator 7 view .LVU102
 396 002e FFF7FEFF 		bl	assert_failed
 397              	.LVL30:
 398              	.L35:
 251:/home/christoschristoforou/STM32Cube/Repository/STM32Cube_FW_F4_V1.27.0/Drivers/STM32F4xx_HAL_Driver/Src/stm32f4xx_hal_exti.c **** 
 252:/home/christoschristoforou/STM32Cube/Repository/STM32Cube_FW_F4_V1.27.0/Drivers/STM32F4xx_HAL_Driver/Src/stm32f4xx_hal_exti.c ****   /* Store handle line number to configuration structure */
 253:/home/christoschristoforou/STM32Cube/Repository/STM32Cube_FW_F4_V1.27.0/Drivers/STM32F4xx_HAL_Driver/Src/stm32f4xx_hal_exti.c ****   pExtiConfig->Line = hexti->Line;
 399              		.loc 1 253 3 is_stmt 1 view .LVU103
 400              		.loc 1 253 28 is_stmt 0 view .LVU104
 401 0032 2968     		ldr	r1, [r5]
 402              		.loc 1 253 21 view .LVU105
 403 0034 2160     		str	r1, [r4]
 254:/home/christoschristoforou/STM32Cube/Repository/STM32Cube_FW_F4_V1.27.0/Drivers/STM32F4xx_HAL_Driver/Src/stm32f4xx_hal_exti.c **** 
 255:/home/christoschristoforou/STM32Cube/Repository/STM32Cube_FW_F4_V1.27.0/Drivers/STM32F4xx_HAL_Driver/Src/stm32f4xx_hal_exti.c ****   /* Compute line mask */
 256:/home/christoschristoforou/STM32Cube/Repository/STM32Cube_FW_F4_V1.27.0/Drivers/STM32F4xx_HAL_Driver/Src/stm32f4xx_hal_exti.c ****   linepos = (pExtiConfig->Line & EXTI_PIN_MASK);
 404              		.loc 1 256 3 is_stmt 1 view .LVU106
 405              		.loc 1 256 11 is_stmt 0 view .LVU107
 406 0036 01F01F05 		and	r5, r1, #31
 407              	.LVL31:
 257:/home/christoschristoforou/STM32Cube/Repository/STM32Cube_FW_F4_V1.27.0/Drivers/STM32F4xx_HAL_Driver/Src/stm32f4xx_hal_exti.c ****   maskline = (1uL << linepos);
 408              		.loc 1 257 3 is_stmt 1 view .LVU108
 409              		.loc 1 257 12 is_stmt 0 view .LVU109
 410 003a 0123     		movs	r3, #1
 411 003c AB40     		lsls	r3, r3, r5
 412              	.LVL32:
 258:/home/christoschristoforou/STM32Cube/Repository/STM32Cube_FW_F4_V1.27.0/Drivers/STM32F4xx_HAL_Driver/Src/stm32f4xx_hal_exti.c **** 
 259:/home/christoschristoforou/STM32Cube/Repository/STM32Cube_FW_F4_V1.27.0/Drivers/STM32F4xx_HAL_Driver/Src/stm32f4xx_hal_exti.c ****   /* 1] Get core mode : interrupt */
 260:/home/christoschristoforou/STM32Cube/Repository/STM32Cube_FW_F4_V1.27.0/Drivers/STM32F4xx_HAL_Driver/Src/stm32f4xx_hal_exti.c **** 
 261:/home/christoschristoforou/STM32Cube/Repository/STM32Cube_FW_F4_V1.27.0/Drivers/STM32F4xx_HAL_Driver/Src/stm32f4xx_hal_exti.c ****   /* Check if selected line is enable */
 262:/home/christoschristoforou/STM32Cube/Repository/STM32Cube_FW_F4_V1.27.0/Drivers/STM32F4xx_HAL_Driver/Src/stm32f4xx_hal_exti.c ****   if ((EXTI->IMR & maskline) != 0x00u)
 413              		.loc 1 262 3 is_stmt 1 view .LVU110
 414              		.loc 1 262 12 is_stmt 0 view .LVU111
 415 003e 294A     		ldr	r2, .L52+4
 416 0040 1268     		ldr	r2, [r2]
 417              		.loc 1 262 6 view .LVU112
 418 0042 1A42     		tst	r2, r3
 419 0044 29D0     		beq	.L36
 263:/home/christoschristoforou/STM32Cube/Repository/STM32Cube_FW_F4_V1.27.0/Drivers/STM32F4xx_HAL_Driver/Src/stm32f4xx_hal_exti.c ****   {
 264:/home/christoschristoforou/STM32Cube/Repository/STM32Cube_FW_F4_V1.27.0/Drivers/STM32F4xx_HAL_Driver/Src/stm32f4xx_hal_exti.c ****     pExtiConfig->Mode = EXTI_MODE_INTERRUPT;
 420              		.loc 1 264 5 is_stmt 1 view .LVU113
 421              		.loc 1 264 23 is_stmt 0 view .LVU114
 422 0046 0122     		movs	r2, #1
 423 0048 6260     		str	r2, [r4, #4]
 424              	.L37:
 265:/home/christoschristoforou/STM32Cube/Repository/STM32Cube_FW_F4_V1.27.0/Drivers/STM32F4xx_HAL_Driver/Src/stm32f4xx_hal_exti.c ****   }
 266:/home/christoschristoforou/STM32Cube/Repository/STM32Cube_FW_F4_V1.27.0/Drivers/STM32F4xx_HAL_Driver/Src/stm32f4xx_hal_exti.c ****   else
 267:/home/christoschristoforou/STM32Cube/Repository/STM32Cube_FW_F4_V1.27.0/Drivers/STM32F4xx_HAL_Driver/Src/stm32f4xx_hal_exti.c ****   {
 268:/home/christoschristoforou/STM32Cube/Repository/STM32Cube_FW_F4_V1.27.0/Drivers/STM32F4xx_HAL_Driver/Src/stm32f4xx_hal_exti.c ****     pExtiConfig->Mode = EXTI_MODE_NONE;
 269:/home/christoschristoforou/STM32Cube/Repository/STM32Cube_FW_F4_V1.27.0/Drivers/STM32F4xx_HAL_Driver/Src/stm32f4xx_hal_exti.c ****   }
 270:/home/christoschristoforou/STM32Cube/Repository/STM32Cube_FW_F4_V1.27.0/Drivers/STM32F4xx_HAL_Driver/Src/stm32f4xx_hal_exti.c **** 
 271:/home/christoschristoforou/STM32Cube/Repository/STM32Cube_FW_F4_V1.27.0/Drivers/STM32F4xx_HAL_Driver/Src/stm32f4xx_hal_exti.c ****   /* Get event mode */
 272:/home/christoschristoforou/STM32Cube/Repository/STM32Cube_FW_F4_V1.27.0/Drivers/STM32F4xx_HAL_Driver/Src/stm32f4xx_hal_exti.c ****   /* Check if selected line is enable */
 273:/home/christoschristoforou/STM32Cube/Repository/STM32Cube_FW_F4_V1.27.0/Drivers/STM32F4xx_HAL_Driver/Src/stm32f4xx_hal_exti.c ****   if ((EXTI->EMR & maskline) != 0x00u)
ARM GAS  /tmp/ccNY9AZA.s 			page 14


 425              		.loc 1 273 3 is_stmt 1 view .LVU115
 426              		.loc 1 273 12 is_stmt 0 view .LVU116
 427 004a 264A     		ldr	r2, .L52+4
 428 004c 5268     		ldr	r2, [r2, #4]
 429              		.loc 1 273 6 view .LVU117
 430 004e 1A42     		tst	r2, r3
 431 0050 03D0     		beq	.L38
 274:/home/christoschristoforou/STM32Cube/Repository/STM32Cube_FW_F4_V1.27.0/Drivers/STM32F4xx_HAL_Driver/Src/stm32f4xx_hal_exti.c ****   {
 275:/home/christoschristoforou/STM32Cube/Repository/STM32Cube_FW_F4_V1.27.0/Drivers/STM32F4xx_HAL_Driver/Src/stm32f4xx_hal_exti.c ****     pExtiConfig->Mode |= EXTI_MODE_EVENT;
 432              		.loc 1 275 5 is_stmt 1 view .LVU118
 433              		.loc 1 275 23 is_stmt 0 view .LVU119
 434 0052 6268     		ldr	r2, [r4, #4]
 435 0054 42F00202 		orr	r2, r2, #2
 436 0058 6260     		str	r2, [r4, #4]
 437              	.L38:
 276:/home/christoschristoforou/STM32Cube/Repository/STM32Cube_FW_F4_V1.27.0/Drivers/STM32F4xx_HAL_Driver/Src/stm32f4xx_hal_exti.c ****   }
 277:/home/christoschristoforou/STM32Cube/Repository/STM32Cube_FW_F4_V1.27.0/Drivers/STM32F4xx_HAL_Driver/Src/stm32f4xx_hal_exti.c **** 
 278:/home/christoschristoforou/STM32Cube/Repository/STM32Cube_FW_F4_V1.27.0/Drivers/STM32F4xx_HAL_Driver/Src/stm32f4xx_hal_exti.c ****   /* Get default Trigger and GPIOSel configuration */
 279:/home/christoschristoforou/STM32Cube/Repository/STM32Cube_FW_F4_V1.27.0/Drivers/STM32F4xx_HAL_Driver/Src/stm32f4xx_hal_exti.c ****   pExtiConfig->Trigger = EXTI_TRIGGER_NONE;
 438              		.loc 1 279 3 is_stmt 1 view .LVU120
 439              		.loc 1 279 24 is_stmt 0 view .LVU121
 440 005a 0022     		movs	r2, #0
 441 005c A260     		str	r2, [r4, #8]
 280:/home/christoschristoforou/STM32Cube/Repository/STM32Cube_FW_F4_V1.27.0/Drivers/STM32F4xx_HAL_Driver/Src/stm32f4xx_hal_exti.c ****   pExtiConfig->GPIOSel = 0x00u;
 442              		.loc 1 280 3 is_stmt 1 view .LVU122
 443              		.loc 1 280 24 is_stmt 0 view .LVU123
 444 005e E260     		str	r2, [r4, #12]
 281:/home/christoschristoforou/STM32Cube/Repository/STM32Cube_FW_F4_V1.27.0/Drivers/STM32F4xx_HAL_Driver/Src/stm32f4xx_hal_exti.c **** 
 282:/home/christoschristoforou/STM32Cube/Repository/STM32Cube_FW_F4_V1.27.0/Drivers/STM32F4xx_HAL_Driver/Src/stm32f4xx_hal_exti.c ****   /* 2] Get trigger for configurable lines : rising */
 283:/home/christoschristoforou/STM32Cube/Repository/STM32Cube_FW_F4_V1.27.0/Drivers/STM32F4xx_HAL_Driver/Src/stm32f4xx_hal_exti.c ****   if ((pExtiConfig->Line & EXTI_CONFIG) != 0x00u)
 445              		.loc 1 283 3 is_stmt 1 view .LVU124
 446              		.loc 1 283 6 is_stmt 0 view .LVU125
 447 0060 11F0007F 		tst	r1, #33554432
 448 0064 39D0     		beq	.L44
 284:/home/christoschristoforou/STM32Cube/Repository/STM32Cube_FW_F4_V1.27.0/Drivers/STM32F4xx_HAL_Driver/Src/stm32f4xx_hal_exti.c ****   {
 285:/home/christoschristoforou/STM32Cube/Repository/STM32Cube_FW_F4_V1.27.0/Drivers/STM32F4xx_HAL_Driver/Src/stm32f4xx_hal_exti.c ****     /* Check if configuration of selected line is enable */
 286:/home/christoschristoforou/STM32Cube/Repository/STM32Cube_FW_F4_V1.27.0/Drivers/STM32F4xx_HAL_Driver/Src/stm32f4xx_hal_exti.c ****     if ((EXTI->RTSR & maskline) != 0x00u)
 449              		.loc 1 286 5 is_stmt 1 view .LVU126
 450              		.loc 1 286 14 is_stmt 0 view .LVU127
 451 0066 1F4A     		ldr	r2, .L52+4
 452 0068 9268     		ldr	r2, [r2, #8]
 453              		.loc 1 286 8 view .LVU128
 454 006a 1A42     		tst	r2, r3
 455 006c 01D0     		beq	.L39
 287:/home/christoschristoforou/STM32Cube/Repository/STM32Cube_FW_F4_V1.27.0/Drivers/STM32F4xx_HAL_Driver/Src/stm32f4xx_hal_exti.c ****     {
 288:/home/christoschristoforou/STM32Cube/Repository/STM32Cube_FW_F4_V1.27.0/Drivers/STM32F4xx_HAL_Driver/Src/stm32f4xx_hal_exti.c ****       pExtiConfig->Trigger = EXTI_TRIGGER_RISING;
 456              		.loc 1 288 7 is_stmt 1 view .LVU129
 457              		.loc 1 288 28 is_stmt 0 view .LVU130
 458 006e 0122     		movs	r2, #1
 459 0070 A260     		str	r2, [r4, #8]
 460              	.L39:
 289:/home/christoschristoforou/STM32Cube/Repository/STM32Cube_FW_F4_V1.27.0/Drivers/STM32F4xx_HAL_Driver/Src/stm32f4xx_hal_exti.c ****     }
 290:/home/christoschristoforou/STM32Cube/Repository/STM32Cube_FW_F4_V1.27.0/Drivers/STM32F4xx_HAL_Driver/Src/stm32f4xx_hal_exti.c **** 
 291:/home/christoschristoforou/STM32Cube/Repository/STM32Cube_FW_F4_V1.27.0/Drivers/STM32F4xx_HAL_Driver/Src/stm32f4xx_hal_exti.c ****     /* Get falling configuration */
 292:/home/christoschristoforou/STM32Cube/Repository/STM32Cube_FW_F4_V1.27.0/Drivers/STM32F4xx_HAL_Driver/Src/stm32f4xx_hal_exti.c ****     /* Check if configuration of selected line is enable */
 293:/home/christoschristoforou/STM32Cube/Repository/STM32Cube_FW_F4_V1.27.0/Drivers/STM32F4xx_HAL_Driver/Src/stm32f4xx_hal_exti.c ****     if ((EXTI->FTSR & maskline) != 0x00u)
 461              		.loc 1 293 5 is_stmt 1 view .LVU131
ARM GAS  /tmp/ccNY9AZA.s 			page 15


 462              		.loc 1 293 14 is_stmt 0 view .LVU132
 463 0072 1C4A     		ldr	r2, .L52+4
 464 0074 D268     		ldr	r2, [r2, #12]
 465              		.loc 1 293 8 view .LVU133
 466 0076 1A42     		tst	r2, r3
 467 0078 03D0     		beq	.L40
 294:/home/christoschristoforou/STM32Cube/Repository/STM32Cube_FW_F4_V1.27.0/Drivers/STM32F4xx_HAL_Driver/Src/stm32f4xx_hal_exti.c ****     {
 295:/home/christoschristoforou/STM32Cube/Repository/STM32Cube_FW_F4_V1.27.0/Drivers/STM32F4xx_HAL_Driver/Src/stm32f4xx_hal_exti.c ****       pExtiConfig->Trigger |= EXTI_TRIGGER_FALLING;
 468              		.loc 1 295 7 is_stmt 1 view .LVU134
 469              		.loc 1 295 28 is_stmt 0 view .LVU135
 470 007a A368     		ldr	r3, [r4, #8]
 471              	.LVL33:
 472              		.loc 1 295 28 view .LVU136
 473 007c 43F00203 		orr	r3, r3, #2
 474 0080 A360     		str	r3, [r4, #8]
 475              	.L40:
 296:/home/christoschristoforou/STM32Cube/Repository/STM32Cube_FW_F4_V1.27.0/Drivers/STM32F4xx_HAL_Driver/Src/stm32f4xx_hal_exti.c ****     }
 297:/home/christoschristoforou/STM32Cube/Repository/STM32Cube_FW_F4_V1.27.0/Drivers/STM32F4xx_HAL_Driver/Src/stm32f4xx_hal_exti.c **** 
 298:/home/christoschristoforou/STM32Cube/Repository/STM32Cube_FW_F4_V1.27.0/Drivers/STM32F4xx_HAL_Driver/Src/stm32f4xx_hal_exti.c ****     /* Get Gpio port selection for gpio lines */
 299:/home/christoschristoforou/STM32Cube/Repository/STM32Cube_FW_F4_V1.27.0/Drivers/STM32F4xx_HAL_Driver/Src/stm32f4xx_hal_exti.c ****     if ((pExtiConfig->Line & EXTI_GPIO) == EXTI_GPIO)
 476              		.loc 1 299 5 is_stmt 1 view .LVU137
 477              		.loc 1 299 28 is_stmt 0 view .LVU138
 478 0082 01F0C063 		and	r3, r1, #100663296
 479              		.loc 1 299 8 view .LVU139
 480 0086 B3F1C06F 		cmp	r3, #100663296
 481 008a 09D0     		beq	.L50
 300:/home/christoschristoforou/STM32Cube/Repository/STM32Cube_FW_F4_V1.27.0/Drivers/STM32F4xx_HAL_Driver/Src/stm32f4xx_hal_exti.c ****     {
 301:/home/christoschristoforou/STM32Cube/Repository/STM32Cube_FW_F4_V1.27.0/Drivers/STM32F4xx_HAL_Driver/Src/stm32f4xx_hal_exti.c ****       assert_param(IS_EXTI_GPIO_PIN(linepos));
 302:/home/christoschristoforou/STM32Cube/Repository/STM32Cube_FW_F4_V1.27.0/Drivers/STM32F4xx_HAL_Driver/Src/stm32f4xx_hal_exti.c **** 
 303:/home/christoschristoforou/STM32Cube/Repository/STM32Cube_FW_F4_V1.27.0/Drivers/STM32F4xx_HAL_Driver/Src/stm32f4xx_hal_exti.c ****       regval = (SYSCFG->EXTICR[linepos >> 2u] << 16u );
 304:/home/christoschristoforou/STM32Cube/Repository/STM32Cube_FW_F4_V1.27.0/Drivers/STM32F4xx_HAL_Driver/Src/stm32f4xx_hal_exti.c ****       pExtiConfig->GPIOSel = ((regval << (SYSCFG_EXTICR1_EXTI1_Pos * (3uL - (linepos & 0x03u)))) >>
 305:/home/christoschristoforou/STM32Cube/Repository/STM32Cube_FW_F4_V1.27.0/Drivers/STM32F4xx_HAL_Driver/Src/stm32f4xx_hal_exti.c ****     }
 306:/home/christoschristoforou/STM32Cube/Repository/STM32Cube_FW_F4_V1.27.0/Drivers/STM32F4xx_HAL_Driver/Src/stm32f4xx_hal_exti.c ****   }
 307:/home/christoschristoforou/STM32Cube/Repository/STM32Cube_FW_F4_V1.27.0/Drivers/STM32F4xx_HAL_Driver/Src/stm32f4xx_hal_exti.c **** 
 308:/home/christoschristoforou/STM32Cube/Repository/STM32Cube_FW_F4_V1.27.0/Drivers/STM32F4xx_HAL_Driver/Src/stm32f4xx_hal_exti.c ****   return HAL_OK;
 482              		.loc 1 308 10 view .LVU140
 483 008c 0020     		movs	r0, #0
 484 008e 25E0     		b	.L32
 485              	.LVL34:
 486              	.L34:
 250:/home/christoschristoforou/STM32Cube/Repository/STM32Cube_FW_F4_V1.27.0/Drivers/STM32F4xx_HAL_Driver/Src/stm32f4xx_hal_exti.c **** 
 487              		.loc 1 250 3 discriminator 6 view .LVU141
 488 0090 02F01F02 		and	r2, r2, #31
 489 0094 162A     		cmp	r2, #22
 490 0096 CCD9     		bls	.L35
 491 0098 C7E7     		b	.L33
 492              	.LVL35:
 493              	.L36:
 268:/home/christoschristoforou/STM32Cube/Repository/STM32Cube_FW_F4_V1.27.0/Drivers/STM32F4xx_HAL_Driver/Src/stm32f4xx_hal_exti.c ****   }
 494              		.loc 1 268 5 is_stmt 1 view .LVU142
 268:/home/christoschristoforou/STM32Cube/Repository/STM32Cube_FW_F4_V1.27.0/Drivers/STM32F4xx_HAL_Driver/Src/stm32f4xx_hal_exti.c ****   }
 495              		.loc 1 268 23 is_stmt 0 view .LVU143
 496 009a 0022     		movs	r2, #0
 497 009c 6260     		str	r2, [r4, #4]
 498 009e D4E7     		b	.L37
 499              	.LVL36:
 500              	.L50:
ARM GAS  /tmp/ccNY9AZA.s 			page 16


 301:/home/christoschristoforou/STM32Cube/Repository/STM32Cube_FW_F4_V1.27.0/Drivers/STM32F4xx_HAL_Driver/Src/stm32f4xx_hal_exti.c **** 
 501              		.loc 1 301 7 is_stmt 1 view .LVU144
 502 00a0 11F0100F 		tst	r1, #16
 503 00a4 0FD1     		bne	.L51
 504              	.L41:
 303:/home/christoschristoforou/STM32Cube/Repository/STM32Cube_FW_F4_V1.27.0/Drivers/STM32F4xx_HAL_Driver/Src/stm32f4xx_hal_exti.c ****       pExtiConfig->GPIOSel = ((regval << (SYSCFG_EXTICR1_EXTI1_Pos * (3uL - (linepos & 0x03u)))) >>
 505              		.loc 1 303 7 view .LVU145
 303:/home/christoschristoforou/STM32Cube/Repository/STM32Cube_FW_F4_V1.27.0/Drivers/STM32F4xx_HAL_Driver/Src/stm32f4xx_hal_exti.c ****       pExtiConfig->GPIOSel = ((regval << (SYSCFG_EXTICR1_EXTI1_Pos * (3uL - (linepos & 0x03u)))) >>
 506              		.loc 1 303 40 is_stmt 0 view .LVU146
 507 00a6 AB08     		lsrs	r3, r5, #2
 303:/home/christoschristoforou/STM32Cube/Repository/STM32Cube_FW_F4_V1.27.0/Drivers/STM32F4xx_HAL_Driver/Src/stm32f4xx_hal_exti.c ****       pExtiConfig->GPIOSel = ((regval << (SYSCFG_EXTICR1_EXTI1_Pos * (3uL - (linepos & 0x03u)))) >>
 508              		.loc 1 303 31 view .LVU147
 509 00a8 0233     		adds	r3, r3, #2
 510 00aa 0F4A     		ldr	r2, .L52+8
 511 00ac 52F82330 		ldr	r3, [r2, r3, lsl #2]
 303:/home/christoschristoforou/STM32Cube/Repository/STM32Cube_FW_F4_V1.27.0/Drivers/STM32F4xx_HAL_Driver/Src/stm32f4xx_hal_exti.c ****       pExtiConfig->GPIOSel = ((regval << (SYSCFG_EXTICR1_EXTI1_Pos * (3uL - (linepos & 0x03u)))) >>
 512              		.loc 1 303 14 view .LVU148
 513 00b0 1B04     		lsls	r3, r3, #16
 514              	.LVL37:
 304:/home/christoschristoforou/STM32Cube/Repository/STM32Cube_FW_F4_V1.27.0/Drivers/STM32F4xx_HAL_Driver/Src/stm32f4xx_hal_exti.c ****     }
 515              		.loc 1 304 7 is_stmt 1 view .LVU149
 304:/home/christoschristoforou/STM32Cube/Repository/STM32Cube_FW_F4_V1.27.0/Drivers/STM32F4xx_HAL_Driver/Src/stm32f4xx_hal_exti.c ****     }
 516              		.loc 1 304 75 is_stmt 0 view .LVU150
 517 00b2 ED43     		mvns	r5, r5
 518              	.LVL38:
 304:/home/christoschristoforou/STM32Cube/Repository/STM32Cube_FW_F4_V1.27.0/Drivers/STM32F4xx_HAL_Driver/Src/stm32f4xx_hal_exti.c ****     }
 519              		.loc 1 304 75 view .LVU151
 520 00b4 05F00305 		and	r5, r5, #3
 521              	.LVL39:
 304:/home/christoschristoforou/STM32Cube/Repository/STM32Cube_FW_F4_V1.27.0/Drivers/STM32F4xx_HAL_Driver/Src/stm32f4xx_hal_exti.c ****     }
 522              		.loc 1 304 68 view .LVU152
 523 00b8 AD00     		lsls	r5, r5, #2
 304:/home/christoschristoforou/STM32Cube/Repository/STM32Cube_FW_F4_V1.27.0/Drivers/STM32F4xx_HAL_Driver/Src/stm32f4xx_hal_exti.c ****     }
 524              		.loc 1 304 39 view .LVU153
 525 00ba 03FA05F5 		lsl	r5, r3, r5
 304:/home/christoschristoforou/STM32Cube/Repository/STM32Cube_FW_F4_V1.27.0/Drivers/STM32F4xx_HAL_Driver/Src/stm32f4xx_hal_exti.c ****     }
 526              		.loc 1 304 98 view .LVU154
 527 00be 2D0F     		lsrs	r5, r5, #28
 304:/home/christoschristoforou/STM32Cube/Repository/STM32Cube_FW_F4_V1.27.0/Drivers/STM32F4xx_HAL_Driver/Src/stm32f4xx_hal_exti.c ****     }
 528              		.loc 1 304 28 view .LVU155
 529 00c0 E560     		str	r5, [r4, #12]
 530              		.loc 1 308 10 view .LVU156
 531 00c2 0020     		movs	r0, #0
 532 00c4 0AE0     		b	.L32
 533              	.LVL40:
 534              	.L51:
 301:/home/christoschristoforou/STM32Cube/Repository/STM32Cube_FW_F4_V1.27.0/Drivers/STM32F4xx_HAL_Driver/Src/stm32f4xx_hal_exti.c **** 
 535              		.loc 1 301 7 discriminator 1 view .LVU157
 536 00c6 40F22D11 		movw	r1, #301
 537 00ca 0548     		ldr	r0, .L52
 538 00cc FFF7FEFF 		bl	assert_failed
 539              	.LVL41:
 540 00d0 E9E7     		b	.L41
 541              	.LVL42:
 542              	.L42:
 543              	.LCFI4:
 544              		.cfi_def_cfa_offset 0
ARM GAS  /tmp/ccNY9AZA.s 			page 17


 545              		.cfi_restore 3
 546              		.cfi_restore 4
 547              		.cfi_restore 5
 548              		.cfi_restore 14
 246:/home/christoschristoforou/STM32Cube/Repository/STM32Cube_FW_F4_V1.27.0/Drivers/STM32F4xx_HAL_Driver/Src/stm32f4xx_hal_exti.c ****   }
 549              		.loc 1 246 12 view .LVU158
 550 00d2 0120     		movs	r0, #1
 551              	.LVL43:
 309:/home/christoschristoforou/STM32Cube/Repository/STM32Cube_FW_F4_V1.27.0/Drivers/STM32F4xx_HAL_Driver/Src/stm32f4xx_hal_exti.c **** }
 552              		.loc 1 309 1 view .LVU159
 553 00d4 7047     		bx	lr
 554              	.LVL44:
 555              	.L43:
 556              	.LCFI5:
 557              		.cfi_def_cfa_offset 16
 558              		.cfi_offset 3, -16
 559              		.cfi_offset 4, -12
 560              		.cfi_offset 5, -8
 561              		.cfi_offset 14, -4
 246:/home/christoschristoforou/STM32Cube/Repository/STM32Cube_FW_F4_V1.27.0/Drivers/STM32F4xx_HAL_Driver/Src/stm32f4xx_hal_exti.c ****   }
 562              		.loc 1 246 12 view .LVU160
 563 00d6 0120     		movs	r0, #1
 564              	.LVL45:
 246:/home/christoschristoforou/STM32Cube/Repository/STM32Cube_FW_F4_V1.27.0/Drivers/STM32F4xx_HAL_Driver/Src/stm32f4xx_hal_exti.c ****   }
 565              		.loc 1 246 12 view .LVU161
 566 00d8 00E0     		b	.L32
 567              	.LVL46:
 568              	.L44:
 308:/home/christoschristoforou/STM32Cube/Repository/STM32Cube_FW_F4_V1.27.0/Drivers/STM32F4xx_HAL_Driver/Src/stm32f4xx_hal_exti.c **** }
 569              		.loc 1 308 10 view .LVU162
 570 00da 0020     		movs	r0, #0
 571              	.LVL47:
 572              	.L32:
 573              		.loc 1 309 1 view .LVU163
 574 00dc 38BD     		pop	{r3, r4, r5, pc}
 575              	.LVL48:
 576              	.L53:
 577              		.loc 1 309 1 view .LVU164
 578 00de 00BF     		.align	2
 579              	.L52:
 580 00e0 00000000 		.word	.LC0
 581 00e4 003C0140 		.word	1073822720
 582 00e8 00380140 		.word	1073821696
 583              		.cfi_endproc
 584              	.LFE131:
 586              		.section	.text.HAL_EXTI_ClearConfigLine,"ax",%progbits
 587              		.align	1
 588              		.global	HAL_EXTI_ClearConfigLine
 589              		.syntax unified
 590              		.thumb
 591              		.thumb_func
 592              		.fpu fpv4-sp-d16
 594              	HAL_EXTI_ClearConfigLine:
 595              	.LVL49:
 596              	.LFB132:
 310:/home/christoschristoforou/STM32Cube/Repository/STM32Cube_FW_F4_V1.27.0/Drivers/STM32F4xx_HAL_Driver/Src/stm32f4xx_hal_exti.c **** 
 311:/home/christoschristoforou/STM32Cube/Repository/STM32Cube_FW_F4_V1.27.0/Drivers/STM32F4xx_HAL_Driver/Src/stm32f4xx_hal_exti.c **** /**
ARM GAS  /tmp/ccNY9AZA.s 			page 18


 312:/home/christoschristoforou/STM32Cube/Repository/STM32Cube_FW_F4_V1.27.0/Drivers/STM32F4xx_HAL_Driver/Src/stm32f4xx_hal_exti.c ****   * @brief  Clear whole configuration of a dedicated Exti line.
 313:/home/christoschristoforou/STM32Cube/Repository/STM32Cube_FW_F4_V1.27.0/Drivers/STM32F4xx_HAL_Driver/Src/stm32f4xx_hal_exti.c ****   * @param  hexti Exti handle.
 314:/home/christoschristoforou/STM32Cube/Repository/STM32Cube_FW_F4_V1.27.0/Drivers/STM32F4xx_HAL_Driver/Src/stm32f4xx_hal_exti.c ****   * @retval HAL Status.
 315:/home/christoschristoforou/STM32Cube/Repository/STM32Cube_FW_F4_V1.27.0/Drivers/STM32F4xx_HAL_Driver/Src/stm32f4xx_hal_exti.c ****   */
 316:/home/christoschristoforou/STM32Cube/Repository/STM32Cube_FW_F4_V1.27.0/Drivers/STM32F4xx_HAL_Driver/Src/stm32f4xx_hal_exti.c **** HAL_StatusTypeDef HAL_EXTI_ClearConfigLine(EXTI_HandleTypeDef *hexti)
 317:/home/christoschristoforou/STM32Cube/Repository/STM32Cube_FW_F4_V1.27.0/Drivers/STM32F4xx_HAL_Driver/Src/stm32f4xx_hal_exti.c **** {
 597              		.loc 1 317 1 is_stmt 1 view -0
 598              		.cfi_startproc
 599              		@ args = 0, pretend = 0, frame = 0
 600              		@ frame_needed = 0, uses_anonymous_args = 0
 318:/home/christoschristoforou/STM32Cube/Repository/STM32Cube_FW_F4_V1.27.0/Drivers/STM32F4xx_HAL_Driver/Src/stm32f4xx_hal_exti.c ****   uint32_t regval;
 601              		.loc 1 318 3 view .LVU166
 319:/home/christoschristoforou/STM32Cube/Repository/STM32Cube_FW_F4_V1.27.0/Drivers/STM32F4xx_HAL_Driver/Src/stm32f4xx_hal_exti.c ****   uint32_t linepos;
 602              		.loc 1 319 3 view .LVU167
 320:/home/christoschristoforou/STM32Cube/Repository/STM32Cube_FW_F4_V1.27.0/Drivers/STM32F4xx_HAL_Driver/Src/stm32f4xx_hal_exti.c ****   uint32_t maskline;
 603              		.loc 1 320 3 view .LVU168
 321:/home/christoschristoforou/STM32Cube/Repository/STM32Cube_FW_F4_V1.27.0/Drivers/STM32F4xx_HAL_Driver/Src/stm32f4xx_hal_exti.c **** 
 322:/home/christoschristoforou/STM32Cube/Repository/STM32Cube_FW_F4_V1.27.0/Drivers/STM32F4xx_HAL_Driver/Src/stm32f4xx_hal_exti.c ****   /* Check null pointer */
 323:/home/christoschristoforou/STM32Cube/Repository/STM32Cube_FW_F4_V1.27.0/Drivers/STM32F4xx_HAL_Driver/Src/stm32f4xx_hal_exti.c ****   if (hexti == NULL)
 604              		.loc 1 323 3 view .LVU169
 605              		.loc 1 323 6 is_stmt 0 view .LVU170
 606 0000 0028     		cmp	r0, #0
 607 0002 55D0     		beq	.L60
 317:/home/christoschristoforou/STM32Cube/Repository/STM32Cube_FW_F4_V1.27.0/Drivers/STM32F4xx_HAL_Driver/Src/stm32f4xx_hal_exti.c ****   uint32_t regval;
 608              		.loc 1 317 1 view .LVU171
 609 0004 70B5     		push	{r4, r5, r6, lr}
 610              	.LCFI6:
 611              		.cfi_def_cfa_offset 16
 612              		.cfi_offset 4, -16
 613              		.cfi_offset 5, -12
 614              		.cfi_offset 6, -8
 615              		.cfi_offset 14, -4
 616 0006 0446     		mov	r4, r0
 324:/home/christoschristoforou/STM32Cube/Repository/STM32Cube_FW_F4_V1.27.0/Drivers/STM32F4xx_HAL_Driver/Src/stm32f4xx_hal_exti.c ****   {
 325:/home/christoschristoforou/STM32Cube/Repository/STM32Cube_FW_F4_V1.27.0/Drivers/STM32F4xx_HAL_Driver/Src/stm32f4xx_hal_exti.c ****     return HAL_ERROR;
 326:/home/christoschristoforou/STM32Cube/Repository/STM32Cube_FW_F4_V1.27.0/Drivers/STM32F4xx_HAL_Driver/Src/stm32f4xx_hal_exti.c ****   }
 327:/home/christoschristoforou/STM32Cube/Repository/STM32Cube_FW_F4_V1.27.0/Drivers/STM32F4xx_HAL_Driver/Src/stm32f4xx_hal_exti.c **** 
 328:/home/christoschristoforou/STM32Cube/Repository/STM32Cube_FW_F4_V1.27.0/Drivers/STM32F4xx_HAL_Driver/Src/stm32f4xx_hal_exti.c ****   /* Check the parameter */
 329:/home/christoschristoforou/STM32Cube/Repository/STM32Cube_FW_F4_V1.27.0/Drivers/STM32F4xx_HAL_Driver/Src/stm32f4xx_hal_exti.c ****   assert_param(IS_EXTI_LINE(hexti->Line));
 617              		.loc 1 329 3 is_stmt 1 view .LVU172
 618 0008 0268     		ldr	r2, [r0]
 619 000a 22F0C063 		bic	r3, r2, #100663296
 620 000e 23F01F03 		bic	r3, r3, #31
 621 0012 3BB9     		cbnz	r3, .L56
 622              		.loc 1 329 3 is_stmt 0 discriminator 2 view .LVU173
 623 0014 02F0C063 		and	r3, r2, #100663296
 624 0018 B3F1007F 		cmp	r3, #33554432
 625 001c 29D0     		beq	.L57
 626              		.loc 1 329 3 discriminator 3 view .LVU174
 627 001e B3F1C06F 		cmp	r3, #100663296
 628 0022 26D0     		beq	.L57
 629              	.L56:
 630              		.loc 1 329 3 discriminator 7 view .LVU175
 631 0024 40F24911 		movw	r1, #329
 632 0028 2348     		ldr	r0, .L69
 633              	.LVL50:
 634              		.loc 1 329 3 discriminator 7 view .LVU176
ARM GAS  /tmp/ccNY9AZA.s 			page 19


 635 002a FFF7FEFF 		bl	assert_failed
 636              	.LVL51:
 637              	.L58:
 330:/home/christoschristoforou/STM32Cube/Repository/STM32Cube_FW_F4_V1.27.0/Drivers/STM32F4xx_HAL_Driver/Src/stm32f4xx_hal_exti.c **** 
 331:/home/christoschristoforou/STM32Cube/Repository/STM32Cube_FW_F4_V1.27.0/Drivers/STM32F4xx_HAL_Driver/Src/stm32f4xx_hal_exti.c ****   /* compute line mask */
 332:/home/christoschristoforou/STM32Cube/Repository/STM32Cube_FW_F4_V1.27.0/Drivers/STM32F4xx_HAL_Driver/Src/stm32f4xx_hal_exti.c ****   linepos = (hexti->Line & EXTI_PIN_MASK);
 638              		.loc 1 332 3 is_stmt 1 view .LVU177
 639              		.loc 1 332 19 is_stmt 0 view .LVU178
 640 002e 2668     		ldr	r6, [r4]
 641              		.loc 1 332 11 view .LVU179
 642 0030 06F01F05 		and	r5, r6, #31
 643              	.LVL52:
 333:/home/christoschristoforou/STM32Cube/Repository/STM32Cube_FW_F4_V1.27.0/Drivers/STM32F4xx_HAL_Driver/Src/stm32f4xx_hal_exti.c ****   maskline = (1uL << linepos);
 644              		.loc 1 333 3 is_stmt 1 view .LVU180
 645              		.loc 1 333 12 is_stmt 0 view .LVU181
 646 0034 0123     		movs	r3, #1
 647 0036 AB40     		lsls	r3, r3, r5
 648              	.LVL53:
 334:/home/christoschristoforou/STM32Cube/Repository/STM32Cube_FW_F4_V1.27.0/Drivers/STM32F4xx_HAL_Driver/Src/stm32f4xx_hal_exti.c **** 
 335:/home/christoschristoforou/STM32Cube/Repository/STM32Cube_FW_F4_V1.27.0/Drivers/STM32F4xx_HAL_Driver/Src/stm32f4xx_hal_exti.c ****   /* 1] Clear interrupt mode */
 336:/home/christoschristoforou/STM32Cube/Repository/STM32Cube_FW_F4_V1.27.0/Drivers/STM32F4xx_HAL_Driver/Src/stm32f4xx_hal_exti.c ****   EXTI->IMR = (EXTI->IMR & ~maskline);
 649              		.loc 1 336 3 is_stmt 1 view .LVU182
 650              		.loc 1 336 20 is_stmt 0 view .LVU183
 651 0038 204A     		ldr	r2, .L69+4
 652 003a 1168     		ldr	r1, [r2]
 653              		.loc 1 336 28 view .LVU184
 654 003c D843     		mvns	r0, r3
 655              		.loc 1 336 26 view .LVU185
 656 003e 21EA0301 		bic	r1, r1, r3
 657              		.loc 1 336 13 view .LVU186
 658 0042 1160     		str	r1, [r2]
 337:/home/christoschristoforou/STM32Cube/Repository/STM32Cube_FW_F4_V1.27.0/Drivers/STM32F4xx_HAL_Driver/Src/stm32f4xx_hal_exti.c **** 
 338:/home/christoschristoforou/STM32Cube/Repository/STM32Cube_FW_F4_V1.27.0/Drivers/STM32F4xx_HAL_Driver/Src/stm32f4xx_hal_exti.c ****   /* 2] Clear event mode */
 339:/home/christoschristoforou/STM32Cube/Repository/STM32Cube_FW_F4_V1.27.0/Drivers/STM32F4xx_HAL_Driver/Src/stm32f4xx_hal_exti.c ****   EXTI->EMR = (EXTI->EMR & ~maskline);
 659              		.loc 1 339 3 is_stmt 1 view .LVU187
 660              		.loc 1 339 20 is_stmt 0 view .LVU188
 661 0044 5168     		ldr	r1, [r2, #4]
 662              		.loc 1 339 26 view .LVU189
 663 0046 21EA0303 		bic	r3, r1, r3
 664              	.LVL54:
 665              		.loc 1 339 13 view .LVU190
 666 004a 5360     		str	r3, [r2, #4]
 340:/home/christoschristoforou/STM32Cube/Repository/STM32Cube_FW_F4_V1.27.0/Drivers/STM32F4xx_HAL_Driver/Src/stm32f4xx_hal_exti.c **** 
 341:/home/christoschristoforou/STM32Cube/Repository/STM32Cube_FW_F4_V1.27.0/Drivers/STM32F4xx_HAL_Driver/Src/stm32f4xx_hal_exti.c ****   /* 3] Clear triggers in case of configurable lines */
 342:/home/christoschristoforou/STM32Cube/Repository/STM32Cube_FW_F4_V1.27.0/Drivers/STM32F4xx_HAL_Driver/Src/stm32f4xx_hal_exti.c ****   if ((hexti->Line & EXTI_CONFIG) != 0x00u)
 667              		.loc 1 342 3 is_stmt 1 view .LVU191
 668              		.loc 1 342 13 is_stmt 0 view .LVU192
 669 004c 2368     		ldr	r3, [r4]
 670              		.loc 1 342 6 view .LVU193
 671 004e 13F0007F 		tst	r3, #33554432
 672 0052 2FD0     		beq	.L61
 343:/home/christoschristoforou/STM32Cube/Repository/STM32Cube_FW_F4_V1.27.0/Drivers/STM32F4xx_HAL_Driver/Src/stm32f4xx_hal_exti.c ****   {
 344:/home/christoschristoforou/STM32Cube/Repository/STM32Cube_FW_F4_V1.27.0/Drivers/STM32F4xx_HAL_Driver/Src/stm32f4xx_hal_exti.c ****     EXTI->RTSR = (EXTI->RTSR & ~maskline);
 673              		.loc 1 344 5 is_stmt 1 view .LVU194
 674              		.loc 1 344 23 is_stmt 0 view .LVU195
 675 0054 1346     		mov	r3, r2
 676 0056 9268     		ldr	r2, [r2, #8]
ARM GAS  /tmp/ccNY9AZA.s 			page 20


 677              		.loc 1 344 30 view .LVU196
 678 0058 0240     		ands	r2, r2, r0
 679              		.loc 1 344 16 view .LVU197
 680 005a 9A60     		str	r2, [r3, #8]
 345:/home/christoschristoforou/STM32Cube/Repository/STM32Cube_FW_F4_V1.27.0/Drivers/STM32F4xx_HAL_Driver/Src/stm32f4xx_hal_exti.c ****     EXTI->FTSR = (EXTI->FTSR & ~maskline);
 681              		.loc 1 345 5 is_stmt 1 view .LVU198
 682              		.loc 1 345 23 is_stmt 0 view .LVU199
 683 005c DA68     		ldr	r2, [r3, #12]
 684              		.loc 1 345 30 view .LVU200
 685 005e 1040     		ands	r0, r0, r2
 686              	.LVL55:
 687              		.loc 1 345 16 view .LVU201
 688 0060 D860     		str	r0, [r3, #12]
 346:/home/christoschristoforou/STM32Cube/Repository/STM32Cube_FW_F4_V1.27.0/Drivers/STM32F4xx_HAL_Driver/Src/stm32f4xx_hal_exti.c **** 
 347:/home/christoschristoforou/STM32Cube/Repository/STM32Cube_FW_F4_V1.27.0/Drivers/STM32F4xx_HAL_Driver/Src/stm32f4xx_hal_exti.c ****     /* Get Gpio port selection for gpio lines */
 348:/home/christoschristoforou/STM32Cube/Repository/STM32Cube_FW_F4_V1.27.0/Drivers/STM32F4xx_HAL_Driver/Src/stm32f4xx_hal_exti.c ****     if ((hexti->Line & EXTI_GPIO) == EXTI_GPIO)
 689              		.loc 1 348 5 is_stmt 1 view .LVU202
 690              		.loc 1 348 15 is_stmt 0 view .LVU203
 691 0062 2368     		ldr	r3, [r4]
 692              		.loc 1 348 22 view .LVU204
 693 0064 03F0C063 		and	r3, r3, #100663296
 694              		.loc 1 348 8 view .LVU205
 695 0068 B3F1C06F 		cmp	r3, #100663296
 696 006c 06D0     		beq	.L67
 349:/home/christoschristoforou/STM32Cube/Repository/STM32Cube_FW_F4_V1.27.0/Drivers/STM32F4xx_HAL_Driver/Src/stm32f4xx_hal_exti.c ****     {
 350:/home/christoschristoforou/STM32Cube/Repository/STM32Cube_FW_F4_V1.27.0/Drivers/STM32F4xx_HAL_Driver/Src/stm32f4xx_hal_exti.c ****       assert_param(IS_EXTI_GPIO_PIN(linepos));
 351:/home/christoschristoforou/STM32Cube/Repository/STM32Cube_FW_F4_V1.27.0/Drivers/STM32F4xx_HAL_Driver/Src/stm32f4xx_hal_exti.c **** 
 352:/home/christoschristoforou/STM32Cube/Repository/STM32Cube_FW_F4_V1.27.0/Drivers/STM32F4xx_HAL_Driver/Src/stm32f4xx_hal_exti.c ****       regval = SYSCFG->EXTICR[linepos >> 2u];
 353:/home/christoschristoforou/STM32Cube/Repository/STM32Cube_FW_F4_V1.27.0/Drivers/STM32F4xx_HAL_Driver/Src/stm32f4xx_hal_exti.c ****       regval &= ~(SYSCFG_EXTICR1_EXTI0 << (SYSCFG_EXTICR1_EXTI1_Pos * (linepos & 0x03u)));
 354:/home/christoschristoforou/STM32Cube/Repository/STM32Cube_FW_F4_V1.27.0/Drivers/STM32F4xx_HAL_Driver/Src/stm32f4xx_hal_exti.c ****       SYSCFG->EXTICR[linepos >> 2u] = regval;
 355:/home/christoschristoforou/STM32Cube/Repository/STM32Cube_FW_F4_V1.27.0/Drivers/STM32F4xx_HAL_Driver/Src/stm32f4xx_hal_exti.c ****     }
 356:/home/christoschristoforou/STM32Cube/Repository/STM32Cube_FW_F4_V1.27.0/Drivers/STM32F4xx_HAL_Driver/Src/stm32f4xx_hal_exti.c ****   }
 357:/home/christoschristoforou/STM32Cube/Repository/STM32Cube_FW_F4_V1.27.0/Drivers/STM32F4xx_HAL_Driver/Src/stm32f4xx_hal_exti.c **** 
 358:/home/christoschristoforou/STM32Cube/Repository/STM32Cube_FW_F4_V1.27.0/Drivers/STM32F4xx_HAL_Driver/Src/stm32f4xx_hal_exti.c ****   return HAL_OK;
 697              		.loc 1 358 10 view .LVU206
 698 006e 0020     		movs	r0, #0
 699 0070 21E0     		b	.L55
 700              	.LVL56:
 701              	.L57:
 329:/home/christoschristoforou/STM32Cube/Repository/STM32Cube_FW_F4_V1.27.0/Drivers/STM32F4xx_HAL_Driver/Src/stm32f4xx_hal_exti.c **** 
 702              		.loc 1 329 3 discriminator 6 view .LVU207
 703 0072 02F01F02 		and	r2, r2, #31
 704 0076 162A     		cmp	r2, #22
 705 0078 D9D9     		bls	.L58
 706 007a D3E7     		b	.L56
 707              	.LVL57:
 708              	.L67:
 350:/home/christoschristoforou/STM32Cube/Repository/STM32Cube_FW_F4_V1.27.0/Drivers/STM32F4xx_HAL_Driver/Src/stm32f4xx_hal_exti.c **** 
 709              		.loc 1 350 7 is_stmt 1 view .LVU208
 710 007c 16F0100F 		tst	r6, #16
 711 0080 10D1     		bne	.L68
 712              	.L59:
 352:/home/christoschristoforou/STM32Cube/Repository/STM32Cube_FW_F4_V1.27.0/Drivers/STM32F4xx_HAL_Driver/Src/stm32f4xx_hal_exti.c ****       regval &= ~(SYSCFG_EXTICR1_EXTI0 << (SYSCFG_EXTICR1_EXTI1_Pos * (linepos & 0x03u)));
 713              		.loc 1 352 7 view .LVU209
 352:/home/christoschristoforou/STM32Cube/Repository/STM32Cube_FW_F4_V1.27.0/Drivers/STM32F4xx_HAL_Driver/Src/stm32f4xx_hal_exti.c ****       regval &= ~(SYSCFG_EXTICR1_EXTI0 << (SYSCFG_EXTICR1_EXTI1_Pos * (linepos & 0x03u)));
 714              		.loc 1 352 39 is_stmt 0 view .LVU210
 715 0082 AD08     		lsrs	r5, r5, #2
ARM GAS  /tmp/ccNY9AZA.s 			page 21


 716              	.LVL58:
 352:/home/christoschristoforou/STM32Cube/Repository/STM32Cube_FW_F4_V1.27.0/Drivers/STM32F4xx_HAL_Driver/Src/stm32f4xx_hal_exti.c ****       regval &= ~(SYSCFG_EXTICR1_EXTI0 << (SYSCFG_EXTICR1_EXTI1_Pos * (linepos & 0x03u)));
 717              		.loc 1 352 14 view .LVU211
 718 0084 0E49     		ldr	r1, .L69+8
 719 0086 0235     		adds	r5, r5, #2
 720 0088 51F82530 		ldr	r3, [r1, r5, lsl #2]
 721              	.LVL59:
 353:/home/christoschristoforou/STM32Cube/Repository/STM32Cube_FW_F4_V1.27.0/Drivers/STM32F4xx_HAL_Driver/Src/stm32f4xx_hal_exti.c ****       SYSCFG->EXTICR[linepos >> 2u] = regval;
 722              		.loc 1 353 7 is_stmt 1 view .LVU212
 353:/home/christoschristoforou/STM32Cube/Repository/STM32Cube_FW_F4_V1.27.0/Drivers/STM32F4xx_HAL_Driver/Src/stm32f4xx_hal_exti.c ****       SYSCFG->EXTICR[linepos >> 2u] = regval;
 723              		.loc 1 353 80 is_stmt 0 view .LVU213
 724 008c 06F00306 		and	r6, r6, #3
 725              	.LVL60:
 353:/home/christoschristoforou/STM32Cube/Repository/STM32Cube_FW_F4_V1.27.0/Drivers/STM32F4xx_HAL_Driver/Src/stm32f4xx_hal_exti.c ****       SYSCFG->EXTICR[linepos >> 2u] = regval;
 726              		.loc 1 353 69 view .LVU214
 727 0090 B600     		lsls	r6, r6, #2
 353:/home/christoschristoforou/STM32Cube/Repository/STM32Cube_FW_F4_V1.27.0/Drivers/STM32F4xx_HAL_Driver/Src/stm32f4xx_hal_exti.c ****       SYSCFG->EXTICR[linepos >> 2u] = regval;
 728              		.loc 1 353 40 view .LVU215
 729 0092 0F22     		movs	r2, #15
 730 0094 02FA06F6 		lsl	r6, r2, r6
 353:/home/christoschristoforou/STM32Cube/Repository/STM32Cube_FW_F4_V1.27.0/Drivers/STM32F4xx_HAL_Driver/Src/stm32f4xx_hal_exti.c ****       SYSCFG->EXTICR[linepos >> 2u] = regval;
 731              		.loc 1 353 14 view .LVU216
 732 0098 23EA0606 		bic	r6, r3, r6
 733              	.LVL61:
 354:/home/christoschristoforou/STM32Cube/Repository/STM32Cube_FW_F4_V1.27.0/Drivers/STM32F4xx_HAL_Driver/Src/stm32f4xx_hal_exti.c ****     }
 734              		.loc 1 354 7 is_stmt 1 view .LVU217
 354:/home/christoschristoforou/STM32Cube/Repository/STM32Cube_FW_F4_V1.27.0/Drivers/STM32F4xx_HAL_Driver/Src/stm32f4xx_hal_exti.c ****     }
 735              		.loc 1 354 37 is_stmt 0 view .LVU218
 736 009c 41F82560 		str	r6, [r1, r5, lsl #2]
 737              		.loc 1 358 10 view .LVU219
 738 00a0 0020     		movs	r0, #0
 739 00a2 08E0     		b	.L55
 740              	.LVL62:
 741              	.L68:
 350:/home/christoschristoforou/STM32Cube/Repository/STM32Cube_FW_F4_V1.27.0/Drivers/STM32F4xx_HAL_Driver/Src/stm32f4xx_hal_exti.c **** 
 742              		.loc 1 350 7 discriminator 1 view .LVU220
 743 00a4 4FF4AF71 		mov	r1, #350
 744 00a8 0348     		ldr	r0, .L69
 745 00aa FFF7FEFF 		bl	assert_failed
 746              	.LVL63:
 747 00ae E8E7     		b	.L59
 748              	.LVL64:
 749              	.L60:
 750              	.LCFI7:
 751              		.cfi_def_cfa_offset 0
 752              		.cfi_restore 4
 753              		.cfi_restore 5
 754              		.cfi_restore 6
 755              		.cfi_restore 14
 325:/home/christoschristoforou/STM32Cube/Repository/STM32Cube_FW_F4_V1.27.0/Drivers/STM32F4xx_HAL_Driver/Src/stm32f4xx_hal_exti.c ****   }
 756              		.loc 1 325 12 view .LVU221
 757 00b0 0120     		movs	r0, #1
 758              	.LVL65:
 359:/home/christoschristoforou/STM32Cube/Repository/STM32Cube_FW_F4_V1.27.0/Drivers/STM32F4xx_HAL_Driver/Src/stm32f4xx_hal_exti.c **** }
 759              		.loc 1 359 1 view .LVU222
 760 00b2 7047     		bx	lr
 761              	.LVL66:
ARM GAS  /tmp/ccNY9AZA.s 			page 22


 762              	.L61:
 763              	.LCFI8:
 764              		.cfi_def_cfa_offset 16
 765              		.cfi_offset 4, -16
 766              		.cfi_offset 5, -12
 767              		.cfi_offset 6, -8
 768              		.cfi_offset 14, -4
 358:/home/christoschristoforou/STM32Cube/Repository/STM32Cube_FW_F4_V1.27.0/Drivers/STM32F4xx_HAL_Driver/Src/stm32f4xx_hal_exti.c **** }
 769              		.loc 1 358 10 view .LVU223
 770 00b4 0020     		movs	r0, #0
 771              	.LVL67:
 772              	.L55:
 773              		.loc 1 359 1 view .LVU224
 774 00b6 70BD     		pop	{r4, r5, r6, pc}
 775              	.LVL68:
 776              	.L70:
 777              		.loc 1 359 1 view .LVU225
 778              		.align	2
 779              	.L69:
 780 00b8 00000000 		.word	.LC0
 781 00bc 003C0140 		.word	1073822720
 782 00c0 00380140 		.word	1073821696
 783              		.cfi_endproc
 784              	.LFE132:
 786              		.section	.text.HAL_EXTI_RegisterCallback,"ax",%progbits
 787              		.align	1
 788              		.global	HAL_EXTI_RegisterCallback
 789              		.syntax unified
 790              		.thumb
 791              		.thumb_func
 792              		.fpu fpv4-sp-d16
 794              	HAL_EXTI_RegisterCallback:
 795              	.LVL69:
 796              	.LFB133:
 360:/home/christoschristoforou/STM32Cube/Repository/STM32Cube_FW_F4_V1.27.0/Drivers/STM32F4xx_HAL_Driver/Src/stm32f4xx_hal_exti.c **** 
 361:/home/christoschristoforou/STM32Cube/Repository/STM32Cube_FW_F4_V1.27.0/Drivers/STM32F4xx_HAL_Driver/Src/stm32f4xx_hal_exti.c **** /**
 362:/home/christoschristoforou/STM32Cube/Repository/STM32Cube_FW_F4_V1.27.0/Drivers/STM32F4xx_HAL_Driver/Src/stm32f4xx_hal_exti.c ****   * @brief  Register callback for a dedicated Exti line.
 363:/home/christoschristoforou/STM32Cube/Repository/STM32Cube_FW_F4_V1.27.0/Drivers/STM32F4xx_HAL_Driver/Src/stm32f4xx_hal_exti.c ****   * @param  hexti Exti handle.
 364:/home/christoschristoforou/STM32Cube/Repository/STM32Cube_FW_F4_V1.27.0/Drivers/STM32F4xx_HAL_Driver/Src/stm32f4xx_hal_exti.c ****   * @param  CallbackID User callback identifier.
 365:/home/christoschristoforou/STM32Cube/Repository/STM32Cube_FW_F4_V1.27.0/Drivers/STM32F4xx_HAL_Driver/Src/stm32f4xx_hal_exti.c ****   *         This parameter can be one of @arg @ref EXTI_CallbackIDTypeDef values.
 366:/home/christoschristoforou/STM32Cube/Repository/STM32Cube_FW_F4_V1.27.0/Drivers/STM32F4xx_HAL_Driver/Src/stm32f4xx_hal_exti.c ****   * @param  pPendingCbfn function pointer to be stored as callback.
 367:/home/christoschristoforou/STM32Cube/Repository/STM32Cube_FW_F4_V1.27.0/Drivers/STM32F4xx_HAL_Driver/Src/stm32f4xx_hal_exti.c ****   * @retval HAL Status.
 368:/home/christoschristoforou/STM32Cube/Repository/STM32Cube_FW_F4_V1.27.0/Drivers/STM32F4xx_HAL_Driver/Src/stm32f4xx_hal_exti.c ****   */
 369:/home/christoschristoforou/STM32Cube/Repository/STM32Cube_FW_F4_V1.27.0/Drivers/STM32F4xx_HAL_Driver/Src/stm32f4xx_hal_exti.c **** HAL_StatusTypeDef HAL_EXTI_RegisterCallback(EXTI_HandleTypeDef *hexti, EXTI_CallbackIDTypeDef Callb
 370:/home/christoschristoforou/STM32Cube/Repository/STM32Cube_FW_F4_V1.27.0/Drivers/STM32F4xx_HAL_Driver/Src/stm32f4xx_hal_exti.c **** {
 797              		.loc 1 370 1 is_stmt 1 view -0
 798              		.cfi_startproc
 799              		@ args = 0, pretend = 0, frame = 0
 800              		@ frame_needed = 0, uses_anonymous_args = 0
 801              		@ link register save eliminated.
 802              		.loc 1 370 1 is_stmt 0 view .LVU227
 803 0000 0346     		mov	r3, r0
 371:/home/christoschristoforou/STM32Cube/Repository/STM32Cube_FW_F4_V1.27.0/Drivers/STM32F4xx_HAL_Driver/Src/stm32f4xx_hal_exti.c ****   HAL_StatusTypeDef status = HAL_OK;
 804              		.loc 1 371 3 is_stmt 1 view .LVU228
 805              	.LVL70:
 372:/home/christoschristoforou/STM32Cube/Repository/STM32Cube_FW_F4_V1.27.0/Drivers/STM32F4xx_HAL_Driver/Src/stm32f4xx_hal_exti.c **** 
 373:/home/christoschristoforou/STM32Cube/Repository/STM32Cube_FW_F4_V1.27.0/Drivers/STM32F4xx_HAL_Driver/Src/stm32f4xx_hal_exti.c ****   switch (CallbackID)
ARM GAS  /tmp/ccNY9AZA.s 			page 23


 806              		.loc 1 373 3 view .LVU229
 807 0002 0846     		mov	r0, r1
 808              	.LVL71:
 809              		.loc 1 373 3 is_stmt 0 view .LVU230
 810 0004 09B9     		cbnz	r1, .L73
 374:/home/christoschristoforou/STM32Cube/Repository/STM32Cube_FW_F4_V1.27.0/Drivers/STM32F4xx_HAL_Driver/Src/stm32f4xx_hal_exti.c ****   {
 375:/home/christoschristoforou/STM32Cube/Repository/STM32Cube_FW_F4_V1.27.0/Drivers/STM32F4xx_HAL_Driver/Src/stm32f4xx_hal_exti.c ****     case  HAL_EXTI_COMMON_CB_ID:
 376:/home/christoschristoforou/STM32Cube/Repository/STM32Cube_FW_F4_V1.27.0/Drivers/STM32F4xx_HAL_Driver/Src/stm32f4xx_hal_exti.c ****       hexti->PendingCallback = pPendingCbfn;
 811              		.loc 1 376 7 is_stmt 1 view .LVU231
 812              		.loc 1 376 30 is_stmt 0 view .LVU232
 813 0006 5A60     		str	r2, [r3, #4]
 377:/home/christoschristoforou/STM32Cube/Repository/STM32Cube_FW_F4_V1.27.0/Drivers/STM32F4xx_HAL_Driver/Src/stm32f4xx_hal_exti.c ****       break;
 814              		.loc 1 377 7 is_stmt 1 view .LVU233
 815 0008 7047     		bx	lr
 816              	.L73:
 378:/home/christoschristoforou/STM32Cube/Repository/STM32Cube_FW_F4_V1.27.0/Drivers/STM32F4xx_HAL_Driver/Src/stm32f4xx_hal_exti.c **** 
 379:/home/christoschristoforou/STM32Cube/Repository/STM32Cube_FW_F4_V1.27.0/Drivers/STM32F4xx_HAL_Driver/Src/stm32f4xx_hal_exti.c ****     default:
 380:/home/christoschristoforou/STM32Cube/Repository/STM32Cube_FW_F4_V1.27.0/Drivers/STM32F4xx_HAL_Driver/Src/stm32f4xx_hal_exti.c ****       status = HAL_ERROR;
 817              		.loc 1 380 14 is_stmt 0 view .LVU234
 818 000a 0120     		movs	r0, #1
 819              	.LVL72:
 381:/home/christoschristoforou/STM32Cube/Repository/STM32Cube_FW_F4_V1.27.0/Drivers/STM32F4xx_HAL_Driver/Src/stm32f4xx_hal_exti.c ****       break;
 382:/home/christoschristoforou/STM32Cube/Repository/STM32Cube_FW_F4_V1.27.0/Drivers/STM32F4xx_HAL_Driver/Src/stm32f4xx_hal_exti.c ****   }
 383:/home/christoschristoforou/STM32Cube/Repository/STM32Cube_FW_F4_V1.27.0/Drivers/STM32F4xx_HAL_Driver/Src/stm32f4xx_hal_exti.c **** 
 384:/home/christoschristoforou/STM32Cube/Repository/STM32Cube_FW_F4_V1.27.0/Drivers/STM32F4xx_HAL_Driver/Src/stm32f4xx_hal_exti.c ****   return status;
 820              		.loc 1 384 3 is_stmt 1 view .LVU235
 385:/home/christoschristoforou/STM32Cube/Repository/STM32Cube_FW_F4_V1.27.0/Drivers/STM32F4xx_HAL_Driver/Src/stm32f4xx_hal_exti.c **** }
 821              		.loc 1 385 1 is_stmt 0 view .LVU236
 822 000c 7047     		bx	lr
 823              		.cfi_endproc
 824              	.LFE133:
 826              		.section	.text.HAL_EXTI_GetHandle,"ax",%progbits
 827              		.align	1
 828              		.global	HAL_EXTI_GetHandle
 829              		.syntax unified
 830              		.thumb
 831              		.thumb_func
 832              		.fpu fpv4-sp-d16
 834              	HAL_EXTI_GetHandle:
 835              	.LVL73:
 836              	.LFB134:
 386:/home/christoschristoforou/STM32Cube/Repository/STM32Cube_FW_F4_V1.27.0/Drivers/STM32F4xx_HAL_Driver/Src/stm32f4xx_hal_exti.c **** 
 387:/home/christoschristoforou/STM32Cube/Repository/STM32Cube_FW_F4_V1.27.0/Drivers/STM32F4xx_HAL_Driver/Src/stm32f4xx_hal_exti.c **** /**
 388:/home/christoschristoforou/STM32Cube/Repository/STM32Cube_FW_F4_V1.27.0/Drivers/STM32F4xx_HAL_Driver/Src/stm32f4xx_hal_exti.c ****   * @brief  Store line number as handle private field.
 389:/home/christoschristoforou/STM32Cube/Repository/STM32Cube_FW_F4_V1.27.0/Drivers/STM32F4xx_HAL_Driver/Src/stm32f4xx_hal_exti.c ****   * @param  hexti Exti handle.
 390:/home/christoschristoforou/STM32Cube/Repository/STM32Cube_FW_F4_V1.27.0/Drivers/STM32F4xx_HAL_Driver/Src/stm32f4xx_hal_exti.c ****   * @param  ExtiLine Exti line number.
 391:/home/christoschristoforou/STM32Cube/Repository/STM32Cube_FW_F4_V1.27.0/Drivers/STM32F4xx_HAL_Driver/Src/stm32f4xx_hal_exti.c ****   *         This parameter can be from 0 to @ref EXTI_LINE_NB.
 392:/home/christoschristoforou/STM32Cube/Repository/STM32Cube_FW_F4_V1.27.0/Drivers/STM32F4xx_HAL_Driver/Src/stm32f4xx_hal_exti.c ****   * @retval HAL Status.
 393:/home/christoschristoforou/STM32Cube/Repository/STM32Cube_FW_F4_V1.27.0/Drivers/STM32F4xx_HAL_Driver/Src/stm32f4xx_hal_exti.c ****   */
 394:/home/christoschristoforou/STM32Cube/Repository/STM32Cube_FW_F4_V1.27.0/Drivers/STM32F4xx_HAL_Driver/Src/stm32f4xx_hal_exti.c **** HAL_StatusTypeDef HAL_EXTI_GetHandle(EXTI_HandleTypeDef *hexti, uint32_t ExtiLine)
 395:/home/christoschristoforou/STM32Cube/Repository/STM32Cube_FW_F4_V1.27.0/Drivers/STM32F4xx_HAL_Driver/Src/stm32f4xx_hal_exti.c **** {
 837              		.loc 1 395 1 is_stmt 1 view -0
 838              		.cfi_startproc
 839              		@ args = 0, pretend = 0, frame = 0
 840              		@ frame_needed = 0, uses_anonymous_args = 0
 841              		.loc 1 395 1 is_stmt 0 view .LVU238
 842 0000 38B5     		push	{r3, r4, r5, lr}
ARM GAS  /tmp/ccNY9AZA.s 			page 24


 843              	.LCFI9:
 844              		.cfi_def_cfa_offset 16
 845              		.cfi_offset 3, -16
 846              		.cfi_offset 4, -12
 847              		.cfi_offset 5, -8
 848              		.cfi_offset 14, -4
 849 0002 0546     		mov	r5, r0
 850 0004 0C46     		mov	r4, r1
 396:/home/christoschristoforou/STM32Cube/Repository/STM32Cube_FW_F4_V1.27.0/Drivers/STM32F4xx_HAL_Driver/Src/stm32f4xx_hal_exti.c ****   /* Check the parameters */
 397:/home/christoschristoforou/STM32Cube/Repository/STM32Cube_FW_F4_V1.27.0/Drivers/STM32F4xx_HAL_Driver/Src/stm32f4xx_hal_exti.c ****   assert_param(IS_EXTI_LINE(ExtiLine));
 851              		.loc 1 397 3 is_stmt 1 view .LVU239
 852 0006 21F0C063 		bic	r3, r1, #100663296
 853 000a 23F01F03 		bic	r3, r3, #31
 854 000e 3BB9     		cbnz	r3, .L75
 855              		.loc 1 397 3 is_stmt 0 discriminator 2 view .LVU240
 856 0010 01F0C063 		and	r3, r1, #100663296
 857 0014 B3F1007F 		cmp	r3, #33554432
 858 0018 0BD0     		beq	.L76
 859              		.loc 1 397 3 discriminator 3 view .LVU241
 860 001a B3F1C06F 		cmp	r3, #100663296
 861 001e 08D0     		beq	.L76
 862              	.L75:
 863              		.loc 1 397 3 discriminator 7 view .LVU242
 864 0020 40F28D11 		movw	r1, #397
 865              	.LVL74:
 866              		.loc 1 397 3 discriminator 7 view .LVU243
 867 0024 0648     		ldr	r0, .L81
 868              	.LVL75:
 869              		.loc 1 397 3 discriminator 7 view .LVU244
 870 0026 FFF7FEFF 		bl	assert_failed
 871              	.LVL76:
 872              	.L77:
 398:/home/christoschristoforou/STM32Cube/Repository/STM32Cube_FW_F4_V1.27.0/Drivers/STM32F4xx_HAL_Driver/Src/stm32f4xx_hal_exti.c **** 
 399:/home/christoschristoforou/STM32Cube/Repository/STM32Cube_FW_F4_V1.27.0/Drivers/STM32F4xx_HAL_Driver/Src/stm32f4xx_hal_exti.c ****   /* Check null pointer */
 400:/home/christoschristoforou/STM32Cube/Repository/STM32Cube_FW_F4_V1.27.0/Drivers/STM32F4xx_HAL_Driver/Src/stm32f4xx_hal_exti.c ****   if (hexti == NULL)
 873              		.loc 1 400 3 is_stmt 1 view .LVU245
 874              		.loc 1 400 6 is_stmt 0 view .LVU246
 875 002a 3DB1     		cbz	r5, .L79
 401:/home/christoschristoforou/STM32Cube/Repository/STM32Cube_FW_F4_V1.27.0/Drivers/STM32F4xx_HAL_Driver/Src/stm32f4xx_hal_exti.c ****   {
 402:/home/christoschristoforou/STM32Cube/Repository/STM32Cube_FW_F4_V1.27.0/Drivers/STM32F4xx_HAL_Driver/Src/stm32f4xx_hal_exti.c ****     return HAL_ERROR;
 403:/home/christoschristoforou/STM32Cube/Repository/STM32Cube_FW_F4_V1.27.0/Drivers/STM32F4xx_HAL_Driver/Src/stm32f4xx_hal_exti.c ****   }
 404:/home/christoschristoforou/STM32Cube/Repository/STM32Cube_FW_F4_V1.27.0/Drivers/STM32F4xx_HAL_Driver/Src/stm32f4xx_hal_exti.c ****   else
 405:/home/christoschristoforou/STM32Cube/Repository/STM32Cube_FW_F4_V1.27.0/Drivers/STM32F4xx_HAL_Driver/Src/stm32f4xx_hal_exti.c ****   {
 406:/home/christoschristoforou/STM32Cube/Repository/STM32Cube_FW_F4_V1.27.0/Drivers/STM32F4xx_HAL_Driver/Src/stm32f4xx_hal_exti.c ****     /* Store line number as handle private field */
 407:/home/christoschristoforou/STM32Cube/Repository/STM32Cube_FW_F4_V1.27.0/Drivers/STM32F4xx_HAL_Driver/Src/stm32f4xx_hal_exti.c ****     hexti->Line = ExtiLine;
 876              		.loc 1 407 5 is_stmt 1 view .LVU247
 877              		.loc 1 407 17 is_stmt 0 view .LVU248
 878 002c 2C60     		str	r4, [r5]
 408:/home/christoschristoforou/STM32Cube/Repository/STM32Cube_FW_F4_V1.27.0/Drivers/STM32F4xx_HAL_Driver/Src/stm32f4xx_hal_exti.c **** 
 409:/home/christoschristoforou/STM32Cube/Repository/STM32Cube_FW_F4_V1.27.0/Drivers/STM32F4xx_HAL_Driver/Src/stm32f4xx_hal_exti.c ****     return HAL_OK;
 879              		.loc 1 409 5 is_stmt 1 view .LVU249
 880              		.loc 1 409 12 is_stmt 0 view .LVU250
 881 002e 0020     		movs	r0, #0
 882              	.L78:
 410:/home/christoschristoforou/STM32Cube/Repository/STM32Cube_FW_F4_V1.27.0/Drivers/STM32F4xx_HAL_Driver/Src/stm32f4xx_hal_exti.c ****   }
 411:/home/christoschristoforou/STM32Cube/Repository/STM32Cube_FW_F4_V1.27.0/Drivers/STM32F4xx_HAL_Driver/Src/stm32f4xx_hal_exti.c **** }
 883              		.loc 1 411 1 view .LVU251
ARM GAS  /tmp/ccNY9AZA.s 			page 25


 884 0030 38BD     		pop	{r3, r4, r5, pc}
 885              	.LVL77:
 886              	.L76:
 397:/home/christoschristoforou/STM32Cube/Repository/STM32Cube_FW_F4_V1.27.0/Drivers/STM32F4xx_HAL_Driver/Src/stm32f4xx_hal_exti.c **** 
 887              		.loc 1 397 3 discriminator 6 view .LVU252
 888 0032 04F01F03 		and	r3, r4, #31
 889 0036 162B     		cmp	r3, #22
 890 0038 F7D9     		bls	.L77
 891 003a F1E7     		b	.L75
 892              	.LVL78:
 893              	.L79:
 402:/home/christoschristoforou/STM32Cube/Repository/STM32Cube_FW_F4_V1.27.0/Drivers/STM32F4xx_HAL_Driver/Src/stm32f4xx_hal_exti.c ****   }
 894              		.loc 1 402 12 view .LVU253
 895 003c 0120     		movs	r0, #1
 896 003e F7E7     		b	.L78
 897              	.L82:
 898              		.align	2
 899              	.L81:
 900 0040 00000000 		.word	.LC0
 901              		.cfi_endproc
 902              	.LFE134:
 904              		.section	.text.HAL_EXTI_IRQHandler,"ax",%progbits
 905              		.align	1
 906              		.global	HAL_EXTI_IRQHandler
 907              		.syntax unified
 908              		.thumb
 909              		.thumb_func
 910              		.fpu fpv4-sp-d16
 912              	HAL_EXTI_IRQHandler:
 913              	.LVL79:
 914              	.LFB135:
 412:/home/christoschristoforou/STM32Cube/Repository/STM32Cube_FW_F4_V1.27.0/Drivers/STM32F4xx_HAL_Driver/Src/stm32f4xx_hal_exti.c **** 
 413:/home/christoschristoforou/STM32Cube/Repository/STM32Cube_FW_F4_V1.27.0/Drivers/STM32F4xx_HAL_Driver/Src/stm32f4xx_hal_exti.c **** /**
 414:/home/christoschristoforou/STM32Cube/Repository/STM32Cube_FW_F4_V1.27.0/Drivers/STM32F4xx_HAL_Driver/Src/stm32f4xx_hal_exti.c ****   * @}
 415:/home/christoschristoforou/STM32Cube/Repository/STM32Cube_FW_F4_V1.27.0/Drivers/STM32F4xx_HAL_Driver/Src/stm32f4xx_hal_exti.c ****   */
 416:/home/christoschristoforou/STM32Cube/Repository/STM32Cube_FW_F4_V1.27.0/Drivers/STM32F4xx_HAL_Driver/Src/stm32f4xx_hal_exti.c **** 
 417:/home/christoschristoforou/STM32Cube/Repository/STM32Cube_FW_F4_V1.27.0/Drivers/STM32F4xx_HAL_Driver/Src/stm32f4xx_hal_exti.c **** /** @addtogroup EXTI_Exported_Functions_Group2
 418:/home/christoschristoforou/STM32Cube/Repository/STM32Cube_FW_F4_V1.27.0/Drivers/STM32F4xx_HAL_Driver/Src/stm32f4xx_hal_exti.c ****   *  @brief EXTI IO functions.
 419:/home/christoschristoforou/STM32Cube/Repository/STM32Cube_FW_F4_V1.27.0/Drivers/STM32F4xx_HAL_Driver/Src/stm32f4xx_hal_exti.c ****   *
 420:/home/christoschristoforou/STM32Cube/Repository/STM32Cube_FW_F4_V1.27.0/Drivers/STM32F4xx_HAL_Driver/Src/stm32f4xx_hal_exti.c **** @verbatim
 421:/home/christoschristoforou/STM32Cube/Repository/STM32Cube_FW_F4_V1.27.0/Drivers/STM32F4xx_HAL_Driver/Src/stm32f4xx_hal_exti.c ****  ===============================================================================
 422:/home/christoschristoforou/STM32Cube/Repository/STM32Cube_FW_F4_V1.27.0/Drivers/STM32F4xx_HAL_Driver/Src/stm32f4xx_hal_exti.c ****                        ##### IO operation functions #####
 423:/home/christoschristoforou/STM32Cube/Repository/STM32Cube_FW_F4_V1.27.0/Drivers/STM32F4xx_HAL_Driver/Src/stm32f4xx_hal_exti.c ****  ===============================================================================
 424:/home/christoschristoforou/STM32Cube/Repository/STM32Cube_FW_F4_V1.27.0/Drivers/STM32F4xx_HAL_Driver/Src/stm32f4xx_hal_exti.c **** 
 425:/home/christoschristoforou/STM32Cube/Repository/STM32Cube_FW_F4_V1.27.0/Drivers/STM32F4xx_HAL_Driver/Src/stm32f4xx_hal_exti.c **** @endverbatim
 426:/home/christoschristoforou/STM32Cube/Repository/STM32Cube_FW_F4_V1.27.0/Drivers/STM32F4xx_HAL_Driver/Src/stm32f4xx_hal_exti.c ****   * @{
 427:/home/christoschristoforou/STM32Cube/Repository/STM32Cube_FW_F4_V1.27.0/Drivers/STM32F4xx_HAL_Driver/Src/stm32f4xx_hal_exti.c ****   */
 428:/home/christoschristoforou/STM32Cube/Repository/STM32Cube_FW_F4_V1.27.0/Drivers/STM32F4xx_HAL_Driver/Src/stm32f4xx_hal_exti.c **** 
 429:/home/christoschristoforou/STM32Cube/Repository/STM32Cube_FW_F4_V1.27.0/Drivers/STM32F4xx_HAL_Driver/Src/stm32f4xx_hal_exti.c **** /**
 430:/home/christoschristoforou/STM32Cube/Repository/STM32Cube_FW_F4_V1.27.0/Drivers/STM32F4xx_HAL_Driver/Src/stm32f4xx_hal_exti.c ****   * @brief  Handle EXTI interrupt request.
 431:/home/christoschristoforou/STM32Cube/Repository/STM32Cube_FW_F4_V1.27.0/Drivers/STM32F4xx_HAL_Driver/Src/stm32f4xx_hal_exti.c ****   * @param  hexti Exti handle.
 432:/home/christoschristoforou/STM32Cube/Repository/STM32Cube_FW_F4_V1.27.0/Drivers/STM32F4xx_HAL_Driver/Src/stm32f4xx_hal_exti.c ****   * @retval none.
 433:/home/christoschristoforou/STM32Cube/Repository/STM32Cube_FW_F4_V1.27.0/Drivers/STM32F4xx_HAL_Driver/Src/stm32f4xx_hal_exti.c ****   */
 434:/home/christoschristoforou/STM32Cube/Repository/STM32Cube_FW_F4_V1.27.0/Drivers/STM32F4xx_HAL_Driver/Src/stm32f4xx_hal_exti.c **** void HAL_EXTI_IRQHandler(EXTI_HandleTypeDef *hexti)
 435:/home/christoschristoforou/STM32Cube/Repository/STM32Cube_FW_F4_V1.27.0/Drivers/STM32F4xx_HAL_Driver/Src/stm32f4xx_hal_exti.c **** {
 915              		.loc 1 435 1 is_stmt 1 view -0
 916              		.cfi_startproc
ARM GAS  /tmp/ccNY9AZA.s 			page 26


 917              		@ args = 0, pretend = 0, frame = 0
 918              		@ frame_needed = 0, uses_anonymous_args = 0
 919              		.loc 1 435 1 is_stmt 0 view .LVU255
 920 0000 08B5     		push	{r3, lr}
 921              	.LCFI10:
 922              		.cfi_def_cfa_offset 8
 923              		.cfi_offset 3, -8
 924              		.cfi_offset 14, -4
 436:/home/christoschristoforou/STM32Cube/Repository/STM32Cube_FW_F4_V1.27.0/Drivers/STM32F4xx_HAL_Driver/Src/stm32f4xx_hal_exti.c ****   uint32_t regval;
 925              		.loc 1 436 3 is_stmt 1 view .LVU256
 437:/home/christoschristoforou/STM32Cube/Repository/STM32Cube_FW_F4_V1.27.0/Drivers/STM32F4xx_HAL_Driver/Src/stm32f4xx_hal_exti.c ****   uint32_t maskline;
 926              		.loc 1 437 3 view .LVU257
 438:/home/christoschristoforou/STM32Cube/Repository/STM32Cube_FW_F4_V1.27.0/Drivers/STM32F4xx_HAL_Driver/Src/stm32f4xx_hal_exti.c **** 
 439:/home/christoschristoforou/STM32Cube/Repository/STM32Cube_FW_F4_V1.27.0/Drivers/STM32F4xx_HAL_Driver/Src/stm32f4xx_hal_exti.c ****   /* Compute line mask */
 440:/home/christoschristoforou/STM32Cube/Repository/STM32Cube_FW_F4_V1.27.0/Drivers/STM32F4xx_HAL_Driver/Src/stm32f4xx_hal_exti.c ****   maskline = (1uL << (hexti->Line & EXTI_PIN_MASK));
 927              		.loc 1 440 3 view .LVU258
 928              		.loc 1 440 28 is_stmt 0 view .LVU259
 929 0002 0368     		ldr	r3, [r0]
 930              		.loc 1 440 35 view .LVU260
 931 0004 03F01F02 		and	r2, r3, #31
 932              		.loc 1 440 12 view .LVU261
 933 0008 0123     		movs	r3, #1
 934 000a 9340     		lsls	r3, r3, r2
 935              	.LVL80:
 441:/home/christoschristoforou/STM32Cube/Repository/STM32Cube_FW_F4_V1.27.0/Drivers/STM32F4xx_HAL_Driver/Src/stm32f4xx_hal_exti.c **** 
 442:/home/christoschristoforou/STM32Cube/Repository/STM32Cube_FW_F4_V1.27.0/Drivers/STM32F4xx_HAL_Driver/Src/stm32f4xx_hal_exti.c ****   /* Get pending bit  */
 443:/home/christoschristoforou/STM32Cube/Repository/STM32Cube_FW_F4_V1.27.0/Drivers/STM32F4xx_HAL_Driver/Src/stm32f4xx_hal_exti.c ****   regval = (EXTI->PR & maskline);
 936              		.loc 1 443 3 is_stmt 1 view .LVU262
 937              		.loc 1 443 17 is_stmt 0 view .LVU263
 938 000c 044A     		ldr	r2, .L86
 939 000e 5269     		ldr	r2, [r2, #20]
 940              	.LVL81:
 444:/home/christoschristoforou/STM32Cube/Repository/STM32Cube_FW_F4_V1.27.0/Drivers/STM32F4xx_HAL_Driver/Src/stm32f4xx_hal_exti.c ****   if (regval != 0x00u)
 941              		.loc 1 444 3 is_stmt 1 view .LVU264
 942              		.loc 1 444 6 is_stmt 0 view .LVU265
 943 0010 1A42     		tst	r2, r3
 944 0012 04D0     		beq	.L83
 445:/home/christoschristoforou/STM32Cube/Repository/STM32Cube_FW_F4_V1.27.0/Drivers/STM32F4xx_HAL_Driver/Src/stm32f4xx_hal_exti.c ****   {
 446:/home/christoschristoforou/STM32Cube/Repository/STM32Cube_FW_F4_V1.27.0/Drivers/STM32F4xx_HAL_Driver/Src/stm32f4xx_hal_exti.c ****     /* Clear pending bit */
 447:/home/christoschristoforou/STM32Cube/Repository/STM32Cube_FW_F4_V1.27.0/Drivers/STM32F4xx_HAL_Driver/Src/stm32f4xx_hal_exti.c ****     EXTI->PR = maskline;
 945              		.loc 1 447 5 is_stmt 1 view .LVU266
 946              		.loc 1 447 14 is_stmt 0 view .LVU267
 947 0014 024A     		ldr	r2, .L86
 948              	.LVL82:
 949              		.loc 1 447 14 view .LVU268
 950 0016 5361     		str	r3, [r2, #20]
 448:/home/christoschristoforou/STM32Cube/Repository/STM32Cube_FW_F4_V1.27.0/Drivers/STM32F4xx_HAL_Driver/Src/stm32f4xx_hal_exti.c **** 
 449:/home/christoschristoforou/STM32Cube/Repository/STM32Cube_FW_F4_V1.27.0/Drivers/STM32F4xx_HAL_Driver/Src/stm32f4xx_hal_exti.c ****     /* Call callback */
 450:/home/christoschristoforou/STM32Cube/Repository/STM32Cube_FW_F4_V1.27.0/Drivers/STM32F4xx_HAL_Driver/Src/stm32f4xx_hal_exti.c ****     if (hexti->PendingCallback != NULL)
 951              		.loc 1 450 5 is_stmt 1 view .LVU269
 952              		.loc 1 450 14 is_stmt 0 view .LVU270
 953 0018 4368     		ldr	r3, [r0, #4]
 954              	.LVL83:
 955              		.loc 1 450 8 view .LVU271
 956 001a 03B1     		cbz	r3, .L83
 451:/home/christoschristoforou/STM32Cube/Repository/STM32Cube_FW_F4_V1.27.0/Drivers/STM32F4xx_HAL_Driver/Src/stm32f4xx_hal_exti.c ****     {
 452:/home/christoschristoforou/STM32Cube/Repository/STM32Cube_FW_F4_V1.27.0/Drivers/STM32F4xx_HAL_Driver/Src/stm32f4xx_hal_exti.c ****       hexti->PendingCallback();
ARM GAS  /tmp/ccNY9AZA.s 			page 27


 957              		.loc 1 452 7 is_stmt 1 view .LVU272
 958 001c 9847     		blx	r3
 959              	.LVL84:
 960              	.L83:
 453:/home/christoschristoforou/STM32Cube/Repository/STM32Cube_FW_F4_V1.27.0/Drivers/STM32F4xx_HAL_Driver/Src/stm32f4xx_hal_exti.c ****     }
 454:/home/christoschristoforou/STM32Cube/Repository/STM32Cube_FW_F4_V1.27.0/Drivers/STM32F4xx_HAL_Driver/Src/stm32f4xx_hal_exti.c ****   }
 455:/home/christoschristoforou/STM32Cube/Repository/STM32Cube_FW_F4_V1.27.0/Drivers/STM32F4xx_HAL_Driver/Src/stm32f4xx_hal_exti.c **** }
 961              		.loc 1 455 1 is_stmt 0 view .LVU273
 962 001e 08BD     		pop	{r3, pc}
 963              	.L87:
 964              		.align	2
 965              	.L86:
 966 0020 003C0140 		.word	1073822720
 967              		.cfi_endproc
 968              	.LFE135:
 970              		.section	.text.HAL_EXTI_GetPending,"ax",%progbits
 971              		.align	1
 972              		.global	HAL_EXTI_GetPending
 973              		.syntax unified
 974              		.thumb
 975              		.thumb_func
 976              		.fpu fpv4-sp-d16
 978              	HAL_EXTI_GetPending:
 979              	.LVL85:
 980              	.LFB136:
 456:/home/christoschristoforou/STM32Cube/Repository/STM32Cube_FW_F4_V1.27.0/Drivers/STM32F4xx_HAL_Driver/Src/stm32f4xx_hal_exti.c **** 
 457:/home/christoschristoforou/STM32Cube/Repository/STM32Cube_FW_F4_V1.27.0/Drivers/STM32F4xx_HAL_Driver/Src/stm32f4xx_hal_exti.c **** /**
 458:/home/christoschristoforou/STM32Cube/Repository/STM32Cube_FW_F4_V1.27.0/Drivers/STM32F4xx_HAL_Driver/Src/stm32f4xx_hal_exti.c ****   * @brief  Get interrupt pending bit of a dedicated line.
 459:/home/christoschristoforou/STM32Cube/Repository/STM32Cube_FW_F4_V1.27.0/Drivers/STM32F4xx_HAL_Driver/Src/stm32f4xx_hal_exti.c ****   * @param  hexti Exti handle.
 460:/home/christoschristoforou/STM32Cube/Repository/STM32Cube_FW_F4_V1.27.0/Drivers/STM32F4xx_HAL_Driver/Src/stm32f4xx_hal_exti.c ****   * @param  Edge Specify which pending edge as to be checked.
 461:/home/christoschristoforou/STM32Cube/Repository/STM32Cube_FW_F4_V1.27.0/Drivers/STM32F4xx_HAL_Driver/Src/stm32f4xx_hal_exti.c ****   *         This parameter can be one of the following values:
 462:/home/christoschristoforou/STM32Cube/Repository/STM32Cube_FW_F4_V1.27.0/Drivers/STM32F4xx_HAL_Driver/Src/stm32f4xx_hal_exti.c ****   *           @arg @ref EXTI_TRIGGER_RISING_FALLING
 463:/home/christoschristoforou/STM32Cube/Repository/STM32Cube_FW_F4_V1.27.0/Drivers/STM32F4xx_HAL_Driver/Src/stm32f4xx_hal_exti.c ****   *         This parameter is kept for compatibility with other series.
 464:/home/christoschristoforou/STM32Cube/Repository/STM32Cube_FW_F4_V1.27.0/Drivers/STM32F4xx_HAL_Driver/Src/stm32f4xx_hal_exti.c ****   * @retval 1 if interrupt is pending else 0.
 465:/home/christoschristoforou/STM32Cube/Repository/STM32Cube_FW_F4_V1.27.0/Drivers/STM32F4xx_HAL_Driver/Src/stm32f4xx_hal_exti.c ****   */
 466:/home/christoschristoforou/STM32Cube/Repository/STM32Cube_FW_F4_V1.27.0/Drivers/STM32F4xx_HAL_Driver/Src/stm32f4xx_hal_exti.c **** uint32_t HAL_EXTI_GetPending(EXTI_HandleTypeDef *hexti, uint32_t Edge)
 467:/home/christoschristoforou/STM32Cube/Repository/STM32Cube_FW_F4_V1.27.0/Drivers/STM32F4xx_HAL_Driver/Src/stm32f4xx_hal_exti.c **** {
 981              		.loc 1 467 1 is_stmt 1 view -0
 982              		.cfi_startproc
 983              		@ args = 0, pretend = 0, frame = 0
 984              		@ frame_needed = 0, uses_anonymous_args = 0
 985              		.loc 1 467 1 is_stmt 0 view .LVU275
 986 0000 38B5     		push	{r3, r4, r5, lr}
 987              	.LCFI11:
 988              		.cfi_def_cfa_offset 16
 989              		.cfi_offset 3, -16
 990              		.cfi_offset 4, -12
 991              		.cfi_offset 5, -8
 992              		.cfi_offset 14, -4
 993 0002 0446     		mov	r4, r0
 994 0004 0D46     		mov	r5, r1
 468:/home/christoschristoforou/STM32Cube/Repository/STM32Cube_FW_F4_V1.27.0/Drivers/STM32F4xx_HAL_Driver/Src/stm32f4xx_hal_exti.c ****   uint32_t regval;
 995              		.loc 1 468 3 is_stmt 1 view .LVU276
 469:/home/christoschristoforou/STM32Cube/Repository/STM32Cube_FW_F4_V1.27.0/Drivers/STM32F4xx_HAL_Driver/Src/stm32f4xx_hal_exti.c ****   uint32_t linepos;
 996              		.loc 1 469 3 view .LVU277
 470:/home/christoschristoforou/STM32Cube/Repository/STM32Cube_FW_F4_V1.27.0/Drivers/STM32F4xx_HAL_Driver/Src/stm32f4xx_hal_exti.c ****   uint32_t maskline;
 997              		.loc 1 470 3 view .LVU278
ARM GAS  /tmp/ccNY9AZA.s 			page 28


 471:/home/christoschristoforou/STM32Cube/Repository/STM32Cube_FW_F4_V1.27.0/Drivers/STM32F4xx_HAL_Driver/Src/stm32f4xx_hal_exti.c **** 
 472:/home/christoschristoforou/STM32Cube/Repository/STM32Cube_FW_F4_V1.27.0/Drivers/STM32F4xx_HAL_Driver/Src/stm32f4xx_hal_exti.c ****   /* Check parameters */
 473:/home/christoschristoforou/STM32Cube/Repository/STM32Cube_FW_F4_V1.27.0/Drivers/STM32F4xx_HAL_Driver/Src/stm32f4xx_hal_exti.c ****   assert_param(IS_EXTI_LINE(hexti->Line));
 998              		.loc 1 473 3 view .LVU279
 999 0006 0268     		ldr	r2, [r0]
 1000 0008 22F0C063 		bic	r3, r2, #100663296
 1001 000c 23F01F03 		bic	r3, r3, #31
 1002 0010 3BB9     		cbnz	r3, .L89
 1003              		.loc 1 473 3 is_stmt 0 discriminator 2 view .LVU280
 1004 0012 02F0C063 		and	r3, r2, #100663296
 1005 0016 B3F1007F 		cmp	r3, #33554432
 1006 001a 18D0     		beq	.L90
 1007              		.loc 1 473 3 discriminator 3 view .LVU281
 1008 001c B3F1C06F 		cmp	r3, #100663296
 1009 0020 15D0     		beq	.L90
 1010              	.L89:
 1011              		.loc 1 473 3 discriminator 7 view .LVU282
 1012 0022 40F2D911 		movw	r1, #473
 1013              	.LVL86:
 1014              		.loc 1 473 3 discriminator 7 view .LVU283
 1015 0026 1248     		ldr	r0, .L97
 1016              	.LVL87:
 1017              		.loc 1 473 3 discriminator 7 view .LVU284
 1018 0028 FFF7FEFF 		bl	assert_failed
 1019              	.LVL88:
 1020              	.L91:
 474:/home/christoschristoforou/STM32Cube/Repository/STM32Cube_FW_F4_V1.27.0/Drivers/STM32F4xx_HAL_Driver/Src/stm32f4xx_hal_exti.c ****   assert_param(IS_EXTI_CONFIG_LINE(hexti->Line));
 1021              		.loc 1 474 3 is_stmt 1 view .LVU285
 1022 002c 2368     		ldr	r3, [r4]
 1023 002e 13F0007F 		tst	r3, #33554432
 1024 0032 11D0     		beq	.L95
 1025              	.L92:
 475:/home/christoschristoforou/STM32Cube/Repository/STM32Cube_FW_F4_V1.27.0/Drivers/STM32F4xx_HAL_Driver/Src/stm32f4xx_hal_exti.c ****   assert_param(IS_EXTI_PENDING_EDGE(Edge));
 1026              		.loc 1 475 3 view .LVU286
 1027 0034 032D     		cmp	r5, #3
 1028 0036 15D1     		bne	.L96
 1029              	.L93:
 476:/home/christoschristoforou/STM32Cube/Repository/STM32Cube_FW_F4_V1.27.0/Drivers/STM32F4xx_HAL_Driver/Src/stm32f4xx_hal_exti.c **** 
 477:/home/christoschristoforou/STM32Cube/Repository/STM32Cube_FW_F4_V1.27.0/Drivers/STM32F4xx_HAL_Driver/Src/stm32f4xx_hal_exti.c ****   /* Compute line mask */
 478:/home/christoschristoforou/STM32Cube/Repository/STM32Cube_FW_F4_V1.27.0/Drivers/STM32F4xx_HAL_Driver/Src/stm32f4xx_hal_exti.c ****   linepos = (hexti->Line & EXTI_PIN_MASK);
 1030              		.loc 1 478 3 view .LVU287
 1031              		.loc 1 478 19 is_stmt 0 view .LVU288
 1032 0038 2368     		ldr	r3, [r4]
 1033              		.loc 1 478 11 view .LVU289
 1034 003a 03F01F03 		and	r3, r3, #31
 1035              	.LVL89:
 479:/home/christoschristoforou/STM32Cube/Repository/STM32Cube_FW_F4_V1.27.0/Drivers/STM32F4xx_HAL_Driver/Src/stm32f4xx_hal_exti.c ****   maskline = (1uL << linepos);
 1036              		.loc 1 479 3 is_stmt 1 view .LVU290
 1037              		.loc 1 479 12 is_stmt 0 view .LVU291
 1038 003e 0120     		movs	r0, #1
 1039 0040 00FA03F2 		lsl	r2, r0, r3
 1040              	.LVL90:
 480:/home/christoschristoforou/STM32Cube/Repository/STM32Cube_FW_F4_V1.27.0/Drivers/STM32F4xx_HAL_Driver/Src/stm32f4xx_hal_exti.c **** 
 481:/home/christoschristoforou/STM32Cube/Repository/STM32Cube_FW_F4_V1.27.0/Drivers/STM32F4xx_HAL_Driver/Src/stm32f4xx_hal_exti.c ****   /* return 1 if bit is set else 0 */
 482:/home/christoschristoforou/STM32Cube/Repository/STM32Cube_FW_F4_V1.27.0/Drivers/STM32F4xx_HAL_Driver/Src/stm32f4xx_hal_exti.c ****   regval = ((EXTI->PR & maskline) >> linepos);
 1041              		.loc 1 482 3 is_stmt 1 view .LVU292
 1042              		.loc 1 482 18 is_stmt 0 view .LVU293
ARM GAS  /tmp/ccNY9AZA.s 			page 29


 1043 0044 0B49     		ldr	r1, .L97+4
 1044 0046 4869     		ldr	r0, [r1, #20]
 1045              		.loc 1 482 23 view .LVU294
 1046 0048 1040     		ands	r0, r0, r2
 1047              	.LVL91:
 483:/home/christoschristoforou/STM32Cube/Repository/STM32Cube_FW_F4_V1.27.0/Drivers/STM32F4xx_HAL_Driver/Src/stm32f4xx_hal_exti.c ****   return regval;
 1048              		.loc 1 483 3 is_stmt 1 view .LVU295
 484:/home/christoschristoforou/STM32Cube/Repository/STM32Cube_FW_F4_V1.27.0/Drivers/STM32F4xx_HAL_Driver/Src/stm32f4xx_hal_exti.c **** }
 1049              		.loc 1 484 1 is_stmt 0 view .LVU296
 1050 004a D840     		lsrs	r0, r0, r3
 1051              	.LVL92:
 1052              		.loc 1 484 1 view .LVU297
 1053 004c 38BD     		pop	{r3, r4, r5, pc}
 1054              	.LVL93:
 1055              	.L90:
 473:/home/christoschristoforou/STM32Cube/Repository/STM32Cube_FW_F4_V1.27.0/Drivers/STM32F4xx_HAL_Driver/Src/stm32f4xx_hal_exti.c ****   assert_param(IS_EXTI_CONFIG_LINE(hexti->Line));
 1056              		.loc 1 473 3 discriminator 6 view .LVU298
 1057 004e 02F01F02 		and	r2, r2, #31
 1058 0052 162A     		cmp	r2, #22
 1059 0054 EAD9     		bls	.L91
 1060 0056 E4E7     		b	.L89
 1061              	.LVL94:
 1062              	.L95:
 474:/home/christoschristoforou/STM32Cube/Repository/STM32Cube_FW_F4_V1.27.0/Drivers/STM32F4xx_HAL_Driver/Src/stm32f4xx_hal_exti.c ****   assert_param(IS_EXTI_PENDING_EDGE(Edge));
 1063              		.loc 1 474 3 discriminator 1 view .LVU299
 1064 0058 4FF4ED71 		mov	r1, #474
 1065 005c 0448     		ldr	r0, .L97
 1066 005e FFF7FEFF 		bl	assert_failed
 1067              	.LVL95:
 1068 0062 E7E7     		b	.L92
 1069              	.L96:
 475:/home/christoschristoforou/STM32Cube/Repository/STM32Cube_FW_F4_V1.27.0/Drivers/STM32F4xx_HAL_Driver/Src/stm32f4xx_hal_exti.c **** 
 1070              		.loc 1 475 3 discriminator 1 view .LVU300
 1071 0064 40F2DB11 		movw	r1, #475
 1072 0068 0148     		ldr	r0, .L97
 1073 006a FFF7FEFF 		bl	assert_failed
 1074              	.LVL96:
 1075 006e E3E7     		b	.L93
 1076              	.L98:
 1077              		.align	2
 1078              	.L97:
 1079 0070 00000000 		.word	.LC0
 1080 0074 003C0140 		.word	1073822720
 1081              		.cfi_endproc
 1082              	.LFE136:
 1084              		.section	.text.HAL_EXTI_ClearPending,"ax",%progbits
 1085              		.align	1
 1086              		.global	HAL_EXTI_ClearPending
 1087              		.syntax unified
 1088              		.thumb
 1089              		.thumb_func
 1090              		.fpu fpv4-sp-d16
 1092              	HAL_EXTI_ClearPending:
 1093              	.LVL97:
 1094              	.LFB137:
 485:/home/christoschristoforou/STM32Cube/Repository/STM32Cube_FW_F4_V1.27.0/Drivers/STM32F4xx_HAL_Driver/Src/stm32f4xx_hal_exti.c **** 
 486:/home/christoschristoforou/STM32Cube/Repository/STM32Cube_FW_F4_V1.27.0/Drivers/STM32F4xx_HAL_Driver/Src/stm32f4xx_hal_exti.c **** /**
ARM GAS  /tmp/ccNY9AZA.s 			page 30


 487:/home/christoschristoforou/STM32Cube/Repository/STM32Cube_FW_F4_V1.27.0/Drivers/STM32F4xx_HAL_Driver/Src/stm32f4xx_hal_exti.c ****   * @brief  Clear interrupt pending bit of a dedicated line.
 488:/home/christoschristoforou/STM32Cube/Repository/STM32Cube_FW_F4_V1.27.0/Drivers/STM32F4xx_HAL_Driver/Src/stm32f4xx_hal_exti.c ****   * @param  hexti Exti handle.
 489:/home/christoschristoforou/STM32Cube/Repository/STM32Cube_FW_F4_V1.27.0/Drivers/STM32F4xx_HAL_Driver/Src/stm32f4xx_hal_exti.c ****   * @param  Edge Specify which pending edge as to be clear.
 490:/home/christoschristoforou/STM32Cube/Repository/STM32Cube_FW_F4_V1.27.0/Drivers/STM32F4xx_HAL_Driver/Src/stm32f4xx_hal_exti.c ****   *         This parameter can be one of the following values:
 491:/home/christoschristoforou/STM32Cube/Repository/STM32Cube_FW_F4_V1.27.0/Drivers/STM32F4xx_HAL_Driver/Src/stm32f4xx_hal_exti.c ****   *           @arg @ref EXTI_TRIGGER_RISING_FALLING
 492:/home/christoschristoforou/STM32Cube/Repository/STM32Cube_FW_F4_V1.27.0/Drivers/STM32F4xx_HAL_Driver/Src/stm32f4xx_hal_exti.c ****   *         This parameter is kept for compatibility with other series.
 493:/home/christoschristoforou/STM32Cube/Repository/STM32Cube_FW_F4_V1.27.0/Drivers/STM32F4xx_HAL_Driver/Src/stm32f4xx_hal_exti.c ****   * @retval None.
 494:/home/christoschristoforou/STM32Cube/Repository/STM32Cube_FW_F4_V1.27.0/Drivers/STM32F4xx_HAL_Driver/Src/stm32f4xx_hal_exti.c ****   */
 495:/home/christoschristoforou/STM32Cube/Repository/STM32Cube_FW_F4_V1.27.0/Drivers/STM32F4xx_HAL_Driver/Src/stm32f4xx_hal_exti.c **** void HAL_EXTI_ClearPending(EXTI_HandleTypeDef *hexti, uint32_t Edge)
 496:/home/christoschristoforou/STM32Cube/Repository/STM32Cube_FW_F4_V1.27.0/Drivers/STM32F4xx_HAL_Driver/Src/stm32f4xx_hal_exti.c **** {
 1095              		.loc 1 496 1 is_stmt 1 view -0
 1096              		.cfi_startproc
 1097              		@ args = 0, pretend = 0, frame = 0
 1098              		@ frame_needed = 0, uses_anonymous_args = 0
 1099              		.loc 1 496 1 is_stmt 0 view .LVU302
 1100 0000 38B5     		push	{r3, r4, r5, lr}
 1101              	.LCFI12:
 1102              		.cfi_def_cfa_offset 16
 1103              		.cfi_offset 3, -16
 1104              		.cfi_offset 4, -12
 1105              		.cfi_offset 5, -8
 1106              		.cfi_offset 14, -4
 1107 0002 0446     		mov	r4, r0
 1108 0004 0D46     		mov	r5, r1
 497:/home/christoschristoforou/STM32Cube/Repository/STM32Cube_FW_F4_V1.27.0/Drivers/STM32F4xx_HAL_Driver/Src/stm32f4xx_hal_exti.c ****   uint32_t maskline;
 1109              		.loc 1 497 3 is_stmt 1 view .LVU303
 498:/home/christoschristoforou/STM32Cube/Repository/STM32Cube_FW_F4_V1.27.0/Drivers/STM32F4xx_HAL_Driver/Src/stm32f4xx_hal_exti.c **** 
 499:/home/christoschristoforou/STM32Cube/Repository/STM32Cube_FW_F4_V1.27.0/Drivers/STM32F4xx_HAL_Driver/Src/stm32f4xx_hal_exti.c ****   /* Check parameters */
 500:/home/christoschristoforou/STM32Cube/Repository/STM32Cube_FW_F4_V1.27.0/Drivers/STM32F4xx_HAL_Driver/Src/stm32f4xx_hal_exti.c ****   assert_param(IS_EXTI_LINE(hexti->Line));
 1110              		.loc 1 500 3 view .LVU304
 1111 0006 0268     		ldr	r2, [r0]
 1112 0008 22F0C063 		bic	r3, r2, #100663296
 1113 000c 23F01F03 		bic	r3, r3, #31
 1114 0010 3BB9     		cbnz	r3, .L100
 1115              		.loc 1 500 3 is_stmt 0 discriminator 2 view .LVU305
 1116 0012 02F0C063 		and	r3, r2, #100663296
 1117 0016 B3F1007F 		cmp	r3, #33554432
 1118 001a 15D0     		beq	.L101
 1119              		.loc 1 500 3 discriminator 3 view .LVU306
 1120 001c B3F1C06F 		cmp	r3, #100663296
 1121 0020 12D0     		beq	.L101
 1122              	.L100:
 1123              		.loc 1 500 3 discriminator 7 view .LVU307
 1124 0022 4FF4FA71 		mov	r1, #500
 1125              	.LVL98:
 1126              		.loc 1 500 3 discriminator 7 view .LVU308
 1127 0026 1148     		ldr	r0, .L108
 1128              	.LVL99:
 1129              		.loc 1 500 3 discriminator 7 view .LVU309
 1130 0028 FFF7FEFF 		bl	assert_failed
 1131              	.LVL100:
 1132              	.L102:
 501:/home/christoschristoforou/STM32Cube/Repository/STM32Cube_FW_F4_V1.27.0/Drivers/STM32F4xx_HAL_Driver/Src/stm32f4xx_hal_exti.c ****   assert_param(IS_EXTI_CONFIG_LINE(hexti->Line));
 1133              		.loc 1 501 3 is_stmt 1 view .LVU310
 1134 002c 2368     		ldr	r3, [r4]
 1135 002e 13F0007F 		tst	r3, #33554432
 1136 0032 0ED0     		beq	.L106
ARM GAS  /tmp/ccNY9AZA.s 			page 31


 1137              	.L103:
 502:/home/christoschristoforou/STM32Cube/Repository/STM32Cube_FW_F4_V1.27.0/Drivers/STM32F4xx_HAL_Driver/Src/stm32f4xx_hal_exti.c ****   assert_param(IS_EXTI_PENDING_EDGE(Edge));
 1138              		.loc 1 502 3 view .LVU311
 1139 0034 032D     		cmp	r5, #3
 1140 0036 12D1     		bne	.L107
 1141              	.L104:
 503:/home/christoschristoforou/STM32Cube/Repository/STM32Cube_FW_F4_V1.27.0/Drivers/STM32F4xx_HAL_Driver/Src/stm32f4xx_hal_exti.c **** 
 504:/home/christoschristoforou/STM32Cube/Repository/STM32Cube_FW_F4_V1.27.0/Drivers/STM32F4xx_HAL_Driver/Src/stm32f4xx_hal_exti.c ****   /* Compute line mask */
 505:/home/christoschristoforou/STM32Cube/Repository/STM32Cube_FW_F4_V1.27.0/Drivers/STM32F4xx_HAL_Driver/Src/stm32f4xx_hal_exti.c ****   maskline = (1uL << (hexti->Line & EXTI_PIN_MASK));
 1142              		.loc 1 505 3 view .LVU312
 1143              		.loc 1 505 28 is_stmt 0 view .LVU313
 1144 0038 2268     		ldr	r2, [r4]
 1145              		.loc 1 505 35 view .LVU314
 1146 003a 02F01F02 		and	r2, r2, #31
 1147              		.loc 1 505 12 view .LVU315
 1148 003e 0123     		movs	r3, #1
 1149 0040 9340     		lsls	r3, r3, r2
 1150              	.LVL101:
 506:/home/christoschristoforou/STM32Cube/Repository/STM32Cube_FW_F4_V1.27.0/Drivers/STM32F4xx_HAL_Driver/Src/stm32f4xx_hal_exti.c **** 
 507:/home/christoschristoforou/STM32Cube/Repository/STM32Cube_FW_F4_V1.27.0/Drivers/STM32F4xx_HAL_Driver/Src/stm32f4xx_hal_exti.c ****   /* Clear Pending bit */
 508:/home/christoschristoforou/STM32Cube/Repository/STM32Cube_FW_F4_V1.27.0/Drivers/STM32F4xx_HAL_Driver/Src/stm32f4xx_hal_exti.c ****   EXTI->PR =  maskline;
 1151              		.loc 1 508 3 is_stmt 1 view .LVU316
 1152              		.loc 1 508 12 is_stmt 0 view .LVU317
 1153 0042 0B4A     		ldr	r2, .L108+4
 1154 0044 5361     		str	r3, [r2, #20]
 509:/home/christoschristoforou/STM32Cube/Repository/STM32Cube_FW_F4_V1.27.0/Drivers/STM32F4xx_HAL_Driver/Src/stm32f4xx_hal_exti.c **** }
 1155              		.loc 1 509 1 view .LVU318
 1156 0046 38BD     		pop	{r3, r4, r5, pc}
 1157              	.LVL102:
 1158              	.L101:
 500:/home/christoschristoforou/STM32Cube/Repository/STM32Cube_FW_F4_V1.27.0/Drivers/STM32F4xx_HAL_Driver/Src/stm32f4xx_hal_exti.c ****   assert_param(IS_EXTI_CONFIG_LINE(hexti->Line));
 1159              		.loc 1 500 3 discriminator 6 view .LVU319
 1160 0048 02F01F02 		and	r2, r2, #31
 1161 004c 162A     		cmp	r2, #22
 1162 004e EDD9     		bls	.L102
 1163 0050 E7E7     		b	.L100
 1164              	.LVL103:
 1165              	.L106:
 501:/home/christoschristoforou/STM32Cube/Repository/STM32Cube_FW_F4_V1.27.0/Drivers/STM32F4xx_HAL_Driver/Src/stm32f4xx_hal_exti.c ****   assert_param(IS_EXTI_PENDING_EDGE(Edge));
 1166              		.loc 1 501 3 discriminator 1 view .LVU320
 1167 0052 40F2F511 		movw	r1, #501
 1168 0056 0548     		ldr	r0, .L108
 1169 0058 FFF7FEFF 		bl	assert_failed
 1170              	.LVL104:
 1171 005c EAE7     		b	.L103
 1172              	.L107:
 502:/home/christoschristoforou/STM32Cube/Repository/STM32Cube_FW_F4_V1.27.0/Drivers/STM32F4xx_HAL_Driver/Src/stm32f4xx_hal_exti.c **** 
 1173              		.loc 1 502 3 discriminator 1 view .LVU321
 1174 005e 4FF4FB71 		mov	r1, #502
 1175 0062 0248     		ldr	r0, .L108
 1176 0064 FFF7FEFF 		bl	assert_failed
 1177              	.LVL105:
 1178 0068 E6E7     		b	.L104
 1179              	.L109:
 1180 006a 00BF     		.align	2
 1181              	.L108:
 1182 006c 00000000 		.word	.LC0
ARM GAS  /tmp/ccNY9AZA.s 			page 32


 1183 0070 003C0140 		.word	1073822720
 1184              		.cfi_endproc
 1185              	.LFE137:
 1187              		.section	.text.HAL_EXTI_GenerateSWI,"ax",%progbits
 1188              		.align	1
 1189              		.global	HAL_EXTI_GenerateSWI
 1190              		.syntax unified
 1191              		.thumb
 1192              		.thumb_func
 1193              		.fpu fpv4-sp-d16
 1195              	HAL_EXTI_GenerateSWI:
 1196              	.LVL106:
 1197              	.LFB138:
 510:/home/christoschristoforou/STM32Cube/Repository/STM32Cube_FW_F4_V1.27.0/Drivers/STM32F4xx_HAL_Driver/Src/stm32f4xx_hal_exti.c **** 
 511:/home/christoschristoforou/STM32Cube/Repository/STM32Cube_FW_F4_V1.27.0/Drivers/STM32F4xx_HAL_Driver/Src/stm32f4xx_hal_exti.c **** /**
 512:/home/christoschristoforou/STM32Cube/Repository/STM32Cube_FW_F4_V1.27.0/Drivers/STM32F4xx_HAL_Driver/Src/stm32f4xx_hal_exti.c ****   * @brief  Generate a software interrupt for a dedicated line.
 513:/home/christoschristoforou/STM32Cube/Repository/STM32Cube_FW_F4_V1.27.0/Drivers/STM32F4xx_HAL_Driver/Src/stm32f4xx_hal_exti.c ****   * @param  hexti Exti handle.
 514:/home/christoschristoforou/STM32Cube/Repository/STM32Cube_FW_F4_V1.27.0/Drivers/STM32F4xx_HAL_Driver/Src/stm32f4xx_hal_exti.c ****   * @retval None.
 515:/home/christoschristoforou/STM32Cube/Repository/STM32Cube_FW_F4_V1.27.0/Drivers/STM32F4xx_HAL_Driver/Src/stm32f4xx_hal_exti.c ****   */
 516:/home/christoschristoforou/STM32Cube/Repository/STM32Cube_FW_F4_V1.27.0/Drivers/STM32F4xx_HAL_Driver/Src/stm32f4xx_hal_exti.c **** void HAL_EXTI_GenerateSWI(EXTI_HandleTypeDef *hexti)
 517:/home/christoschristoforou/STM32Cube/Repository/STM32Cube_FW_F4_V1.27.0/Drivers/STM32F4xx_HAL_Driver/Src/stm32f4xx_hal_exti.c **** {
 1198              		.loc 1 517 1 is_stmt 1 view -0
 1199              		.cfi_startproc
 1200              		@ args = 0, pretend = 0, frame = 0
 1201              		@ frame_needed = 0, uses_anonymous_args = 0
 1202              		.loc 1 517 1 is_stmt 0 view .LVU323
 1203 0000 10B5     		push	{r4, lr}
 1204              	.LCFI13:
 1205              		.cfi_def_cfa_offset 8
 1206              		.cfi_offset 4, -8
 1207              		.cfi_offset 14, -4
 1208 0002 0446     		mov	r4, r0
 518:/home/christoschristoforou/STM32Cube/Repository/STM32Cube_FW_F4_V1.27.0/Drivers/STM32F4xx_HAL_Driver/Src/stm32f4xx_hal_exti.c ****   uint32_t maskline;
 1209              		.loc 1 518 3 is_stmt 1 view .LVU324
 519:/home/christoschristoforou/STM32Cube/Repository/STM32Cube_FW_F4_V1.27.0/Drivers/STM32F4xx_HAL_Driver/Src/stm32f4xx_hal_exti.c **** 
 520:/home/christoschristoforou/STM32Cube/Repository/STM32Cube_FW_F4_V1.27.0/Drivers/STM32F4xx_HAL_Driver/Src/stm32f4xx_hal_exti.c ****   /* Check parameters */
 521:/home/christoschristoforou/STM32Cube/Repository/STM32Cube_FW_F4_V1.27.0/Drivers/STM32F4xx_HAL_Driver/Src/stm32f4xx_hal_exti.c ****   assert_param(IS_EXTI_LINE(hexti->Line));
 1210              		.loc 1 521 3 view .LVU325
 1211 0004 0268     		ldr	r2, [r0]
 1212 0006 22F0C063 		bic	r3, r2, #100663296
 1213 000a 23F01F03 		bic	r3, r3, #31
 1214 000e 3BB9     		cbnz	r3, .L111
 1215              		.loc 1 521 3 is_stmt 0 discriminator 2 view .LVU326
 1216 0010 02F0C063 		and	r3, r2, #100663296
 1217 0014 B3F1007F 		cmp	r3, #33554432
 1218 0018 13D0     		beq	.L112
 1219              		.loc 1 521 3 discriminator 3 view .LVU327
 1220 001a B3F1C06F 		cmp	r3, #100663296
 1221 001e 10D0     		beq	.L112
 1222              	.L111:
 1223              		.loc 1 521 3 discriminator 7 view .LVU328
 1224 0020 40F20921 		movw	r1, #521
 1225 0024 0C48     		ldr	r0, .L117
 1226              	.LVL107:
 1227              		.loc 1 521 3 discriminator 7 view .LVU329
 1228 0026 FFF7FEFF 		bl	assert_failed
 1229              	.LVL108:
ARM GAS  /tmp/ccNY9AZA.s 			page 33


 1230              	.L113:
 522:/home/christoschristoforou/STM32Cube/Repository/STM32Cube_FW_F4_V1.27.0/Drivers/STM32F4xx_HAL_Driver/Src/stm32f4xx_hal_exti.c ****   assert_param(IS_EXTI_CONFIG_LINE(hexti->Line));
 1231              		.loc 1 522 3 is_stmt 1 view .LVU330
 1232 002a 2368     		ldr	r3, [r4]
 1233 002c 13F0007F 		tst	r3, #33554432
 1234 0030 0CD0     		beq	.L116
 1235              	.L114:
 523:/home/christoschristoforou/STM32Cube/Repository/STM32Cube_FW_F4_V1.27.0/Drivers/STM32F4xx_HAL_Driver/Src/stm32f4xx_hal_exti.c **** 
 524:/home/christoschristoforou/STM32Cube/Repository/STM32Cube_FW_F4_V1.27.0/Drivers/STM32F4xx_HAL_Driver/Src/stm32f4xx_hal_exti.c ****   /* Compute line mask */
 525:/home/christoschristoforou/STM32Cube/Repository/STM32Cube_FW_F4_V1.27.0/Drivers/STM32F4xx_HAL_Driver/Src/stm32f4xx_hal_exti.c ****   maskline = (1uL << (hexti->Line & EXTI_PIN_MASK));
 1236              		.loc 1 525 3 view .LVU331
 1237              		.loc 1 525 28 is_stmt 0 view .LVU332
 1238 0032 2268     		ldr	r2, [r4]
 1239              		.loc 1 525 35 view .LVU333
 1240 0034 02F01F02 		and	r2, r2, #31
 1241              		.loc 1 525 12 view .LVU334
 1242 0038 0123     		movs	r3, #1
 1243 003a 9340     		lsls	r3, r3, r2
 1244              	.LVL109:
 526:/home/christoschristoforou/STM32Cube/Repository/STM32Cube_FW_F4_V1.27.0/Drivers/STM32F4xx_HAL_Driver/Src/stm32f4xx_hal_exti.c **** 
 527:/home/christoschristoforou/STM32Cube/Repository/STM32Cube_FW_F4_V1.27.0/Drivers/STM32F4xx_HAL_Driver/Src/stm32f4xx_hal_exti.c ****   /* Generate Software interrupt */
 528:/home/christoschristoforou/STM32Cube/Repository/STM32Cube_FW_F4_V1.27.0/Drivers/STM32F4xx_HAL_Driver/Src/stm32f4xx_hal_exti.c ****   EXTI->SWIER = maskline;
 1245              		.loc 1 528 3 is_stmt 1 view .LVU335
 1246              		.loc 1 528 15 is_stmt 0 view .LVU336
 1247 003c 074A     		ldr	r2, .L117+4
 1248 003e 1361     		str	r3, [r2, #16]
 529:/home/christoschristoforou/STM32Cube/Repository/STM32Cube_FW_F4_V1.27.0/Drivers/STM32F4xx_HAL_Driver/Src/stm32f4xx_hal_exti.c **** }
 1249              		.loc 1 529 1 view .LVU337
 1250 0040 10BD     		pop	{r4, pc}
 1251              	.LVL110:
 1252              	.L112:
 521:/home/christoschristoforou/STM32Cube/Repository/STM32Cube_FW_F4_V1.27.0/Drivers/STM32F4xx_HAL_Driver/Src/stm32f4xx_hal_exti.c ****   assert_param(IS_EXTI_CONFIG_LINE(hexti->Line));
 1253              		.loc 1 521 3 discriminator 6 view .LVU338
 1254 0042 02F01F02 		and	r2, r2, #31
 1255 0046 162A     		cmp	r2, #22
 1256 0048 EFD9     		bls	.L113
 1257 004a E9E7     		b	.L111
 1258              	.LVL111:
 1259              	.L116:
 522:/home/christoschristoforou/STM32Cube/Repository/STM32Cube_FW_F4_V1.27.0/Drivers/STM32F4xx_HAL_Driver/Src/stm32f4xx_hal_exti.c **** 
 1260              		.loc 1 522 3 discriminator 1 view .LVU339
 1261 004c 40F20A21 		movw	r1, #522
 1262 0050 0148     		ldr	r0, .L117
 1263 0052 FFF7FEFF 		bl	assert_failed
 1264              	.LVL112:
 1265 0056 ECE7     		b	.L114
 1266              	.L118:
 1267              		.align	2
 1268              	.L117:
 1269 0058 00000000 		.word	.LC0
 1270 005c 003C0140 		.word	1073822720
 1271              		.cfi_endproc
 1272              	.LFE138:
 1274              		.text
 1275              	.Letext0:
 1276              		.file 2 "/usr/lib/gcc/arm-none-eabi/9.2.1/include/stdint.h"
 1277              		.file 3 "/home/christoschristoforou/STM32Cube/Repository/STM32Cube_FW_F4_V1.27.0/Drivers/CMSIS/Inc
ARM GAS  /tmp/ccNY9AZA.s 			page 34


 1278              		.file 4 "/home/christoschristoforou/STM32Cube/Repository/STM32Cube_FW_F4_V1.27.0/Drivers/CMSIS/Dev
 1279              		.file 5 "/home/christoschristoforou/STM32Cube/Repository/STM32Cube_FW_F4_V1.27.0/Drivers/CMSIS/Dev
 1280              		.file 6 "/home/christoschristoforou/STM32Cube/Repository/STM32Cube_FW_F4_V1.27.0/Drivers/STM32F4xx
 1281              		.file 7 "/home/christoschristoforou/STM32Cube/Repository/STM32Cube_FW_F4_V1.27.0/Drivers/STM32F4xx
 1282              		.file 8 "/home/christoschristoforou/STM32Cube/Repository/STM32Cube_FW_F4_V1.27.0/Drivers/STM32F4xx
 1283              		.file 9 "Core/Inc/stm32f4xx_hal_conf.h"
ARM GAS  /tmp/ccNY9AZA.s 			page 35

